

Microchip MPLAB XC8 Assembler V2.05 build -831301201 
                                                                                               Tue Mar 26 11:16:23 2019

Microchip MPLAB XC8 C Compiler v2.05 (Free license) build 20181220022703 Og1 
     1                           	processor	16F1778
     2                           	opt	pw 120
     3                           	opt	flic
     4                           	psect	idataBANK0,global,class=CODE,delta=2
     5                           	psect	stringtext1,global,class=STRCODE,delta=2
     6                           	psect	cinit,global,class=CODE,merge=1,delta=2
     7                           	psect	dataBANK0,global,class=BANK0,space=1,delta=1
     8                           	psect	clrtext,global,class=CODE,delta=2
     9                           	psect	cstackCOMMON,global,class=COMMON,space=1,delta=1
    10                           	psect	cstackBANK0,global,class=BANK0,space=1,delta=1
    11                           	psect	maintext,global,class=CODE,merge=1,split=1,delta=2
    12                           	psect	text1,local,class=CODE,merge=1,delta=2
    13                           	psect	text2,local,class=CODE,merge=1,delta=2
    14                           	psect	text3,local,class=CODE,merge=1,delta=2
    15                           	psect	text4,local,class=CODE,merge=1,delta=2
    16                           	psect	text5,local,class=CODE,merge=1,delta=2
    17                           	psect	text6,local,class=CODE,merge=1,delta=2
    18                           	psect	text7,local,class=CODE,merge=1,delta=2
    19                           	psect	text8,local,class=CODE,merge=1,delta=2
    20                           	psect	text9,local,class=CODE,merge=1,delta=2
    21                           	psect	text10,local,class=CODE,merge=1,delta=2
    22                           	dabs	1,0xCA0,32
    23                           	dabs	1,0xC20,80
    24                           	dabs	1,0xBA0,80
    25                           	dabs	1,0xB20,80
    26                           	dabs	1,0xAA0,80
    27                           	dabs	1,0xA20,80
    28                           	dabs	1,0x9A0,80
    29                           	dabs	1,0x620,48
    30                           	dabs	1,0x5A0,80
    31                           	dabs	1,0x520,80
    32                           	dabs	1,0x4A0,80
    33                           	dabs	1,0x420,80
    34                           	dabs	1,0x3A0,80
    35                           	dabs	1,0x330,64
    36                           	dabs	1,0x25F0,0,_GLBL_WriteBuffer
    37                           	dabs	1,0x21F0,0,_GLBL_ReadBuffer
    38                           	dabs	1,0x7E,2
    39  0000                     
    40                           ; Version 2.05
    41                           ; Generated 20/12/2018 GMT
    42                           ; 
    43                           ; Copyright © 2018, Microchip Technology Inc. and its subsidiaries ("Microchip")
    44                           ; All rights reserved.
    45                           ; 
    46                           ; This software is developed by Microchip Technology Inc. and its subsidiaries ("Microch
      +                          ip").
    47                           ; 
    48                           ; Redistribution and use in source and binary forms, with or without modification, are
    49                           ; permitted provided that the following conditions are met:
    50                           ; 
    51                           ;     1. Redistributions of source code must retain the above copyright notice, this lis
      +                          t of
    52                           ;        conditions and the following disclaimer.
    53                           ; 
    54                           ;     2. Redistributions in binary form must reproduce the above copyright notice, this 
      +                          list
    55                           ;        of conditions and the following disclaimer in the documentation and/or other
    56                           ;        materials provided with the distribution.
    57                           ; 
    58                           ;     3. Microchip's name may not be used to endorse or promote products derived from th
      +                          is
    59                           ;        software without specific prior written permission.
    60                           ; 
    61                           ; THIS SOFTWARE IS PROVIDED BY MICROCHIP "AS IS" AND ANY EXPRESS OR IMPLIED WARRANTIES,
    62                           ; INCLUDING, BUT NOT LIMITED TO, THE IMPLIED WARRANTIES OF MERCHANTABILITY AND FITNESS F
      +                          OR
    63                           ; PURPOSE ARE DISCLAIMED.  IN NO EVENT SHALL MICROCHIP BE LIABLE FOR ANY DIRECT, INDIREC
      +                          T,
    64                           ; INCIDENTAL, SPECIAL, EXEMPLARY, OR CONSEQUENTIAL DAMAGES (INCLUDING BUT NOT LIMITED TO
    65                           ; PROCUREMENT OF SUBSTITUTE GOODS OR SERVICES; LOSS OF USE, DATA OR PROFITS; OR BUSINESS
    66                           ; INTERRUPTION) HOWSOEVER CAUSED AND ON ANY THEORY OF LIABILITY, WHETHER IN CONTRACT, ST
      +                          RICT
    67                           ; LIABILITY, OR TORT (INCLUDING NEGLIGENCE OR OTHERWISE) ARISING IN ANY WAY OUT OF THE U
      +                          SE OF
    68                           ; THIS SOFTWARE, EVEN IF ADVISED OF THE POSSIBILITY OF SUCH DAMAGE.
    69                           ; 
    70                           ; 
    71                           ; Code-generator required, PIC16F1778 Definitions
    72                           ; 
    73                           ; SFR Addresses
    74  0000                     	;# 
    75  0001                     	;# 
    76  0002                     	;# 
    77  0003                     	;# 
    78  0004                     	;# 
    79  0005                     	;# 
    80  0006                     	;# 
    81  0007                     	;# 
    82  0008                     	;# 
    83  0009                     	;# 
    84  000A                     	;# 
    85  000B                     	;# 
    86  000C                     	;# 
    87  000D                     	;# 
    88  000E                     	;# 
    89  0010                     	;# 
    90  0011                     	;# 
    91  0012                     	;# 
    92  0013                     	;# 
    93  0014                     	;# 
    94  0015                     	;# 
    95  0016                     	;# 
    96  0017                     	;# 
    97  0018                     	;# 
    98  0018                     	;# 
    99  0019                     	;# 
   100  001A                     	;# 
   101  001B                     	;# 
   102  001C                     	;# 
   103  001C                     	;# 
   104  001D                     	;# 
   105  001E                     	;# 
   106  001F                     	;# 
   107  008C                     	;# 
   108  008D                     	;# 
   109  008E                     	;# 
   110  0090                     	;# 
   111  0091                     	;# 
   112  0092                     	;# 
   113  0093                     	;# 
   114  0094                     	;# 
   115  0095                     	;# 
   116  0096                     	;# 
   117  0097                     	;# 
   118  0098                     	;# 
   119  0099                     	;# 
   120  009A                     	;# 
   121  009B                     	;# 
   122  009C                     	;# 
   123  009D                     	;# 
   124  009E                     	;# 
   125  009F                     	;# 
   126  010C                     	;# 
   127  010D                     	;# 
   128  010E                     	;# 
   129  0111                     	;# 
   130  0112                     	;# 
   131  0113                     	;# 
   132  0114                     	;# 
   133  0115                     	;# 
   134  0116                     	;# 
   135  0117                     	;# 
   136  0118                     	;# 
   137  0119                     	;# 
   138  011A                     	;# 
   139  011B                     	;# 
   140  011C                     	;# 
   141  011D                     	;# 
   142  018C                     	;# 
   143  018D                     	;# 
   144  018E                     	;# 
   145  0191                     	;# 
   146  0191                     	;# 
   147  0192                     	;# 
   148  0193                     	;# 
   149  0193                     	;# 
   150  0194                     	;# 
   151  0195                     	;# 
   152  0196                     	;# 
   153  0197                     	;# 
   154  0199                     	;# 
   155  0199                     	;# 
   156  0199                     	;# 
   157  019A                     	;# 
   158  019A                     	;# 
   159  019A                     	;# 
   160  019B                     	;# 
   161  019B                     	;# 
   162  019B                     	;# 
   163  019B                     	;# 
   164  019B                     	;# 
   165  019C                     	;# 
   166  019C                     	;# 
   167  019C                     	;# 
   168  019D                     	;# 
   169  019D                     	;# 
   170  019D                     	;# 
   171  019E                     	;# 
   172  019E                     	;# 
   173  019E                     	;# 
   174  019F                     	;# 
   175  019F                     	;# 
   176  019F                     	;# 
   177  019F                     	;# 
   178  019F                     	;# 
   179  020C                     	;# 
   180  020D                     	;# 
   181  020E                     	;# 
   182  0210                     	;# 
   183  0211                     	;# 
   184  0211                     	;# 
   185  0212                     	;# 
   186  0212                     	;# 
   187  0213                     	;# 
   188  0213                     	;# 
   189  0214                     	;# 
   190  0214                     	;# 
   191  0215                     	;# 
   192  0215                     	;# 
   193  0215                     	;# 
   194  0215                     	;# 
   195  0216                     	;# 
   196  0216                     	;# 
   197  0217                     	;# 
   198  0217                     	;# 
   199  021B                     	;# 
   200  021C                     	;# 
   201  021D                     	;# 
   202  021E                     	;# 
   203  021F                     	;# 
   204  028C                     	;# 
   205  028D                     	;# 
   206  028E                     	;# 
   207  0291                     	;# 
   208  0291                     	;# 
   209  0292                     	;# 
   210  0293                     	;# 
   211  0294                     	;# 
   212  0295                     	;# 
   213  0295                     	;# 
   214  0296                     	;# 
   215  0297                     	;# 
   216  0298                     	;# 
   217  0299                     	;# 
   218  0299                     	;# 
   219  029A                     	;# 
   220  029B                     	;# 
   221  029C                     	;# 
   222  029E                     	;# 
   223  029F                     	;# 
   224  030C                     	;# 
   225  030D                     	;# 
   226  030E                     	;# 
   227  0315                     	;# 
   228  0316                     	;# 
   229  0317                     	;# 
   230  0318                     	;# 
   231  0319                     	;# 
   232  031B                     	;# 
   233  031C                     	;# 
   234  031D                     	;# 
   235  031E                     	;# 
   236  031F                     	;# 
   237  038C                     	;# 
   238  038D                     	;# 
   239  038E                     	;# 
   240  0390                     	;# 
   241  0391                     	;# 
   242  0392                     	;# 
   243  0393                     	;# 
   244  0394                     	;# 
   245  0395                     	;# 
   246  0396                     	;# 
   247  0397                     	;# 
   248  0398                     	;# 
   249  0399                     	;# 
   250  039D                     	;# 
   251  039E                     	;# 
   252  039F                     	;# 
   253  040D                     	;# 
   254  040F                     	;# 
   255  040F                     	;# 
   256  0410                     	;# 
   257  0411                     	;# 
   258  0412                     	;# 
   259  0413                     	;# 
   260  0413                     	;# 
   261  0414                     	;# 
   262  0414                     	;# 
   263  0415                     	;# 
   264  0416                     	;# 
   265  0417                     	;# 
   266  0418                     	;# 
   267  041A                     	;# 
   268  041A                     	;# 
   269  041B                     	;# 
   270  041B                     	;# 
   271  041C                     	;# 
   272  041D                     	;# 
   273  041E                     	;# 
   274  041F                     	;# 
   275  048E                     	;# 
   276  048E                     	;# 
   277  048F                     	;# 
   278  0490                     	;# 
   279  0491                     	;# 
   280  0492                     	;# 
   281  0493                     	;# 
   282  0493                     	;# 
   283  0494                     	;# 
   284  0494                     	;# 
   285  0495                     	;# 
   286  0496                     	;# 
   287  0497                     	;# 
   288  0498                     	;# 
   289  049A                     	;# 
   290  049A                     	;# 
   291  049B                     	;# 
   292  049B                     	;# 
   293  049C                     	;# 
   294  049D                     	;# 
   295  049E                     	;# 
   296  049F                     	;# 
   297  050F                     	;# 
   298  0510                     	;# 
   299  0511                     	;# 
   300  0512                     	;# 
   301  0513                     	;# 
   302  0514                     	;# 
   303  0515                     	;# 
   304  0516                     	;# 
   305  0517                     	;# 
   306  0518                     	;# 
   307  0519                     	;# 
   308  051A                     	;# 
   309  058D                     	;# 
   310  058E                     	;# 
   311  058F                     	;# 
   312  058F                     	;# 
   313  058F                     	;# 
   314  0590                     	;# 
   315  0590                     	;# 
   316  0591                     	;# 
   317  0592                     	;# 
   318  0592                     	;# 
   319  0592                     	;# 
   320  0593                     	;# 
   321  0593                     	;# 
   322  0594                     	;# 
   323  0595                     	;# 
   324  0595                     	;# 
   325  0596                     	;# 
   326  0597                     	;# 
   327  0597                     	;# 
   328  0598                     	;# 
   329  0599                     	;# 
   330  0599                     	;# 
   331  0599                     	;# 
   332  059A                     	;# 
   333  059A                     	;# 
   334  059E                     	;# 
   335  059F                     	;# 
   336  059F                     	;# 
   337  0614                     	;# 
   338  0614                     	;# 
   339  0615                     	;# 
   340  0616                     	;# 
   341  0617                     	;# 
   342  0617                     	;# 
   343  0618                     	;# 
   344  0619                     	;# 
   345  061A                     	;# 
   346  061A                     	;# 
   347  061B                     	;# 
   348  061C                     	;# 
   349  068D                     	;# 
   350  068E                     	;# 
   351  068F                     	;# 
   352  0690                     	;# 
   353  0691                     	;# 
   354  0692                     	;# 
   355  0693                     	;# 
   356  0694                     	;# 
   357  0695                     	;# 
   358  0696                     	;# 
   359  0697                     	;# 
   360  0698                     	;# 
   361  0699                     	;# 
   362  069A                     	;# 
   363  069B                     	;# 
   364  069C                     	;# 
   365  069D                     	;# 
   366  069E                     	;# 
   367  069F                     	;# 
   368  070D                     	;# 
   369  070E                     	;# 
   370  070F                     	;# 
   371  0710                     	;# 
   372  0711                     	;# 
   373  0712                     	;# 
   374  0713                     	;# 
   375  0714                     	;# 
   376  0715                     	;# 
   377  0716                     	;# 
   378  0717                     	;# 
   379  0718                     	;# 
   380  0719                     	;# 
   381  071A                     	;# 
   382  071B                     	;# 
   383  071C                     	;# 
   384  071D                     	;# 
   385  071E                     	;# 
   386  071F                     	;# 
   387  078E                     	;# 
   388  078F                     	;# 
   389  0790                     	;# 
   390  0791                     	;# 
   391  0792                     	;# 
   392  0793                     	;# 
   393  0794                     	;# 
   394  0795                     	;# 
   395  0796                     	;# 
   396  0797                     	;# 
   397  0798                     	;# 
   398  0799                     	;# 
   399  079A                     	;# 
   400  079B                     	;# 
   401  079C                     	;# 
   402  079D                     	;# 
   403  079E                     	;# 
   404  079F                     	;# 
   405  080D                     	;# 
   406  080E                     	;# 
   407  080F                     	;# 
   408  0810                     	;# 
   409  0811                     	;# 
   410  0812                     	;# 
   411  0813                     	;# 
   412  0814                     	;# 
   413  0815                     	;# 
   414  0816                     	;# 
   415  0817                     	;# 
   416  0818                     	;# 
   417  0819                     	;# 
   418  081A                     	;# 
   419  081B                     	;# 
   420  081C                     	;# 
   421  081D                     	;# 
   422  081E                     	;# 
   423  081F                     	;# 
   424  090C                     	;# 
   425  090D                     	;# 
   426  090E                     	;# 
   427  090F                     	;# 
   428  0910                     	;# 
   429  0911                     	;# 
   430  0912                     	;# 
   431  0913                     	;# 
   432  0914                     	;# 
   433  0915                     	;# 
   434  0916                     	;# 
   435  0917                     	;# 
   436  0D8E                     	;# 
   437  0D8F                     	;# 
   438  0D90                     	;# 
   439  0D91                     	;# 
   440  0D91                     	;# 
   441  0D92                     	;# 
   442  0D93                     	;# 
   443  0D93                     	;# 
   444  0D94                     	;# 
   445  0D95                     	;# 
   446  0D95                     	;# 
   447  0D96                     	;# 
   448  0D97                     	;# 
   449  0D97                     	;# 
   450  0D98                     	;# 
   451  0D99                     	;# 
   452  0D99                     	;# 
   453  0D9A                     	;# 
   454  0D9B                     	;# 
   455  0D9C                     	;# 
   456  0D9C                     	;# 
   457  0D9D                     	;# 
   458  0D9D                     	;# 
   459  0D9E                     	;# 
   460  0D9F                     	;# 
   461  0DA0                     	;# 
   462  0DA1                     	;# 
   463  0DA1                     	;# 
   464  0DA2                     	;# 
   465  0DA3                     	;# 
   466  0DA3                     	;# 
   467  0DA4                     	;# 
   468  0DA5                     	;# 
   469  0DA5                     	;# 
   470  0DA6                     	;# 
   471  0DA7                     	;# 
   472  0DA7                     	;# 
   473  0DA8                     	;# 
   474  0DA9                     	;# 
   475  0DA9                     	;# 
   476  0DAA                     	;# 
   477  0DAB                     	;# 
   478  0DAC                     	;# 
   479  0DAC                     	;# 
   480  0DAD                     	;# 
   481  0DAD                     	;# 
   482  0DAE                     	;# 
   483  0DAF                     	;# 
   484  0DB0                     	;# 
   485  0DB1                     	;# 
   486  0DB1                     	;# 
   487  0DB2                     	;# 
   488  0DB3                     	;# 
   489  0DB3                     	;# 
   490  0DB4                     	;# 
   491  0DB5                     	;# 
   492  0DB5                     	;# 
   493  0DB6                     	;# 
   494  0DB7                     	;# 
   495  0DB7                     	;# 
   496  0DB8                     	;# 
   497  0DB9                     	;# 
   498  0DB9                     	;# 
   499  0DBA                     	;# 
   500  0DBB                     	;# 
   501  0DBC                     	;# 
   502  0DBC                     	;# 
   503  0DBD                     	;# 
   504  0DBD                     	;# 
   505  0DBE                     	;# 
   506  0DBF                     	;# 
   507  0DC0                     	;# 
   508  0E0C                     	;# 
   509  0E0D                     	;# 
   510  0E0E                     	;# 
   511  0E0F                     	;# 
   512  0E10                     	;# 
   513  0E11                     	;# 
   514  0E12                     	;# 
   515  0E13                     	;# 
   516  0E14                     	;# 
   517  0E15                     	;# 
   518  0E15                     	;# 
   519  0E15                     	;# 
   520  0E16                     	;# 
   521  0E16                     	;# 
   522  0E16                     	;# 
   523  0E17                     	;# 
   524  0E17                     	;# 
   525  0E17                     	;# 
   526  0E18                     	;# 
   527  0E18                     	;# 
   528  0E18                     	;# 
   529  0E19                     	;# 
   530  0E1A                     	;# 
   531  0E1B                     	;# 
   532  0E1D                     	;# 
   533  0E1E                     	;# 
   534  0E1F                     	;# 
   535  0E21                     	;# 
   536  0E22                     	;# 
   537  0E23                     	;# 
   538  0E24                     	;# 
   539  0E25                     	;# 
   540  0E26                     	;# 
   541  0E27                     	;# 
   542  0E28                     	;# 
   543  0E29                     	;# 
   544  0E2D                     	;# 
   545  0E2E                     	;# 
   546  0E2F                     	;# 
   547  0E30                     	;# 
   548  0E31                     	;# 
   549  0E32                     	;# 
   550  0E35                     	;# 
   551  0E36                     	;# 
   552  0E37                     	;# 
   553  0E38                     	;# 
   554  0E39                     	;# 
   555  0E3A                     	;# 
   556  0E3B                     	;# 
   557  0E3C                     	;# 
   558  0E3D                     	;# 
   559  0E3E                     	;# 
   560  0E90                     	;# 
   561  0E91                     	;# 
   562  0E92                     	;# 
   563  0E93                     	;# 
   564  0E94                     	;# 
   565  0E95                     	;# 
   566  0E96                     	;# 
   567  0E97                     	;# 
   568  0E98                     	;# 
   569  0E99                     	;# 
   570  0E9A                     	;# 
   571  0E9B                     	;# 
   572  0E9C                     	;# 
   573  0E9D                     	;# 
   574  0E9E                     	;# 
   575  0E9F                     	;# 
   576  0EA0                     	;# 
   577  0EA1                     	;# 
   578  0EA2                     	;# 
   579  0EA3                     	;# 
   580  0EA4                     	;# 
   581  0EA5                     	;# 
   582  0EA6                     	;# 
   583  0EA7                     	;# 
   584  0F0F                     	;# 
   585  0F10                     	;# 
   586  0F11                     	;# 
   587  0F12                     	;# 
   588  0F13                     	;# 
   589  0F14                     	;# 
   590  0F15                     	;# 
   591  0F16                     	;# 
   592  0F17                     	;# 
   593  0F18                     	;# 
   594  0F19                     	;# 
   595  0F1A                     	;# 
   596  0F1B                     	;# 
   597  0F1C                     	;# 
   598  0F1D                     	;# 
   599  0F1E                     	;# 
   600  0F1F                     	;# 
   601  0F20                     	;# 
   602  0F21                     	;# 
   603  0F22                     	;# 
   604  0F23                     	;# 
   605  0F24                     	;# 
   606  0F25                     	;# 
   607  0F26                     	;# 
   608  0F27                     	;# 
   609  0F28                     	;# 
   610  0F29                     	;# 
   611  0F2A                     	;# 
   612  0F2B                     	;# 
   613  0F2C                     	;# 
   614  0F2D                     	;# 
   615  0F2E                     	;# 
   616  0F2F                     	;# 
   617  0F30                     	;# 
   618  0F31                     	;# 
   619  0F32                     	;# 
   620  0F33                     	;# 
   621  0F34                     	;# 
   622  0F35                     	;# 
   623  0F36                     	;# 
   624  0F37                     	;# 
   625  0FE4                     	;# 
   626  0FE5                     	;# 
   627  0FE6                     	;# 
   628  0FE7                     	;# 
   629  0FE8                     	;# 
   630  0FE9                     	;# 
   631  0FEA                     	;# 
   632  0FEB                     	;# 
   633  0FED                     	;# 
   634  0FEE                     	;# 
   635  0FEF                     	;# 
   636  0000                     	;# 
   637  0001                     	;# 
   638  0002                     	;# 
   639  0003                     	;# 
   640  0004                     	;# 
   641  0005                     	;# 
   642  0006                     	;# 
   643  0007                     	;# 
   644  0008                     	;# 
   645  0009                     	;# 
   646  000A                     	;# 
   647  000B                     	;# 
   648  000C                     	;# 
   649  000D                     	;# 
   650  000E                     	;# 
   651  0010                     	;# 
   652  0011                     	;# 
   653  0012                     	;# 
   654  0013                     	;# 
   655  0014                     	;# 
   656  0015                     	;# 
   657  0016                     	;# 
   658  0017                     	;# 
   659  0018                     	;# 
   660  0018                     	;# 
   661  0019                     	;# 
   662  001A                     	;# 
   663  001B                     	;# 
   664  001C                     	;# 
   665  001C                     	;# 
   666  001D                     	;# 
   667  001E                     	;# 
   668  001F                     	;# 
   669  008C                     	;# 
   670  008D                     	;# 
   671  008E                     	;# 
   672  0090                     	;# 
   673  0091                     	;# 
   674  0092                     	;# 
   675  0093                     	;# 
   676  0094                     	;# 
   677  0095                     	;# 
   678  0096                     	;# 
   679  0097                     	;# 
   680  0098                     	;# 
   681  0099                     	;# 
   682  009A                     	;# 
   683  009B                     	;# 
   684  009C                     	;# 
   685  009D                     	;# 
   686  009E                     	;# 
   687  009F                     	;# 
   688  010C                     	;# 
   689  010D                     	;# 
   690  010E                     	;# 
   691  0111                     	;# 
   692  0112                     	;# 
   693  0113                     	;# 
   694  0114                     	;# 
   695  0115                     	;# 
   696  0116                     	;# 
   697  0117                     	;# 
   698  0118                     	;# 
   699  0119                     	;# 
   700  011A                     	;# 
   701  011B                     	;# 
   702  011C                     	;# 
   703  011D                     	;# 
   704  018C                     	;# 
   705  018D                     	;# 
   706  018E                     	;# 
   707  0191                     	;# 
   708  0191                     	;# 
   709  0192                     	;# 
   710  0193                     	;# 
   711  0193                     	;# 
   712  0194                     	;# 
   713  0195                     	;# 
   714  0196                     	;# 
   715  0197                     	;# 
   716  0199                     	;# 
   717  0199                     	;# 
   718  0199                     	;# 
   719  019A                     	;# 
   720  019A                     	;# 
   721  019A                     	;# 
   722  019B                     	;# 
   723  019B                     	;# 
   724  019B                     	;# 
   725  019B                     	;# 
   726  019B                     	;# 
   727  019C                     	;# 
   728  019C                     	;# 
   729  019C                     	;# 
   730  019D                     	;# 
   731  019D                     	;# 
   732  019D                     	;# 
   733  019E                     	;# 
   734  019E                     	;# 
   735  019E                     	;# 
   736  019F                     	;# 
   737  019F                     	;# 
   738  019F                     	;# 
   739  019F                     	;# 
   740  019F                     	;# 
   741  020C                     	;# 
   742  020D                     	;# 
   743  020E                     	;# 
   744  0210                     	;# 
   745  0211                     	;# 
   746  0211                     	;# 
   747  0212                     	;# 
   748  0212                     	;# 
   749  0213                     	;# 
   750  0213                     	;# 
   751  0214                     	;# 
   752  0214                     	;# 
   753  0215                     	;# 
   754  0215                     	;# 
   755  0215                     	;# 
   756  0215                     	;# 
   757  0216                     	;# 
   758  0216                     	;# 
   759  0217                     	;# 
   760  0217                     	;# 
   761  021B                     	;# 
   762  021C                     	;# 
   763  021D                     	;# 
   764  021E                     	;# 
   765  021F                     	;# 
   766  028C                     	;# 
   767  028D                     	;# 
   768  028E                     	;# 
   769  0291                     	;# 
   770  0291                     	;# 
   771  0292                     	;# 
   772  0293                     	;# 
   773  0294                     	;# 
   774  0295                     	;# 
   775  0295                     	;# 
   776  0296                     	;# 
   777  0297                     	;# 
   778  0298                     	;# 
   779  0299                     	;# 
   780  0299                     	;# 
   781  029A                     	;# 
   782  029B                     	;# 
   783  029C                     	;# 
   784  029E                     	;# 
   785  029F                     	;# 
   786  030C                     	;# 
   787  030D                     	;# 
   788  030E                     	;# 
   789  0315                     	;# 
   790  0316                     	;# 
   791  0317                     	;# 
   792  0318                     	;# 
   793  0319                     	;# 
   794  031B                     	;# 
   795  031C                     	;# 
   796  031D                     	;# 
   797  031E                     	;# 
   798  031F                     	;# 
   799  038C                     	;# 
   800  038D                     	;# 
   801  038E                     	;# 
   802  0390                     	;# 
   803  0391                     	;# 
   804  0392                     	;# 
   805  0393                     	;# 
   806  0394                     	;# 
   807  0395                     	;# 
   808  0396                     	;# 
   809  0397                     	;# 
   810  0398                     	;# 
   811  0399                     	;# 
   812  039D                     	;# 
   813  039E                     	;# 
   814  039F                     	;# 
   815  040D                     	;# 
   816  040F                     	;# 
   817  040F                     	;# 
   818  0410                     	;# 
   819  0411                     	;# 
   820  0412                     	;# 
   821  0413                     	;# 
   822  0413                     	;# 
   823  0414                     	;# 
   824  0414                     	;# 
   825  0415                     	;# 
   826  0416                     	;# 
   827  0417                     	;# 
   828  0418                     	;# 
   829  041A                     	;# 
   830  041A                     	;# 
   831  041B                     	;# 
   832  041B                     	;# 
   833  041C                     	;# 
   834  041D                     	;# 
   835  041E                     	;# 
   836  041F                     	;# 
   837  048E                     	;# 
   838  048E                     	;# 
   839  048F                     	;# 
   840  0490                     	;# 
   841  0491                     	;# 
   842  0492                     	;# 
   843  0493                     	;# 
   844  0493                     	;# 
   845  0494                     	;# 
   846  0494                     	;# 
   847  0495                     	;# 
   848  0496                     	;# 
   849  0497                     	;# 
   850  0498                     	;# 
   851  049A                     	;# 
   852  049A                     	;# 
   853  049B                     	;# 
   854  049B                     	;# 
   855  049C                     	;# 
   856  049D                     	;# 
   857  049E                     	;# 
   858  049F                     	;# 
   859  050F                     	;# 
   860  0510                     	;# 
   861  0511                     	;# 
   862  0512                     	;# 
   863  0513                     	;# 
   864  0514                     	;# 
   865  0515                     	;# 
   866  0516                     	;# 
   867  0517                     	;# 
   868  0518                     	;# 
   869  0519                     	;# 
   870  051A                     	;# 
   871  058D                     	;# 
   872  058E                     	;# 
   873  058F                     	;# 
   874  058F                     	;# 
   875  058F                     	;# 
   876  0590                     	;# 
   877  0590                     	;# 
   878  0591                     	;# 
   879  0592                     	;# 
   880  0592                     	;# 
   881  0592                     	;# 
   882  0593                     	;# 
   883  0593                     	;# 
   884  0594                     	;# 
   885  0595                     	;# 
   886  0595                     	;# 
   887  0596                     	;# 
   888  0597                     	;# 
   889  0597                     	;# 
   890  0598                     	;# 
   891  0599                     	;# 
   892  0599                     	;# 
   893  0599                     	;# 
   894  059A                     	;# 
   895  059A                     	;# 
   896  059E                     	;# 
   897  059F                     	;# 
   898  059F                     	;# 
   899  0614                     	;# 
   900  0614                     	;# 
   901  0615                     	;# 
   902  0616                     	;# 
   903  0617                     	;# 
   904  0617                     	;# 
   905  0618                     	;# 
   906  0619                     	;# 
   907  061A                     	;# 
   908  061A                     	;# 
   909  061B                     	;# 
   910  061C                     	;# 
   911  068D                     	;# 
   912  068E                     	;# 
   913  068F                     	;# 
   914  0690                     	;# 
   915  0691                     	;# 
   916  0692                     	;# 
   917  0693                     	;# 
   918  0694                     	;# 
   919  0695                     	;# 
   920  0696                     	;# 
   921  0697                     	;# 
   922  0698                     	;# 
   923  0699                     	;# 
   924  069A                     	;# 
   925  069B                     	;# 
   926  069C                     	;# 
   927  069D                     	;# 
   928  069E                     	;# 
   929  069F                     	;# 
   930  070D                     	;# 
   931  070E                     	;# 
   932  070F                     	;# 
   933  0710                     	;# 
   934  0711                     	;# 
   935  0712                     	;# 
   936  0713                     	;# 
   937  0714                     	;# 
   938  0715                     	;# 
   939  0716                     	;# 
   940  0717                     	;# 
   941  0718                     	;# 
   942  0719                     	;# 
   943  071A                     	;# 
   944  071B                     	;# 
   945  071C                     	;# 
   946  071D                     	;# 
   947  071E                     	;# 
   948  071F                     	;# 
   949  078E                     	;# 
   950  078F                     	;# 
   951  0790                     	;# 
   952  0791                     	;# 
   953  0792                     	;# 
   954  0793                     	;# 
   955  0794                     	;# 
   956  0795                     	;# 
   957  0796                     	;# 
   958  0797                     	;# 
   959  0798                     	;# 
   960  0799                     	;# 
   961  079A                     	;# 
   962  079B                     	;# 
   963  079C                     	;# 
   964  079D                     	;# 
   965  079E                     	;# 
   966  079F                     	;# 
   967  080D                     	;# 
   968  080E                     	;# 
   969  080F                     	;# 
   970  0810                     	;# 
   971  0811                     	;# 
   972  0812                     	;# 
   973  0813                     	;# 
   974  0814                     	;# 
   975  0815                     	;# 
   976  0816                     	;# 
   977  0817                     	;# 
   978  0818                     	;# 
   979  0819                     	;# 
   980  081A                     	;# 
   981  081B                     	;# 
   982  081C                     	;# 
   983  081D                     	;# 
   984  081E                     	;# 
   985  081F                     	;# 
   986  090C                     	;# 
   987  090D                     	;# 
   988  090E                     	;# 
   989  090F                     	;# 
   990  0910                     	;# 
   991  0911                     	;# 
   992  0912                     	;# 
   993  0913                     	;# 
   994  0914                     	;# 
   995  0915                     	;# 
   996  0916                     	;# 
   997  0917                     	;# 
   998  0D8E                     	;# 
   999  0D8F                     	;# 
  1000  0D90                     	;# 
  1001  0D91                     	;# 
  1002  0D91                     	;# 
  1003  0D92                     	;# 
  1004  0D93                     	;# 
  1005  0D93                     	;# 
  1006  0D94                     	;# 
  1007  0D95                     	;# 
  1008  0D95                     	;# 
  1009  0D96                     	;# 
  1010  0D97                     	;# 
  1011  0D97                     	;# 
  1012  0D98                     	;# 
  1013  0D99                     	;# 
  1014  0D99                     	;# 
  1015  0D9A                     	;# 
  1016  0D9B                     	;# 
  1017  0D9C                     	;# 
  1018  0D9C                     	;# 
  1019  0D9D                     	;# 
  1020  0D9D                     	;# 
  1021  0D9E                     	;# 
  1022  0D9F                     	;# 
  1023  0DA0                     	;# 
  1024  0DA1                     	;# 
  1025  0DA1                     	;# 
  1026  0DA2                     	;# 
  1027  0DA3                     	;# 
  1028  0DA3                     	;# 
  1029  0DA4                     	;# 
  1030  0DA5                     	;# 
  1031  0DA5                     	;# 
  1032  0DA6                     	;# 
  1033  0DA7                     	;# 
  1034  0DA7                     	;# 
  1035  0DA8                     	;# 
  1036  0DA9                     	;# 
  1037  0DA9                     	;# 
  1038  0DAA                     	;# 
  1039  0DAB                     	;# 
  1040  0DAC                     	;# 
  1041  0DAC                     	;# 
  1042  0DAD                     	;# 
  1043  0DAD                     	;# 
  1044  0DAE                     	;# 
  1045  0DAF                     	;# 
  1046  0DB0                     	;# 
  1047  0DB1                     	;# 
  1048  0DB1                     	;# 
  1049  0DB2                     	;# 
  1050  0DB3                     	;# 
  1051  0DB3                     	;# 
  1052  0DB4                     	;# 
  1053  0DB5                     	;# 
  1054  0DB5                     	;# 
  1055  0DB6                     	;# 
  1056  0DB7                     	;# 
  1057  0DB7                     	;# 
  1058  0DB8                     	;# 
  1059  0DB9                     	;# 
  1060  0DB9                     	;# 
  1061  0DBA                     	;# 
  1062  0DBB                     	;# 
  1063  0DBC                     	;# 
  1064  0DBC                     	;# 
  1065  0DBD                     	;# 
  1066  0DBD                     	;# 
  1067  0DBE                     	;# 
  1068  0DBF                     	;# 
  1069  0DC0                     	;# 
  1070  0E0C                     	;# 
  1071  0E0D                     	;# 
  1072  0E0E                     	;# 
  1073  0E0F                     	;# 
  1074  0E10                     	;# 
  1075  0E11                     	;# 
  1076  0E12                     	;# 
  1077  0E13                     	;# 
  1078  0E14                     	;# 
  1079  0E15                     	;# 
  1080  0E15                     	;# 
  1081  0E15                     	;# 
  1082  0E16                     	;# 
  1083  0E16                     	;# 
  1084  0E16                     	;# 
  1085  0E17                     	;# 
  1086  0E17                     	;# 
  1087  0E17                     	;# 
  1088  0E18                     	;# 
  1089  0E18                     	;# 
  1090  0E18                     	;# 
  1091  0E19                     	;# 
  1092  0E1A                     	;# 
  1093  0E1B                     	;# 
  1094  0E1D                     	;# 
  1095  0E1E                     	;# 
  1096  0E1F                     	;# 
  1097  0E21                     	;# 
  1098  0E22                     	;# 
  1099  0E23                     	;# 
  1100  0E24                     	;# 
  1101  0E25                     	;# 
  1102  0E26                     	;# 
  1103  0E27                     	;# 
  1104  0E28                     	;# 
  1105  0E29                     	;# 
  1106  0E2D                     	;# 
  1107  0E2E                     	;# 
  1108  0E2F                     	;# 
  1109  0E30                     	;# 
  1110  0E31                     	;# 
  1111  0E32                     	;# 
  1112  0E35                     	;# 
  1113  0E36                     	;# 
  1114  0E37                     	;# 
  1115  0E38                     	;# 
  1116  0E39                     	;# 
  1117  0E3A                     	;# 
  1118  0E3B                     	;# 
  1119  0E3C                     	;# 
  1120  0E3D                     	;# 
  1121  0E3E                     	;# 
  1122  0E90                     	;# 
  1123  0E91                     	;# 
  1124  0E92                     	;# 
  1125  0E93                     	;# 
  1126  0E94                     	;# 
  1127  0E95                     	;# 
  1128  0E96                     	;# 
  1129  0E97                     	;# 
  1130  0E98                     	;# 
  1131  0E99                     	;# 
  1132  0E9A                     	;# 
  1133  0E9B                     	;# 
  1134  0E9C                     	;# 
  1135  0E9D                     	;# 
  1136  0E9E                     	;# 
  1137  0E9F                     	;# 
  1138  0EA0                     	;# 
  1139  0EA1                     	;# 
  1140  0EA2                     	;# 
  1141  0EA3                     	;# 
  1142  0EA4                     	;# 
  1143  0EA5                     	;# 
  1144  0EA6                     	;# 
  1145  0EA7                     	;# 
  1146  0F0F                     	;# 
  1147  0F10                     	;# 
  1148  0F11                     	;# 
  1149  0F12                     	;# 
  1150  0F13                     	;# 
  1151  0F14                     	;# 
  1152  0F15                     	;# 
  1153  0F16                     	;# 
  1154  0F17                     	;# 
  1155  0F18                     	;# 
  1156  0F19                     	;# 
  1157  0F1A                     	;# 
  1158  0F1B                     	;# 
  1159  0F1C                     	;# 
  1160  0F1D                     	;# 
  1161  0F1E                     	;# 
  1162  0F1F                     	;# 
  1163  0F20                     	;# 
  1164  0F21                     	;# 
  1165  0F22                     	;# 
  1166  0F23                     	;# 
  1167  0F24                     	;# 
  1168  0F25                     	;# 
  1169  0F26                     	;# 
  1170  0F27                     	;# 
  1171  0F28                     	;# 
  1172  0F29                     	;# 
  1173  0F2A                     	;# 
  1174  0F2B                     	;# 
  1175  0F2C                     	;# 
  1176  0F2D                     	;# 
  1177  0F2E                     	;# 
  1178  0F2F                     	;# 
  1179  0F30                     	;# 
  1180  0F31                     	;# 
  1181  0F32                     	;# 
  1182  0F33                     	;# 
  1183  0F34                     	;# 
  1184  0F35                     	;# 
  1185  0F36                     	;# 
  1186  0F37                     	;# 
  1187  0FE4                     	;# 
  1188  0FE5                     	;# 
  1189  0FE6                     	;# 
  1190  0FE7                     	;# 
  1191  0FE8                     	;# 
  1192  0FE9                     	;# 
  1193  0FEA                     	;# 
  1194  0FEB                     	;# 
  1195  0FED                     	;# 
  1196  0FEE                     	;# 
  1197  0FEF                     	;# 
  1198  0000                     	;# 
  1199  0001                     	;# 
  1200  0002                     	;# 
  1201  0003                     	;# 
  1202  0004                     	;# 
  1203  0005                     	;# 
  1204  0006                     	;# 
  1205  0007                     	;# 
  1206  0008                     	;# 
  1207  0009                     	;# 
  1208  000A                     	;# 
  1209  000B                     	;# 
  1210  000C                     	;# 
  1211  000D                     	;# 
  1212  000E                     	;# 
  1213  0010                     	;# 
  1214  0011                     	;# 
  1215  0012                     	;# 
  1216  0013                     	;# 
  1217  0014                     	;# 
  1218  0015                     	;# 
  1219  0016                     	;# 
  1220  0017                     	;# 
  1221  0018                     	;# 
  1222  0018                     	;# 
  1223  0019                     	;# 
  1224  001A                     	;# 
  1225  001B                     	;# 
  1226  001C                     	;# 
  1227  001C                     	;# 
  1228  001D                     	;# 
  1229  001E                     	;# 
  1230  001F                     	;# 
  1231  008C                     	;# 
  1232  008D                     	;# 
  1233  008E                     	;# 
  1234  0090                     	;# 
  1235  0091                     	;# 
  1236  0092                     	;# 
  1237  0093                     	;# 
  1238  0094                     	;# 
  1239  0095                     	;# 
  1240  0096                     	;# 
  1241  0097                     	;# 
  1242  0098                     	;# 
  1243  0099                     	;# 
  1244  009A                     	;# 
  1245  009B                     	;# 
  1246  009C                     	;# 
  1247  009D                     	;# 
  1248  009E                     	;# 
  1249  009F                     	;# 
  1250  010C                     	;# 
  1251  010D                     	;# 
  1252  010E                     	;# 
  1253  0111                     	;# 
  1254  0112                     	;# 
  1255  0113                     	;# 
  1256  0114                     	;# 
  1257  0115                     	;# 
  1258  0116                     	;# 
  1259  0117                     	;# 
  1260  0118                     	;# 
  1261  0119                     	;# 
  1262  011A                     	;# 
  1263  011B                     	;# 
  1264  011C                     	;# 
  1265  011D                     	;# 
  1266  018C                     	;# 
  1267  018D                     	;# 
  1268  018E                     	;# 
  1269  0191                     	;# 
  1270  0191                     	;# 
  1271  0192                     	;# 
  1272  0193                     	;# 
  1273  0193                     	;# 
  1274  0194                     	;# 
  1275  0195                     	;# 
  1276  0196                     	;# 
  1277  0197                     	;# 
  1278  0199                     	;# 
  1279  0199                     	;# 
  1280  0199                     	;# 
  1281  019A                     	;# 
  1282  019A                     	;# 
  1283  019A                     	;# 
  1284  019B                     	;# 
  1285  019B                     	;# 
  1286  019B                     	;# 
  1287  019B                     	;# 
  1288  019B                     	;# 
  1289  019C                     	;# 
  1290  019C                     	;# 
  1291  019C                     	;# 
  1292  019D                     	;# 
  1293  019D                     	;# 
  1294  019D                     	;# 
  1295  019E                     	;# 
  1296  019E                     	;# 
  1297  019E                     	;# 
  1298  019F                     	;# 
  1299  019F                     	;# 
  1300  019F                     	;# 
  1301  019F                     	;# 
  1302  019F                     	;# 
  1303  020C                     	;# 
  1304  020D                     	;# 
  1305  020E                     	;# 
  1306  0210                     	;# 
  1307  0211                     	;# 
  1308  0211                     	;# 
  1309  0212                     	;# 
  1310  0212                     	;# 
  1311  0213                     	;# 
  1312  0213                     	;# 
  1313  0214                     	;# 
  1314  0214                     	;# 
  1315  0215                     	;# 
  1316  0215                     	;# 
  1317  0215                     	;# 
  1318  0215                     	;# 
  1319  0216                     	;# 
  1320  0216                     	;# 
  1321  0217                     	;# 
  1322  0217                     	;# 
  1323  021B                     	;# 
  1324  021C                     	;# 
  1325  021D                     	;# 
  1326  021E                     	;# 
  1327  021F                     	;# 
  1328  028C                     	;# 
  1329  028D                     	;# 
  1330  028E                     	;# 
  1331  0291                     	;# 
  1332  0291                     	;# 
  1333  0292                     	;# 
  1334  0293                     	;# 
  1335  0294                     	;# 
  1336  0295                     	;# 
  1337  0295                     	;# 
  1338  0296                     	;# 
  1339  0297                     	;# 
  1340  0298                     	;# 
  1341  0299                     	;# 
  1342  0299                     	;# 
  1343  029A                     	;# 
  1344  029B                     	;# 
  1345  029C                     	;# 
  1346  029E                     	;# 
  1347  029F                     	;# 
  1348  030C                     	;# 
  1349  030D                     	;# 
  1350  030E                     	;# 
  1351  0315                     	;# 
  1352  0316                     	;# 
  1353  0317                     	;# 
  1354  0318                     	;# 
  1355  0319                     	;# 
  1356  031B                     	;# 
  1357  031C                     	;# 
  1358  031D                     	;# 
  1359  031E                     	;# 
  1360  031F                     	;# 
  1361  038C                     	;# 
  1362  038D                     	;# 
  1363  038E                     	;# 
  1364  0390                     	;# 
  1365  0391                     	;# 
  1366  0392                     	;# 
  1367  0393                     	;# 
  1368  0394                     	;# 
  1369  0395                     	;# 
  1370  0396                     	;# 
  1371  0397                     	;# 
  1372  0398                     	;# 
  1373  0399                     	;# 
  1374  039D                     	;# 
  1375  039E                     	;# 
  1376  039F                     	;# 
  1377  040D                     	;# 
  1378  040F                     	;# 
  1379  040F                     	;# 
  1380  0410                     	;# 
  1381  0411                     	;# 
  1382  0412                     	;# 
  1383  0413                     	;# 
  1384  0413                     	;# 
  1385  0414                     	;# 
  1386  0414                     	;# 
  1387  0415                     	;# 
  1388  0416                     	;# 
  1389  0417                     	;# 
  1390  0418                     	;# 
  1391  041A                     	;# 
  1392  041A                     	;# 
  1393  041B                     	;# 
  1394  041B                     	;# 
  1395  041C                     	;# 
  1396  041D                     	;# 
  1397  041E                     	;# 
  1398  041F                     	;# 
  1399  048E                     	;# 
  1400  048E                     	;# 
  1401  048F                     	;# 
  1402  0490                     	;# 
  1403  0491                     	;# 
  1404  0492                     	;# 
  1405  0493                     	;# 
  1406  0493                     	;# 
  1407  0494                     	;# 
  1408  0494                     	;# 
  1409  0495                     	;# 
  1410  0496                     	;# 
  1411  0497                     	;# 
  1412  0498                     	;# 
  1413  049A                     	;# 
  1414  049A                     	;# 
  1415  049B                     	;# 
  1416  049B                     	;# 
  1417  049C                     	;# 
  1418  049D                     	;# 
  1419  049E                     	;# 
  1420  049F                     	;# 
  1421  050F                     	;# 
  1422  0510                     	;# 
  1423  0511                     	;# 
  1424  0512                     	;# 
  1425  0513                     	;# 
  1426  0514                     	;# 
  1427  0515                     	;# 
  1428  0516                     	;# 
  1429  0517                     	;# 
  1430  0518                     	;# 
  1431  0519                     	;# 
  1432  051A                     	;# 
  1433  058D                     	;# 
  1434  058E                     	;# 
  1435  058F                     	;# 
  1436  058F                     	;# 
  1437  058F                     	;# 
  1438  0590                     	;# 
  1439  0590                     	;# 
  1440  0591                     	;# 
  1441  0592                     	;# 
  1442  0592                     	;# 
  1443  0592                     	;# 
  1444  0593                     	;# 
  1445  0593                     	;# 
  1446  0594                     	;# 
  1447  0595                     	;# 
  1448  0595                     	;# 
  1449  0596                     	;# 
  1450  0597                     	;# 
  1451  0597                     	;# 
  1452  0598                     	;# 
  1453  0599                     	;# 
  1454  0599                     	;# 
  1455  0599                     	;# 
  1456  059A                     	;# 
  1457  059A                     	;# 
  1458  059E                     	;# 
  1459  059F                     	;# 
  1460  059F                     	;# 
  1461  0614                     	;# 
  1462  0614                     	;# 
  1463  0615                     	;# 
  1464  0616                     	;# 
  1465  0617                     	;# 
  1466  0617                     	;# 
  1467  0618                     	;# 
  1468  0619                     	;# 
  1469  061A                     	;# 
  1470  061A                     	;# 
  1471  061B                     	;# 
  1472  061C                     	;# 
  1473  068D                     	;# 
  1474  068E                     	;# 
  1475  068F                     	;# 
  1476  0690                     	;# 
  1477  0691                     	;# 
  1478  0692                     	;# 
  1479  0693                     	;# 
  1480  0694                     	;# 
  1481  0695                     	;# 
  1482  0696                     	;# 
  1483  0697                     	;# 
  1484  0698                     	;# 
  1485  0699                     	;# 
  1486  069A                     	;# 
  1487  069B                     	;# 
  1488  069C                     	;# 
  1489  069D                     	;# 
  1490  069E                     	;# 
  1491  069F                     	;# 
  1492  070D                     	;# 
  1493  070E                     	;# 
  1494  070F                     	;# 
  1495  0710                     	;# 
  1496  0711                     	;# 
  1497  0712                     	;# 
  1498  0713                     	;# 
  1499  0714                     	;# 
  1500  0715                     	;# 
  1501  0716                     	;# 
  1502  0717                     	;# 
  1503  0718                     	;# 
  1504  0719                     	;# 
  1505  071A                     	;# 
  1506  071B                     	;# 
  1507  071C                     	;# 
  1508  071D                     	;# 
  1509  071E                     	;# 
  1510  071F                     	;# 
  1511  078E                     	;# 
  1512  078F                     	;# 
  1513  0790                     	;# 
  1514  0791                     	;# 
  1515  0792                     	;# 
  1516  0793                     	;# 
  1517  0794                     	;# 
  1518  0795                     	;# 
  1519  0796                     	;# 
  1520  0797                     	;# 
  1521  0798                     	;# 
  1522  0799                     	;# 
  1523  079A                     	;# 
  1524  079B                     	;# 
  1525  079C                     	;# 
  1526  079D                     	;# 
  1527  079E                     	;# 
  1528  079F                     	;# 
  1529  080D                     	;# 
  1530  080E                     	;# 
  1531  080F                     	;# 
  1532  0810                     	;# 
  1533  0811                     	;# 
  1534  0812                     	;# 
  1535  0813                     	;# 
  1536  0814                     	;# 
  1537  0815                     	;# 
  1538  0816                     	;# 
  1539  0817                     	;# 
  1540  0818                     	;# 
  1541  0819                     	;# 
  1542  081A                     	;# 
  1543  081B                     	;# 
  1544  081C                     	;# 
  1545  081D                     	;# 
  1546  081E                     	;# 
  1547  081F                     	;# 
  1548  090C                     	;# 
  1549  090D                     	;# 
  1550  090E                     	;# 
  1551  090F                     	;# 
  1552  0910                     	;# 
  1553  0911                     	;# 
  1554  0912                     	;# 
  1555  0913                     	;# 
  1556  0914                     	;# 
  1557  0915                     	;# 
  1558  0916                     	;# 
  1559  0917                     	;# 
  1560  0D8E                     	;# 
  1561  0D8F                     	;# 
  1562  0D90                     	;# 
  1563  0D91                     	;# 
  1564  0D91                     	;# 
  1565  0D92                     	;# 
  1566  0D93                     	;# 
  1567  0D93                     	;# 
  1568  0D94                     	;# 
  1569  0D95                     	;# 
  1570  0D95                     	;# 
  1571  0D96                     	;# 
  1572  0D97                     	;# 
  1573  0D97                     	;# 
  1574  0D98                     	;# 
  1575  0D99                     	;# 
  1576  0D99                     	;# 
  1577  0D9A                     	;# 
  1578  0D9B                     	;# 
  1579  0D9C                     	;# 
  1580  0D9C                     	;# 
  1581  0D9D                     	;# 
  1582  0D9D                     	;# 
  1583  0D9E                     	;# 
  1584  0D9F                     	;# 
  1585  0DA0                     	;# 
  1586  0DA1                     	;# 
  1587  0DA1                     	;# 
  1588  0DA2                     	;# 
  1589  0DA3                     	;# 
  1590  0DA3                     	;# 
  1591  0DA4                     	;# 
  1592  0DA5                     	;# 
  1593  0DA5                     	;# 
  1594  0DA6                     	;# 
  1595  0DA7                     	;# 
  1596  0DA7                     	;# 
  1597  0DA8                     	;# 
  1598  0DA9                     	;# 
  1599  0DA9                     	;# 
  1600  0DAA                     	;# 
  1601  0DAB                     	;# 
  1602  0DAC                     	;# 
  1603  0DAC                     	;# 
  1604  0DAD                     	;# 
  1605  0DAD                     	;# 
  1606  0DAE                     	;# 
  1607  0DAF                     	;# 
  1608  0DB0                     	;# 
  1609  0DB1                     	;# 
  1610  0DB1                     	;# 
  1611  0DB2                     	;# 
  1612  0DB3                     	;# 
  1613  0DB3                     	;# 
  1614  0DB4                     	;# 
  1615  0DB5                     	;# 
  1616  0DB5                     	;# 
  1617  0DB6                     	;# 
  1618  0DB7                     	;# 
  1619  0DB7                     	;# 
  1620  0DB8                     	;# 
  1621  0DB9                     	;# 
  1622  0DB9                     	;# 
  1623  0DBA                     	;# 
  1624  0DBB                     	;# 
  1625  0DBC                     	;# 
  1626  0DBC                     	;# 
  1627  0DBD                     	;# 
  1628  0DBD                     	;# 
  1629  0DBE                     	;# 
  1630  0DBF                     	;# 
  1631  0DC0                     	;# 
  1632  0E0C                     	;# 
  1633  0E0D                     	;# 
  1634  0E0E                     	;# 
  1635  0E0F                     	;# 
  1636  0E10                     	;# 
  1637  0E11                     	;# 
  1638  0E12                     	;# 
  1639  0E13                     	;# 
  1640  0E14                     	;# 
  1641  0E15                     	;# 
  1642  0E15                     	;# 
  1643  0E15                     	;# 
  1644  0E16                     	;# 
  1645  0E16                     	;# 
  1646  0E16                     	;# 
  1647  0E17                     	;# 
  1648  0E17                     	;# 
  1649  0E17                     	;# 
  1650  0E18                     	;# 
  1651  0E18                     	;# 
  1652  0E18                     	;# 
  1653  0E19                     	;# 
  1654  0E1A                     	;# 
  1655  0E1B                     	;# 
  1656  0E1D                     	;# 
  1657  0E1E                     	;# 
  1658  0E1F                     	;# 
  1659  0E21                     	;# 
  1660  0E22                     	;# 
  1661  0E23                     	;# 
  1662  0E24                     	;# 
  1663  0E25                     	;# 
  1664  0E26                     	;# 
  1665  0E27                     	;# 
  1666  0E28                     	;# 
  1667  0E29                     	;# 
  1668  0E2D                     	;# 
  1669  0E2E                     	;# 
  1670  0E2F                     	;# 
  1671  0E30                     	;# 
  1672  0E31                     	;# 
  1673  0E32                     	;# 
  1674  0E35                     	;# 
  1675  0E36                     	;# 
  1676  0E37                     	;# 
  1677  0E38                     	;# 
  1678  0E39                     	;# 
  1679  0E3A                     	;# 
  1680  0E3B                     	;# 
  1681  0E3C                     	;# 
  1682  0E3D                     	;# 
  1683  0E3E                     	;# 
  1684  0E90                     	;# 
  1685  0E91                     	;# 
  1686  0E92                     	;# 
  1687  0E93                     	;# 
  1688  0E94                     	;# 
  1689  0E95                     	;# 
  1690  0E96                     	;# 
  1691  0E97                     	;# 
  1692  0E98                     	;# 
  1693  0E99                     	;# 
  1694  0E9A                     	;# 
  1695  0E9B                     	;# 
  1696  0E9C                     	;# 
  1697  0E9D                     	;# 
  1698  0E9E                     	;# 
  1699  0E9F                     	;# 
  1700  0EA0                     	;# 
  1701  0EA1                     	;# 
  1702  0EA2                     	;# 
  1703  0EA3                     	;# 
  1704  0EA4                     	;# 
  1705  0EA5                     	;# 
  1706  0EA6                     	;# 
  1707  0EA7                     	;# 
  1708  0F0F                     	;# 
  1709  0F10                     	;# 
  1710  0F11                     	;# 
  1711  0F12                     	;# 
  1712  0F13                     	;# 
  1713  0F14                     	;# 
  1714  0F15                     	;# 
  1715  0F16                     	;# 
  1716  0F17                     	;# 
  1717  0F18                     	;# 
  1718  0F19                     	;# 
  1719  0F1A                     	;# 
  1720  0F1B                     	;# 
  1721  0F1C                     	;# 
  1722  0F1D                     	;# 
  1723  0F1E                     	;# 
  1724  0F1F                     	;# 
  1725  0F20                     	;# 
  1726  0F21                     	;# 
  1727  0F22                     	;# 
  1728  0F23                     	;# 
  1729  0F24                     	;# 
  1730  0F25                     	;# 
  1731  0F26                     	;# 
  1732  0F27                     	;# 
  1733  0F28                     	;# 
  1734  0F29                     	;# 
  1735  0F2A                     	;# 
  1736  0F2B                     	;# 
  1737  0F2C                     	;# 
  1738  0F2D                     	;# 
  1739  0F2E                     	;# 
  1740  0F2F                     	;# 
  1741  0F30                     	;# 
  1742  0F31                     	;# 
  1743  0F32                     	;# 
  1744  0F33                     	;# 
  1745  0F34                     	;# 
  1746  0F35                     	;# 
  1747  0F36                     	;# 
  1748  0F37                     	;# 
  1749  0FE4                     	;# 
  1750  0FE5                     	;# 
  1751  0FE6                     	;# 
  1752  0FE7                     	;# 
  1753  0FE8                     	;# 
  1754  0FE9                     	;# 
  1755  0FEA                     	;# 
  1756  0FEB                     	;# 
  1757  0FED                     	;# 
  1758  0FEE                     	;# 
  1759  0FEF                     	;_GLBL_ReadBuffer
  1760                           
  1761                           	psect	idataBANK0
  1762  058A                     __pidataBANK0:	
  1763                           
  1764                           ;initializer for _GLBL_Resp40
  1765  058A  34FF               	retlw	255
  1766  058B  34FF               	retlw	255
  1767  058C  34FF               	retlw	255
  1768  058D  34FF               	retlw	255
  1769  058E  34FF               	retlw	255
  1770                           
  1771                           ;initializer for _GLBL_Resp8
  1772  058F  34FF               	retlw	255
  1773                           
  1774                           	psect	stringtext1
  1775  0800                     __pstringtext1:	
  1776  0800                     _CRCTable:	
  1777  0800  3400               	retlw	0
  1778  0801  3409               	retlw	9
  1779  0802  3412               	retlw	18
  1780  0803  341B               	retlw	27
  1781  0804  3424               	retlw	36
  1782  0805  342D               	retlw	45
  1783  0806  3436               	retlw	54
  1784  0807  343F               	retlw	63
  1785  0808  3448               	retlw	72
  1786  0809  3441               	retlw	65
  1787  080A  345A               	retlw	90
  1788  080B  3453               	retlw	83
  1789  080C  346C               	retlw	108
  1790  080D  3465               	retlw	101
  1791  080E  347E               	retlw	126
  1792  080F  3477               	retlw	119
  1793  0810  3419               	retlw	25
  1794  0811  3410               	retlw	16
  1795  0812  340B               	retlw	11
  1796  0813  3402               	retlw	2
  1797  0814  343D               	retlw	61
  1798  0815  3434               	retlw	52
  1799  0816  342F               	retlw	47
  1800  0817  3426               	retlw	38
  1801  0818  3451               	retlw	81
  1802  0819  3458               	retlw	88
  1803  081A  3443               	retlw	67
  1804  081B  344A               	retlw	74
  1805  081C  3475               	retlw	117
  1806  081D  347C               	retlw	124
  1807  081E  3467               	retlw	103
  1808  081F  346E               	retlw	110
  1809  0820  3432               	retlw	50
  1810  0821  343B               	retlw	59
  1811  0822  3420               	retlw	32
  1812  0823  3429               	retlw	41
  1813  0824  3416               	retlw	22
  1814  0825  341F               	retlw	31
  1815  0826  3404               	retlw	4
  1816  0827  340D               	retlw	13
  1817  0828  347A               	retlw	122
  1818  0829  3473               	retlw	115
  1819  082A  3468               	retlw	104
  1820  082B  3461               	retlw	97
  1821  082C  345E               	retlw	94
  1822  082D  3457               	retlw	87
  1823  082E  344C               	retlw	76
  1824  082F  3445               	retlw	69
  1825  0830  342B               	retlw	43
  1826  0831  3422               	retlw	34
  1827  0832  3439               	retlw	57
  1828  0833  3430               	retlw	48
  1829  0834  340F               	retlw	15
  1830  0835  3406               	retlw	6
  1831  0836  341D               	retlw	29
  1832  0837  3414               	retlw	20
  1833  0838  3463               	retlw	99
  1834  0839  346A               	retlw	106
  1835  083A  3471               	retlw	113
  1836  083B  3478               	retlw	120
  1837  083C  3447               	retlw	71
  1838  083D  344E               	retlw	78
  1839  083E  3455               	retlw	85
  1840  083F  345C               	retlw	92
  1841  0840  3464               	retlw	100
  1842  0841  346D               	retlw	109
  1843  0842  3476               	retlw	118
  1844  0843  347F               	retlw	127
  1845  0844  3440               	retlw	64
  1846  0845  3449               	retlw	73
  1847  0846  3452               	retlw	82
  1848  0847  345B               	retlw	91
  1849  0848  342C               	retlw	44
  1850  0849  3425               	retlw	37
  1851  084A  343E               	retlw	62
  1852  084B  3437               	retlw	55
  1853  084C  3408               	retlw	8
  1854  084D  3401               	retlw	1
  1855  084E  341A               	retlw	26
  1856  084F  3413               	retlw	19
  1857  0850  347D               	retlw	125
  1858  0851  3474               	retlw	116
  1859  0852  346F               	retlw	111
  1860  0853  3466               	retlw	102
  1861  0854  3459               	retlw	89
  1862  0855  3450               	retlw	80
  1863  0856  344B               	retlw	75
  1864  0857  3442               	retlw	66
  1865  0858  3435               	retlw	53
  1866  0859  343C               	retlw	60
  1867  085A  3427               	retlw	39
  1868  085B  342E               	retlw	46
  1869  085C  3411               	retlw	17
  1870  085D  3418               	retlw	24
  1871  085E  3403               	retlw	3
  1872  085F  340A               	retlw	10
  1873  0860  3456               	retlw	86
  1874  0861  345F               	retlw	95
  1875  0862  3444               	retlw	68
  1876  0863  344D               	retlw	77
  1877  0864  3472               	retlw	114
  1878  0865  347B               	retlw	123
  1879  0866  3460               	retlw	96
  1880  0867  3469               	retlw	105
  1881  0868  341E               	retlw	30
  1882  0869  3417               	retlw	23
  1883  086A  340C               	retlw	12
  1884  086B  3405               	retlw	5
  1885  086C  343A               	retlw	58
  1886  086D  3433               	retlw	51
  1887  086E  3428               	retlw	40
  1888  086F  3421               	retlw	33
  1889  0870  344F               	retlw	79
  1890  0871  3446               	retlw	70
  1891  0872  345D               	retlw	93
  1892  0873  3454               	retlw	84
  1893  0874  346B               	retlw	107
  1894  0875  3462               	retlw	98
  1895  0876  3479               	retlw	121
  1896  0877  3470               	retlw	112
  1897  0878  3407               	retlw	7
  1898  0879  340E               	retlw	14
  1899  087A  3415               	retlw	21
  1900  087B  341C               	retlw	28
  1901  087C  3423               	retlw	35
  1902  087D  342A               	retlw	42
  1903  087E  3431               	retlw	49
  1904  087F  3438               	retlw	56
  1905  0880  3441               	retlw	65
  1906  0881  3448               	retlw	72
  1907  0882  3453               	retlw	83
  1908  0883  345A               	retlw	90
  1909  0884  3465               	retlw	101
  1910  0885  346C               	retlw	108
  1911  0886  3477               	retlw	119
  1912  0887  347E               	retlw	126
  1913  0888  3409               	retlw	9
  1914  0889  3400               	retlw	0
  1915  088A  341B               	retlw	27
  1916  088B  3412               	retlw	18
  1917  088C  342D               	retlw	45
  1918  088D  3424               	retlw	36
  1919  088E  343F               	retlw	63
  1920  088F  3436               	retlw	54
  1921  0890  3458               	retlw	88
  1922  0891  3451               	retlw	81
  1923  0892  344A               	retlw	74
  1924  0893  3443               	retlw	67
  1925  0894  347C               	retlw	124
  1926  0895  3475               	retlw	117
  1927  0896  346E               	retlw	110
  1928  0897  3467               	retlw	103
  1929  0898  3410               	retlw	16
  1930  0899  3419               	retlw	25
  1931  089A  3402               	retlw	2
  1932  089B  340B               	retlw	11
  1933  089C  3434               	retlw	52
  1934  089D  343D               	retlw	61
  1935  089E  3426               	retlw	38
  1936  089F  342F               	retlw	47
  1937  08A0  3473               	retlw	115
  1938  08A1  347A               	retlw	122
  1939  08A2  3461               	retlw	97
  1940  08A3  3468               	retlw	104
  1941  08A4  3457               	retlw	87
  1942  08A5  345E               	retlw	94
  1943  08A6  3445               	retlw	69
  1944  08A7  344C               	retlw	76
  1945  08A8  343B               	retlw	59
  1946  08A9  3432               	retlw	50
  1947  08AA  3429               	retlw	41
  1948  08AB  3420               	retlw	32
  1949  08AC  341F               	retlw	31
  1950  08AD  3416               	retlw	22
  1951  08AE  340D               	retlw	13
  1952  08AF  3404               	retlw	4
  1953  08B0  346A               	retlw	106
  1954  08B1  3463               	retlw	99
  1955  08B2  3478               	retlw	120
  1956  08B3  3471               	retlw	113
  1957  08B4  344E               	retlw	78
  1958  08B5  3447               	retlw	71
  1959  08B6  345C               	retlw	92
  1960  08B7  3455               	retlw	85
  1961  08B8  3422               	retlw	34
  1962  08B9  342B               	retlw	43
  1963  08BA  3430               	retlw	48
  1964  08BB  3439               	retlw	57
  1965  08BC  3406               	retlw	6
  1966  08BD  340F               	retlw	15
  1967  08BE  3414               	retlw	20
  1968  08BF  341D               	retlw	29
  1969  08C0  3425               	retlw	37
  1970  08C1  342C               	retlw	44
  1971  08C2  3437               	retlw	55
  1972  08C3  343E               	retlw	62
  1973  08C4  3401               	retlw	1
  1974  08C5  3408               	retlw	8
  1975  08C6  3413               	retlw	19
  1976  08C7  341A               	retlw	26
  1977  08C8  346D               	retlw	109
  1978  08C9  3464               	retlw	100
  1979  08CA  347F               	retlw	127
  1980  08CB  3476               	retlw	118
  1981  08CC  3449               	retlw	73
  1982  08CD  3440               	retlw	64
  1983  08CE  345B               	retlw	91
  1984  08CF  3452               	retlw	82
  1985  08D0  343C               	retlw	60
  1986  08D1  3435               	retlw	53
  1987  08D2  342E               	retlw	46
  1988  08D3  3427               	retlw	39
  1989  08D4  3418               	retlw	24
  1990  08D5  3411               	retlw	17
  1991  08D6  340A               	retlw	10
  1992  08D7  3403               	retlw	3
  1993  08D8  3474               	retlw	116
  1994  08D9  347D               	retlw	125
  1995  08DA  3466               	retlw	102
  1996  08DB  346F               	retlw	111
  1997  08DC  3450               	retlw	80
  1998  08DD  3459               	retlw	89
  1999  08DE  3442               	retlw	66
  2000  08DF  344B               	retlw	75
  2001  08E0  3417               	retlw	23
  2002  08E1  341E               	retlw	30
  2003  08E2  3405               	retlw	5
  2004  08E3  340C               	retlw	12
  2005  08E4  3433               	retlw	51
  2006  08E5  343A               	retlw	58
  2007  08E6  3421               	retlw	33
  2008  08E7  3428               	retlw	40
  2009  08E8  345F               	retlw	95
  2010  08E9  3456               	retlw	86
  2011  08EA  344D               	retlw	77
  2012  08EB  3444               	retlw	68
  2013  08EC  347B               	retlw	123
  2014  08ED  3472               	retlw	114
  2015  08EE  3469               	retlw	105
  2016  08EF  3460               	retlw	96
  2017  08F0  340E               	retlw	14
  2018  08F1  3407               	retlw	7
  2019  08F2  341C               	retlw	28
  2020  08F3  3415               	retlw	21
  2021  08F4  342A               	retlw	42
  2022  08F5  3423               	retlw	35
  2023  08F6  3438               	retlw	56
  2024  08F7  3431               	retlw	49
  2025  08F8  3446               	retlw	70
  2026  08F9  344F               	retlw	79
  2027  08FA  3454               	retlw	84
  2028  08FB  345D               	retlw	93
  2029  08FC  3462               	retlw	98
  2030  08FD  346B               	retlw	107
  2031  08FE  3470               	retlw	112
  2032  08FF  3479               	retlw	121
  2033  0900                     __end_of_CRCTable:	
  2034  0011                     _PIR1bits	set	17
  2035  000E                     _PORTCbits	set	14
  2036  009C                     _OSCSTATbits	set	156
  2037  009B                     _OSCCON	set	155
  2038  0477                     _TRISC7	set	1143
  2039  0474                     _TRISC4	set	1140
  2040  0473                     _TRISC3	set	1139
  2041  0472                     _TRISC2	set	1138
  2042  0C73                     _ANSC3	set	3187
  2043  0214                     _SSP1STATbits	set	532
  2044  0211                     _SSP1BUF	set	529
  2045  0212                     _SSP1ADD	set	530
  2046  0215                     _SSP1CON1	set	533
  2047  0214                     _SSP1STAT	set	532
  2048  0215                     _SSP1CON1bits	set	533
  2049  0495                     _T2CON	set	1173
  2050  0494                     _T2PR	set	1172
  2051  0497                     _T2CLKCON	set	1175
  2052  058F                     _DAC1REFL	set	1423
  2053  0590                     _DAC1REFH	set	1424
  2054  058E                     _DAC1CON0	set	1422
  2055  2C68                     _DAC1LD	set	11368
  2056  0E3B                     _SSPDATPPS	set	3643
  2057  0E3A                     _SSPCLKPPS	set	3642
  2058  0EA4                     _RC4PPS	set	3748
  2059  0EA2                     _RC2PPS	set	3746
  2060                           
  2061                           ; #config settings
  2062  0000                     
  2063                           	psect	cinit
  2064  07D8                     start_initialization:	
  2065  07D8                     __initialization:		;BIGRAM
  2066                           
  2067                           ; Initialize objects allocated to BANK0
  2068  07D8  308A               	movlw	low __pidataBANK0
  2069  07D9  0084               	movwf	4
  2070  07DA  3085               	movlw	(high __pidataBANK0)| (0+128)
  2071  07DB  0085               	movwf	5
  2072  07DC  0012               	moviw fsr0++
  2073  07DD  00A8               	movwf	__pdataBANK0& (0+127)
  2074  07DE  0012               	moviw fsr0++
  2075  07DF  00A9               	movwf	(__pdataBANK0+1)& (0+127)
  2076  07E0  0012               	moviw fsr0++
  2077  07E1  00AA               	movwf	(__pdataBANK0+2)& (0+127)
  2078  07E2  0012               	moviw fsr0++
  2079  07E3  00AB               	movwf	(__pdataBANK0+3)& (0+127)
  2080  07E4  0012               	moviw fsr0++
  2081  07E5  00AC               	movwf	(__pdataBANK0+4)& (0+127)
  2082  07E6  0012               	moviw fsr0++
  2083  07E7  00AD               	movwf	(__pdataBANK0+5)& (0+127)
  2084                           
  2085                           ; Clear objects allocated to BIGRAM_1
  2086  07E8  30F0               	movlw	low (0+9712)
  2087  07E9  0084               	movwf	4
  2088  07EA  3025               	movlw	high (0+9712)
  2089  07EB  0085               	movwf	5
  2090  07EC  3000               	movlw	0
  2091  07ED  00FE               	movwf	btemp
  2092  07EE  3002               	movlw	2
  2093  07EF  00FF               	movwf	btemp+1
  2094  07F0  3185  25AF  3187   	fcall	clear_ram0
  2095                           
  2096                           ; Clear objects allocated to BIGRAM
  2097  07F3  30F0               	movlw	low (0+8688)
  2098  07F4  0084               	movwf	4
  2099  07F5  3021               	movlw	high (0+8688)
  2100  07F6  0085               	movwf	5
  2101  07F7  3000               	movlw	0
  2102  07F8  00FE               	movwf	btemp
  2103  07F9  3002               	movlw	2
  2104  07FA  00FF               	movwf	btemp+1
  2105  07FB  3185  25AF         	fcall	clear_ram0
  2106  07FD                     end_of_initialization:	
  2107                           ;End of C runtime variable initialization code
  2108                           
  2109  07FD                     __end_of__initialization:	
  2110  07FD  0020               	movlb	0
  2111  07FE  3186  2E30         	ljmp	_main	;jump to C main() function
  2112                           
  2113                           	psect	dataBANK0
  2114  0028                     __pdataBANK0:	
  2115  0028                     _GLBL_Resp40:	
  2116  0028                     	ds	5
  2117  002D                     _GLBL_Resp8:	
  2118  002D                     	ds	1
  2119                           
  2120                           	psect	clrtext
  2121  05AF                     clear_ram0:	
  2122                           ;	Called with FSR0 containing the base address, and
  2123                           ;	btemp/btemp+1 has the size to clear
  2124                           
  2125  05AF  0064               	clrwdt	;clear the watchdog before getting into this loop
  2126  05B0                     clrloop0:	
  2127  05B0  0180               	clrf	0	;clear RAM location pointed to by FSR
  2128  05B1  3101               	addfsr 0,1
  2129  05B2  3001               	movlw	1
  2130  05B3  02FE               	subwf	126,f
  2131  05B4  3000               	movlw	0
  2132  05B5  3BFF               	subwfb	127,f
  2133  05B6  087F               	movf	127,w
  2134  05B7  047E               	iorwf	126,w
  2135  05B8  1903               	btfsc	3,2
  2136  05B9  3400               	retlw	0	;all done for this memory range, return
  2137  05BA  2DB0               	goto	clrloop0	;have we reached the end yet?
  2138                           
  2139                           	psect	cstackCOMMON
  2140  0070                     __pcstackCOMMON:	
  2141  0070                     ?_SPI_Write:	
  2142  0070                     ??_SPI_Write:	
  2143                           ; 1 bytes @ 0x0
  2144                           
  2145  0070                     ?_SD_Read8bitResponse:	
  2146                           ; 1 bytes @ 0x0
  2147                           
  2148  0070                     ??_SD_Read8bitResponse:	
  2149                           ; 1 bytes @ 0x0
  2150                           
  2151  0070                     ?_SD_Check8bitResponse:	
  2152                           ; 1 bytes @ 0x0
  2153                           
  2154  0070                     ??_SD_Check8bitResponse:	
  2155                           ; 1 bytes @ 0x0
  2156                           
  2157  0070                     ?_SD_Read40bitResponse:	
  2158                           ; 1 bytes @ 0x0
  2159                           
  2160  0070                     ??_SD_Read40bitResponse:	
  2161                           ; 1 bytes @ 0x0
  2162                           
  2163  0070                     ?_SD_Check40bitResponse:	
  2164                           ; 1 bytes @ 0x0
  2165                           
  2166  0070                     ?_SPI_Read:	
  2167                           ; 1 bytes @ 0x0
  2168                           
  2169  0070                     ??_SPI_Read:	
  2170                           ; 1 bytes @ 0x0
  2171                           
  2172  0070                     ?_Lab3_DAQ:	
  2173                           ; 1 bytes @ 0x0
  2174                           
  2175  0070                     ??_Lab3_DAQ:	
  2176                           ; 1 bytes @ 0x0
  2177                           
  2178  0070                     ?_SD_Init:	
  2179                           ; 1 bytes @ 0x0
  2180                           
  2181  0070                     ?_SPI_Init:	
  2182                           ; 1 bytes @ 0x0
  2183                           
  2184  0070                     ??_SPI_Init:	
  2185                           ; 1 bytes @ 0x0
  2186                           
  2187  0070                     ?_main:	
  2188                           ; 1 bytes @ 0x0
  2189                           
  2190  0070                     SD_Check8bitResponse@Byte:	
  2191                           ; 1 bytes @ 0x0
  2192                           
  2193  0070                     SD_Check40bitResponse@Byte3:	
  2194                           ; 1 bytes @ 0x0
  2195                           
  2196  0070                     SPI_Write@Data_8bit:	
  2197                           ; 1 bytes @ 0x0
  2198                           
  2199  0070                     Lab3_DAQ@writevalue:	
  2200                           ; 1 bytes @ 0x0
  2201                           
  2202                           
  2203                           ; 1 bytes @ 0x0
  2204  0070                     	ds	1
  2205  0071                     ?_SD_SendCommand:	
  2206  0071                     SD_SendCommand@ARG3:	
  2207                           ; 1 bytes @ 0x1
  2208                           
  2209  0071                     SD_Read8bitResponse@readMessage:	
  2210                           ; 1 bytes @ 0x1
  2211                           
  2212  0071                     SD_Check8bitResponse@match:	
  2213                           ; 1 bytes @ 0x1
  2214                           
  2215  0071                     SD_Read40bitResponse@readMessage:	
  2216                           ; 1 bytes @ 0x1
  2217                           
  2218  0071                     SD_Check40bitResponse@Byte2:	
  2219                           ; 1 bytes @ 0x1
  2220                           
  2221                           
  2222                           ; 1 bytes @ 0x1
  2223  0071                     	ds	1
  2224  0072                     SD_SendCommand@ARG2:	
  2225  0072                     SD_Check40bitResponse@Byte1:	
  2226                           ; 1 bytes @ 0x2
  2227                           
  2228                           
  2229                           ; 1 bytes @ 0x2
  2230  0072                     	ds	1
  2231  0073                     SD_SendCommand@ARG1:	
  2232  0073                     SD_Check40bitResponse@Byte0:	
  2233                           ; 1 bytes @ 0x3
  2234                           
  2235                           
  2236                           ; 1 bytes @ 0x3
  2237  0073                     	ds	1
  2238  0074                     ??_SD_Check40bitResponse:	
  2239  0074                     SD_SendCommand@ARG0:	
  2240                           ; 1 bytes @ 0x4
  2241                           
  2242  0074                     SD_Check40bitResponse@Byte4:	
  2243                           ; 1 bytes @ 0x4
  2244                           
  2245                           
  2246                           ; 1 bytes @ 0x4
  2247  0074                     	ds	1
  2248  0075                     ??_SD_SendCommand:	
  2249  0075                     SD_Check40bitResponse@match:	
  2250                           ; 1 bytes @ 0x5
  2251                           
  2252                           
  2253                           ; 1 bytes @ 0x5
  2254  0075                     	ds	1
  2255  0076                     SD_SendCommand@CMD_6bit:	
  2256                           
  2257                           ; 1 bytes @ 0x6
  2258  0076                     	ds	1
  2259  0077                     SD_SendCommand@ByteToSend:	
  2260                           
  2261                           ; 1 bytes @ 0x7
  2262  0077                     	ds	1
  2263  0078                     SD_SendCommand@Checksum:	
  2264                           
  2265                           ; 1 bytes @ 0x8
  2266  0078                     	ds	1
  2267  0079                     ??_SD_Init:	
  2268                           
  2269                           ; 1 bytes @ 0x9
  2270  0079                     	ds	1
  2271  007A                     ??_main:	
  2272                           
  2273                           ; 1 bytes @ 0xA
  2274  007A                     	ds	4
  2275                           
  2276                           	psect	cstackBANK0
  2277  0020                     __pcstackBANK0:	
  2278  0020                     main@ch_sendbyte:	
  2279                           
  2280                           ; 1 bytes @ 0x0
  2281  0020                     	ds	1
  2282  0021                     main@ch_adbyte4:	
  2283                           
  2284                           ; 1 bytes @ 0x1
  2285  0021                     	ds	1
  2286  0022                     main@readMessage:	
  2287                           
  2288                           ; 1 bytes @ 0x2
  2289  0022                     	ds	1
  2290  0023                     main@sh_counter:	
  2291                           
  2292                           ; 2 bytes @ 0x3
  2293  0023                     	ds	2
  2294  0025                     main@ch_adbyte1:	
  2295                           
  2296                           ; 1 bytes @ 0x5
  2297  0025                     	ds	1
  2298  0026                     main@ch_adbyte2:	
  2299                           
  2300                           ; 1 bytes @ 0x6
  2301  0026                     	ds	1
  2302  0027                     main@ch_adbyte3:	
  2303                           
  2304                           ; 1 bytes @ 0x7
  2305  0027                     	ds	1
  2306                           
  2307                           	psect	maintext
  2308  0630                     __pmaintext:	
  2309 ;;
  2310 ;;Main: autosize = 0, tempsize = 4, incstack = 0, save=0
  2311 ;;
  2312 ;; *************** function _main *****************
  2313 ;; Defined at:
  2314 ;;		line 6 in file "Lab3_Main.c"
  2315 ;; Parameters:    Size  Location     Type
  2316 ;;		None
  2317 ;; Auto vars:     Size  Location     Type
  2318 ;;  readMessage     1    2[BANK0 ] unsigned char 
  2319 ;;  sh_counter      2    3[BANK0 ] short 
  2320 ;;  ch_adbyte3      1    7[BANK0 ] unsigned char 
  2321 ;;  ch_adbyte2      1    6[BANK0 ] unsigned char 
  2322 ;;  ch_adbyte1      1    5[BANK0 ] unsigned char 
  2323 ;;  ch_adbyte4      1    1[BANK0 ] unsigned char 
  2324 ;;  ch_sendbyte     1    0[BANK0 ] unsigned char 
  2325 ;; Return value:  Size  Location     Type
  2326 ;;                  1    wreg      void 
  2327 ;; Registers used:
  2328 ;;		wreg, fsr0l, fsr0h, status,2, status,0, pclath, cstack
  2329 ;; Tracked objects:
  2330 ;;		On entry : B1F/0
  2331 ;;		On exit  : 0/0
  2332 ;;		Unchanged: 0/0
  2333 ;; Data sizes:     COMMON   BANK0   BANK1   BANK2   BANK3   BANK4   BANK5   BANK6   BANK7   BANK8   BANK9  BANK10  BANK1
      +1  BANK12  BANK13  BANK14  BANK15  BANK16  BANK17  BANK18  BANK19  BANK20  BANK21  BANK22  BANK23  BANK24  BANK25
  2334 ;;      Params:         0       0       0       0       0       0       0       0       0       0       0       0       
      +0       0       0       0       0       0       0       0       0       0       0       0       0       0       0
  2335 ;;      Locals:         0       8       0       0       0       0       0       0       0       0       0       0       
      +0       0       0       0       0       0       0       0       0       0       0       0       0       0       0
  2336 ;;      Temps:          4       0       0       0       0       0       0       0       0       0       0       0       
      +0       0       0       0       0       0       0       0       0       0       0       0       0       0       0
  2337 ;;      Totals:         4       8       0       0       0       0       0       0       0       0       0       0       
      +0       0       0       0       0       0       0       0       0       0       0       0       0       0       0
  2338 ;;Total ram usage:       12 bytes
  2339 ;; Hardware stack levels required when called:    3
  2340 ;; This function calls:
  2341 ;;		_Lab3_DAQ
  2342 ;;		_SD_Init
  2343 ;;		_SD_Read8bitResponse
  2344 ;;		_SD_SendCommand
  2345 ;;		_SPI_Init
  2346 ;;		_SPI_Read
  2347 ;; This function is called by:
  2348 ;;		Startup code after reset
  2349 ;; This function uses a non-reentrant model
  2350 ;;
  2351                           
  2352                           
  2353                           ;psect for function _main
  2354  0630                     _main:	
  2355                           
  2356                           ;Lab3_Main.c: 9:     OSCCON = 0xF4;
  2357                           
  2358                           ;incstack = 0
  2359                           ; Regs used in _main: [wreg-fsr0h+status,2+status,0+pclath+cstack]
  2360  0630  30F4               	movlw	244
  2361  0631  0021               	movlb	1	; select bank1
  2362  0632  009B               	movwf	27	;volatile
  2363  0633                     l170:	
  2364                           ;Lab3_Main.c: 10:     while(OSCSTATbits.HFIOFR == 0);
  2365                           
  2366  0633  1E1C               	btfss	28,4	;volatile
  2367  0634  2E33               	goto	l170
  2368                           
  2369                           ;Lab3_Main.c: 11:     short sh_counter = 0;
  2370  0635  0020               	movlb	0	; select bank0
  2371  0636  01A3               	clrf	main@sh_counter
  2372  0637  01A4               	clrf	main@sh_counter+1
  2373                           
  2374                           ;Lab3_Main.c: 12:     char ch_sendbyte;;Lab3_Main.c: 13:     char ch_adbyte1 = 0x00;
  2375  0638  01A5               	clrf	main@ch_adbyte1
  2376                           
  2377                           ;Lab3_Main.c: 14:     char ch_adbyte2 = 0x00;
  2378  0639  01A6               	clrf	main@ch_adbyte2
  2379                           
  2380                           ;Lab3_Main.c: 15:     char ch_adbyte3 = 0x00;
  2381  063A  01A7               	clrf	main@ch_adbyte3
  2382                           
  2383                           ;Lab3_Main.c: 16:     char ch_adbyte4 = 0x00;
  2384  063B  01A1               	clrf	main@ch_adbyte4
  2385                           
  2386                           ;Lab3_Main.c: 19:     SPI_Init();
  2387  063C  3185  25E6  3186   	fcall	_SPI_Init
  2388                           
  2389                           ;Lab3_Main.c: 20:     SD_Init();
  2390  063F  3186  26B3  3186   	fcall	_SD_Init
  2391                           
  2392                           ;Lab3_Main.c: 22:     DAC1CON0 = 0xE0;
  2393  0642  30E0               	movlw	224
  2394  0643  002B               	movlb	11	; select bank11
  2395  0644  008E               	movwf	14	;volatile
  2396                           
  2397                           ;Lab3_Main.c: 24:     T2CLKCON = 0x02;
  2398  0645  3002               	movlw	2
  2399  0646  0029               	movlb	9	; select bank9
  2400  0647  0097               	movwf	23	;volatile
  2401                           
  2402                           ;Lab3_Main.c: 25:     T2PR = 0x19;
  2403  0648  3019               	movlw	25
  2404  0649  0094               	movwf	20	;volatile
  2405                           
  2406                           ;Lab3_Main.c: 26:     T2CON = 0xc4;
  2407  064A  30C4               	movlw	196
  2408  064B  0095               	movwf	21	;volatile
  2409  064C                     l1283:	
  2410                           
  2411                           ;Lab3_Main.c: 29:     {;Lab3_Main.c: 30:         if (sh_counter == 0) {
  2412  064C  0020               	movlb	0	; select bank0
  2413  064D  0823               	movf	main@sh_counter,w
  2414  064E  0424               	iorwf	main@sh_counter+1,w
  2415  064F  1D03               	btfss	3,2
  2416  0650  2E72               	goto	l1295
  2417                           
  2418                           ;Lab3_Main.c: 32:             SD_SendCommand(17, ch_adbyte4, ch_adbyte3, ch_adbyte2, ch_
      +                          adbyte1);
  2419  0651  0821               	movf	main@ch_adbyte4,w
  2420  0652  00FA               	movwf	??_main
  2421  0653  087A               	movf	??_main,w
  2422  0654  00F1               	movwf	SD_SendCommand@ARG3
  2423  0655  0827               	movf	main@ch_adbyte3,w
  2424  0656  00FB               	movwf	??_main+1
  2425  0657  087B               	movf	??_main+1,w
  2426  0658  00F2               	movwf	SD_SendCommand@ARG2
  2427  0659  0826               	movf	main@ch_adbyte2,w
  2428  065A  00FC               	movwf	??_main+2
  2429  065B  087C               	movf	??_main+2,w
  2430  065C  00F3               	movwf	SD_SendCommand@ARG1
  2431  065D  0825               	movf	main@ch_adbyte1,w
  2432  065E  00FD               	movwf	??_main+3
  2433  065F  087D               	movf	??_main+3,w
  2434  0660  00F4               	movwf	SD_SendCommand@ARG0
  2435  0661  3011               	movlw	17
  2436  0662  3187  273F  3186   	fcall	_SD_SendCommand
  2437                           
  2438                           ;Lab3_Main.c: 33:             SD_Read8bitResponse();
  2439  0665  3185  25BB  3186   	fcall	_SD_Read8bitResponse
  2440  0668                     l1291:	
  2441  0668  3185  2597  3186   	fcall	_SPI_Read
  2442  066B  00FA               	movwf	??_main
  2443  066C  087A               	movf	??_main,w
  2444  066D  0020               	movlb	0	; select bank0
  2445  066E  00A2               	movwf	main@readMessage
  2446  066F  0A22               	incf	main@readMessage,w
  2447  0670  1903               	btfsc	3,2
  2448  0671  2E68               	goto	l1291
  2449  0672                     l1295:	
  2450                           
  2451                           ;Lab3_Main.c: 39:         ch_sendbyte = SPI_Read();
  2452  0672  3185  2597  3186   	fcall	_SPI_Read
  2453  0675  00FA               	movwf	??_main
  2454  0676  087A               	movf	??_main,w
  2455  0677  0020               	movlb	0	; select bank0
  2456  0678  00A0               	movwf	main@ch_sendbyte
  2457                           
  2458                           ;Lab3_Main.c: 40:         Lab3_DAQ(ch_sendbyte);
  2459  0679  0820               	movf	main@ch_sendbyte,w
  2460  067A  3185  2590  3186   	fcall	_Lab3_DAQ
  2461                           
  2462                           ;Lab3_Main.c: 41:         sh_counter++;
  2463  067D  3001               	movlw	1
  2464  067E  0020               	movlb	0	; select bank0
  2465  067F  07A3               	addwf	main@sh_counter,f
  2466  0680  3000               	movlw	0
  2467  0681  3DA4               	addwfc	main@sh_counter+1,f
  2468                           
  2469                           ;Lab3_Main.c: 42:         if (sh_counter==512) {
  2470  0682  3002               	movlw	2
  2471  0683  0624               	xorwf	main@sh_counter+1,w
  2472  0684  0423               	iorwf	main@sh_counter,w
  2473  0685  1D03               	btfss	3,2
  2474  0686  2EAE               	goto	l181
  2475                           
  2476                           ;Lab3_Main.c: 43:          ch_adbyte1++;
  2477  0687  3001               	movlw	1
  2478  0688  00FA               	movwf	??_main
  2479  0689  087A               	movf	??_main,w
  2480  068A  07A5               	addwf	main@ch_adbyte1,f
  2481                           
  2482                           ;Lab3_Main.c: 44:          if (ch_adbyte1 == (char)255) {
  2483  068B  0A25               	incf	main@ch_adbyte1,w
  2484  068C  1D03               	btfss	3,2
  2485  068D  2E93               	goto	l1307
  2486                           
  2487                           ;Lab3_Main.c: 45:              ch_adbyte2++;
  2488  068E  3001               	movlw	1
  2489  068F  00FA               	movwf	??_main
  2490  0690  087A               	movf	??_main,w
  2491  0691  07A6               	addwf	main@ch_adbyte2,f
  2492                           
  2493                           ;Lab3_Main.c: 46:              ch_adbyte1 = 0;
  2494  0692  01A5               	clrf	main@ch_adbyte1
  2495  0693                     l1307:	
  2496                           
  2497                           ;Lab3_Main.c: 48:          if (ch_adbyte2 == (char)255){
  2498  0693  0A26               	incf	main@ch_adbyte2,w
  2499  0694  1D03               	btfss	3,2
  2500  0695  2E9B               	goto	l1313
  2501                           
  2502                           ;Lab3_Main.c: 49:               ch_adbyte2 = 0;
  2503  0696  01A6               	clrf	main@ch_adbyte2
  2504                           
  2505                           ;Lab3_Main.c: 50:               ch_adbyte3++;
  2506  0697  3001               	movlw	1
  2507  0698  00FA               	movwf	??_main
  2508  0699  087A               	movf	??_main,w
  2509  069A  07A7               	addwf	main@ch_adbyte3,f
  2510  069B                     l1313:	
  2511                           
  2512                           ;Lab3_Main.c: 52:         if (ch_adbyte3 == (char)255){
  2513  069B  0A27               	incf	main@ch_adbyte3,w
  2514  069C  1D03               	btfss	3,2
  2515  069D  2EA3               	goto	l1319
  2516                           
  2517                           ;Lab3_Main.c: 53:                   ch_adbyte3 = 0;
  2518  069E  01A7               	clrf	main@ch_adbyte3
  2519                           
  2520                           ;Lab3_Main.c: 54:                   ch_adbyte4++;
  2521  069F  3001               	movlw	1
  2522  06A0  00FA               	movwf	??_main
  2523  06A1  087A               	movf	??_main,w
  2524  06A2  07A1               	addwf	main@ch_adbyte4,f
  2525  06A3                     l1319:	
  2526                           
  2527                           ;Lab3_Main.c: 57:          sh_counter = 0;
  2528  06A3  01A3               	clrf	main@sh_counter
  2529  06A4  01A4               	clrf	main@sh_counter+1
  2530                           
  2531                           ;Lab3_Main.c: 58:          SPI_Read();
  2532  06A5  3185  2597  3186   	fcall	_SPI_Read
  2533                           
  2534                           ;Lab3_Main.c: 59:          SPI_Read();
  2535  06A8  3185  2597  3186   	fcall	_SPI_Read
  2536                           
  2537                           ;Lab3_Main.c: 60:          SPI_Read();
  2538  06AB  3185  2597  3186   	fcall	_SPI_Read
  2539  06AE                     l181:	
  2540  06AE  0020               	movlb	0	; select bank0
  2541  06AF  1C91               	btfss	17,1	;volatile
  2542  06B0  2EAE               	goto	l181
  2543                           
  2544                           ;Lab3_Main.c: 64:         PIR1bits.TMR2IF = 0;
  2545  06B1  1091               	bcf	17,1	;volatile
  2546  06B2  2E4C               	goto	l1283
  2547  06B3                     __end_of_main:	
  2548                           
  2549                           	psect	text1
  2550  05E6                     __ptext1:	
  2551 ;; *************** function _SPI_Init *****************
  2552 ;; Defined at:
  2553 ;;		line 7 in file "Lab3_SPI.c"
  2554 ;; Parameters:    Size  Location     Type
  2555 ;;		None
  2556 ;; Auto vars:     Size  Location     Type
  2557 ;;		None
  2558 ;; Return value:  Size  Location     Type
  2559 ;;                  1    wreg      void 
  2560 ;; Registers used:
  2561 ;;		wreg, status,2
  2562 ;; Tracked objects:
  2563 ;;		On entry : 0/0
  2564 ;;		On exit  : 0/0
  2565 ;;		Unchanged: 0/0
  2566 ;; Data sizes:     COMMON   BANK0   BANK1   BANK2   BANK3   BANK4   BANK5   BANK6   BANK7   BANK8   BANK9  BANK10  BANK1
      +1  BANK12  BANK13  BANK14  BANK15  BANK16  BANK17  BANK18  BANK19  BANK20  BANK21  BANK22  BANK23  BANK24  BANK25
  2567 ;;      Params:         0       0       0       0       0       0       0       0       0       0       0       0       
      +0       0       0       0       0       0       0       0       0       0       0       0       0       0       0
  2568 ;;      Locals:         0       0       0       0       0       0       0       0       0       0       0       0       
      +0       0       0       0       0       0       0       0       0       0       0       0       0       0       0
  2569 ;;      Temps:          0       0       0       0       0       0       0       0       0       0       0       0       
      +0       0       0       0       0       0       0       0       0       0       0       0       0       0       0
  2570 ;;      Totals:         0       0       0       0       0       0       0       0       0       0       0       0       
      +0       0       0       0       0       0       0       0       0       0       0       0       0       0       0
  2571 ;;Total ram usage:        0 bytes
  2572 ;; Hardware stack levels used:    1
  2573 ;; This function calls:
  2574 ;;		Nothing
  2575 ;; This function is called by:
  2576 ;;		_main
  2577 ;; This function uses a non-reentrant model
  2578 ;;
  2579                           
  2580                           
  2581                           ;psect for function _SPI_Init
  2582  05E6                     _SPI_Init:	
  2583                           
  2584                           ;Lab3_SPI.c: 10:     TRISC2 = 0;
  2585                           
  2586                           ;incstack = 0
  2587                           ; Regs used in _SPI_Init: [wreg+status,2]
  2588  05E6  0021               	movlb	1	; select bank1
  2589  05E7  110E               	bcf	14,2	;volatile
  2590                           
  2591                           ;Lab3_SPI.c: 11:     RC2PPS = 0x21;
  2592  05E8  3021               	movlw	33
  2593  05E9  003D               	movlb	29	; select bank29
  2594  05EA  00A2               	movwf	34	;volatile
  2595                           
  2596                           ;Lab3_SPI.c: 12:     SSPCLKPPS = 0x12;
  2597  05EB  3012               	movlw	18
  2598  05EC  003C               	movlb	28	; select bank28
  2599  05ED  00BA               	movwf	58	;volatile
  2600                           
  2601                           ;Lab3_SPI.c: 15:     TRISC3 = 1;
  2602  05EE  0021               	movlb	1	; select bank1
  2603  05EF  158E               	bsf	14,3	;volatile
  2604                           
  2605                           ;Lab3_SPI.c: 16:     ANSC3 = 0;
  2606  05F0  0023               	movlb	3	; select bank3
  2607  05F1  118E               	bcf	14,3	;volatile
  2608                           
  2609                           ;Lab3_SPI.c: 17:     SSPDATPPS = 0x13;
  2610  05F2  3013               	movlw	19
  2611  05F3  003C               	movlb	28	; select bank28
  2612  05F4  00BB               	movwf	59	;volatile
  2613                           
  2614                           ;Lab3_SPI.c: 20:     TRISC4 = 0;
  2615  05F5  0021               	movlb	1	; select bank1
  2616  05F6  120E               	bcf	14,4	;volatile
  2617                           
  2618                           ;Lab3_SPI.c: 21:     RC4PPS = 0x23;
  2619  05F7  3023               	movlw	35
  2620  05F8  003D               	movlb	29	; select bank29
  2621  05F9  00A4               	movwf	36	;volatile
  2622                           
  2623                           ;Lab3_SPI.c: 24:     TRISC7 = 0;
  2624  05FA  0021               	movlb	1	; select bank1
  2625  05FB  138E               	bcf	14,7	;volatile
  2626                           
  2627                           ;Lab3_SPI.c: 27:     SSP1STAT = 0x80;
  2628  05FC  3080               	movlw	128
  2629  05FD  0024               	movlb	4	; select bank4
  2630  05FE  0094               	movwf	20	;volatile
  2631                           
  2632                           ;Lab3_SPI.c: 30:     SSP1CON1 = 0x30;
  2633  05FF  3030               	movlw	48
  2634  0600  0095               	movwf	21	;volatile
  2635                           
  2636                           ;Lab3_SPI.c: 33:     SSP1ADD = 0x00;
  2637  0601  0192               	clrf	18	;volatile
  2638  0602  0008               	return
  2639  0603                     __end_of_SPI_Init:	
  2640                           
  2641                           	psect	text2
  2642  06B3                     __ptext2:	
  2643 ;; *************** function _SD_Init *****************
  2644 ;; Defined at:
  2645 ;;		line 11 in file "Lab3_SD.c"
  2646 ;; Parameters:    Size  Location     Type
  2647 ;;		None
  2648 ;; Auto vars:     Size  Location     Type
  2649 ;;		None
  2650 ;; Return value:  Size  Location     Type
  2651 ;;                  1    wreg      void 
  2652 ;; Registers used:
  2653 ;;		wreg, fsr0l, fsr0h, status,2, status,0, pclath, cstack
  2654 ;; Tracked objects:
  2655 ;;		On entry : 0/0
  2656 ;;		On exit  : 0/0
  2657 ;;		Unchanged: 0/0
  2658 ;; Data sizes:     COMMON   BANK0   BANK1   BANK2   BANK3   BANK4   BANK5   BANK6   BANK7   BANK8   BANK9  BANK10  BANK1
      +1  BANK12  BANK13  BANK14  BANK15  BANK16  BANK17  BANK18  BANK19  BANK20  BANK21  BANK22  BANK23  BANK24  BANK25
  2659 ;;      Params:         0       0       0       0       0       0       0       0       0       0       0       0       
      +0       0       0       0       0       0       0       0       0       0       0       0       0       0       0
  2660 ;;      Locals:         0       0       0       0       0       0       0       0       0       0       0       0       
      +0       0       0       0       0       0       0       0       0       0       0       0       0       0       0
  2661 ;;      Temps:          1       0       0       0       0       0       0       0       0       0       0       0       
      +0       0       0       0       0       0       0       0       0       0       0       0       0       0       0
  2662 ;;      Totals:         1       0       0       0       0       0       0       0       0       0       0       0       
      +0       0       0       0       0       0       0       0       0       0       0       0       0       0       0
  2663 ;;Total ram usage:        1 bytes
  2664 ;; Hardware stack levels used:    1
  2665 ;; Hardware stack levels required when called:    2
  2666 ;; This function calls:
  2667 ;;		_SD_Check40bitResponse
  2668 ;;		_SD_Check8bitResponse
  2669 ;;		_SD_Read40bitResponse
  2670 ;;		_SD_Read8bitResponse
  2671 ;;		_SD_SendCommand
  2672 ;;		_SPI_Write
  2673 ;; This function is called by:
  2674 ;;		_main
  2675 ;; This function uses a non-reentrant model
  2676 ;;
  2677                           
  2678                           
  2679                           ;psect for function _SD_Init
  2680  06B3                     _SD_Init:	
  2681                           
  2682                           ;Lab3_SD.c: 15:     { PORTCbits.RC7 = 1; SSP1CON1bits.WCOL = 0; };
  2683                           
  2684                           ;incstack = 0
  2685                           ; Regs used in _SD_Init: [wreg-fsr0h+status,2+status,0+pclath+cstack]
  2686  06B3  0020               	movlb	0	; select bank0
  2687  06B4  178E               	bsf	14,7	;volatile
  2688  06B5  0024               	movlb	4	; select bank4
  2689  06B6  1395               	bcf	21,7	;volatile
  2690                           
  2691                           ;Lab3_SD.c: 17:     SPI_Write(0xFF);
  2692  06B7  30FF               	movlw	255
  2693  06B8  3185  259E  3186   	fcall	_SPI_Write
  2694                           
  2695                           ;Lab3_SD.c: 18:     SPI_Write(0xFF);
  2696  06BB  30FF               	movlw	255
  2697  06BC  3185  259E  3186   	fcall	_SPI_Write
  2698                           
  2699                           ;Lab3_SD.c: 19:     SPI_Write(0xFF);
  2700  06BF  30FF               	movlw	255
  2701  06C0  3185  259E  3186   	fcall	_SPI_Write
  2702                           
  2703                           ;Lab3_SD.c: 20:     SPI_Write(0xFF);
  2704  06C3  30FF               	movlw	255
  2705  06C4  3185  259E  3186   	fcall	_SPI_Write
  2706                           
  2707                           ;Lab3_SD.c: 21:     SPI_Write(0xFF);
  2708  06C7  30FF               	movlw	255
  2709  06C8  3185  259E  3186   	fcall	_SPI_Write
  2710                           
  2711                           ;Lab3_SD.c: 22:     SPI_Write(0xFF);
  2712  06CB  30FF               	movlw	255
  2713  06CC  3185  259E  3186   	fcall	_SPI_Write
  2714                           
  2715                           ;Lab3_SD.c: 23:     SPI_Write(0xFF);
  2716  06CF  30FF               	movlw	255
  2717  06D0  3185  259E  3186   	fcall	_SPI_Write
  2718                           
  2719                           ;Lab3_SD.c: 24:     SPI_Write(0xFF);
  2720  06D3  30FF               	movlw	255
  2721  06D4  3185  259E  3186   	fcall	_SPI_Write
  2722                           
  2723                           ;Lab3_SD.c: 25:     SPI_Write(0xFF);
  2724  06D7  30FF               	movlw	255
  2725  06D8  3185  259E  3186   	fcall	_SPI_Write
  2726                           
  2727                           ;Lab3_SD.c: 26:     SPI_Write(0xFF);
  2728  06DB  30FF               	movlw	255
  2729  06DC  3185  259E  3186   	fcall	_SPI_Write
  2730                           
  2731                           ;Lab3_SD.c: 28:     { PORTCbits.RC7 = 0; SSP1CON1bits.WCOL = 0; };
  2732  06DF  0020               	movlb	0	; select bank0
  2733  06E0  138E               	bcf	14,7	;volatile
  2734  06E1  0024               	movlb	4	; select bank4
  2735  06E2  1395               	bcf	21,7	;volatile
  2736  06E3                     l1161:	
  2737                           
  2738                           ;Lab3_SD.c: 35:         SD_SendCommand(0, 0x00, 0x00, 0x00, 0x00);
  2739  06E3  01F1               	clrf	SD_SendCommand@ARG3
  2740  06E4  01F2               	clrf	SD_SendCommand@ARG2
  2741  06E5  01F3               	clrf	SD_SendCommand@ARG1
  2742  06E6  01F4               	clrf	SD_SendCommand@ARG0
  2743  06E7  3000               	movlw	0
  2744  06E8  3187  273F  3186   	fcall	_SD_SendCommand
  2745                           
  2746                           ;Lab3_SD.c: 36:         SD_Read8bitResponse();
  2747  06EB  3185  25BB  3186   	fcall	_SD_Read8bitResponse
  2748  06EE  0000               	nop	;# 
  2749                           
  2750                           ;Lab3_SD.c: 38:     } while (SD_Check8bitResponse(0x01) == 0);
  2751  06EF  3001               	movlw	1
  2752  06F0  3185  25A5  3186   	fcall	_SD_Check8bitResponse
  2753  06F3  3A00               	xorlw	0
  2754  06F4  1903               	skipnz
  2755  06F5  2EE3               	goto	l1161
  2756  06F6                     l1167:	
  2757                           
  2758                           ;Lab3_SD.c: 45:         SD_SendCommand(8, 0x00, 0x00, 0x01, 0xAA);
  2759  06F6  01F1               	clrf	SD_SendCommand@ARG3
  2760  06F7  01F2               	clrf	SD_SendCommand@ARG2
  2761  06F8  01F3               	clrf	SD_SendCommand@ARG1
  2762  06F9  0AF3               	incf	SD_SendCommand@ARG1,f
  2763  06FA  30AA               	movlw	170
  2764  06FB  00F9               	movwf	??_SD_Init
  2765  06FC  0879               	movf	??_SD_Init,w
  2766  06FD  00F4               	movwf	SD_SendCommand@ARG0
  2767  06FE  3008               	movlw	8
  2768  06FF  3187  273F  3186   	fcall	_SD_SendCommand
  2769                           
  2770                           ;Lab3_SD.c: 46:         SD_Read40bitResponse();
  2771  0702  3186  2603  3186   	fcall	_SD_Read40bitResponse
  2772  0705  0000               	nop	;# 
  2773                           
  2774                           ;Lab3_SD.c: 48:     } while (SD_Check40bitResponse(0x01, 0x00, 0x00, 0x01, 0xAA) == 0);
  2775  0706  01F0               	clrf	SD_Check40bitResponse@Byte3
  2776  0707  01F1               	clrf	SD_Check40bitResponse@Byte2
  2777  0708  01F2               	clrf	SD_Check40bitResponse@Byte1
  2778  0709  0AF2               	incf	SD_Check40bitResponse@Byte1,f
  2779  070A  30AA               	movlw	170
  2780  070B  00F9               	movwf	??_SD_Init
  2781  070C  0879               	movf	??_SD_Init,w
  2782  070D  00F3               	movwf	SD_Check40bitResponse@Byte0
  2783  070E  3001               	movlw	1
  2784  070F  3185  25CC  3186   	fcall	_SD_Check40bitResponse
  2785  0712  3A00               	xorlw	0
  2786  0713  1903               	skipnz
  2787  0714  2EF6               	goto	l1167
  2788  0715                     l1173:	
  2789                           
  2790                           ;Lab3_SD.c: 56:             SD_SendCommand(55, 0x00, 0x00, 0x00, 0x00);
  2791  0715  01F1               	clrf	SD_SendCommand@ARG3
  2792  0716  01F2               	clrf	SD_SendCommand@ARG2
  2793  0717  01F3               	clrf	SD_SendCommand@ARG1
  2794  0718  01F4               	clrf	SD_SendCommand@ARG0
  2795  0719  3037               	movlw	55
  2796  071A  3187  273F  3186   	fcall	_SD_SendCommand
  2797                           
  2798                           ;Lab3_SD.c: 57:             SD_Read8bitResponse();
  2799  071D  3185  25BB  3186   	fcall	_SD_Read8bitResponse
  2800  0720  0000               	nop	;# 
  2801                           
  2802                           ;Lab3_SD.c: 59:         } while (SD_Check8bitResponse(0x01) == 0);
  2803  0721  3001               	movlw	1
  2804  0722  3185  25A5  3186   	fcall	_SD_Check8bitResponse
  2805  0725  3A00               	xorlw	0
  2806  0726  1903               	skipnz
  2807  0727  2F15               	goto	l1173
  2808                           
  2809                           ;Lab3_SD.c: 66:         SD_SendCommand(41, 0x40, 0x00, 0x00, 0x00);
  2810  0728  3040               	movlw	64
  2811  0729  00F9               	movwf	??_SD_Init
  2812  072A  0879               	movf	??_SD_Init,w
  2813  072B  00F1               	movwf	SD_SendCommand@ARG3
  2814  072C  01F2               	clrf	SD_SendCommand@ARG2
  2815  072D  01F3               	clrf	SD_SendCommand@ARG1
  2816  072E  01F4               	clrf	SD_SendCommand@ARG0
  2817  072F  3029               	movlw	41
  2818  0730  3187  273F  3186   	fcall	_SD_SendCommand
  2819                           
  2820                           ;Lab3_SD.c: 67:         SD_Read8bitResponse();
  2821  0733  3185  25BB  3186   	fcall	_SD_Read8bitResponse
  2822  0736  0000               	nop	;# 
  2823                           
  2824                           ;Lab3_SD.c: 69:     } while (SD_Check8bitResponse(0x00) == 0);
  2825  0737  3000               	movlw	0
  2826  0738  3185  25A5  3186   	fcall	_SD_Check8bitResponse
  2827  073B  3A00               	xorlw	0
  2828  073C  1D03               	btfss	3,2
  2829  073D  0008               	return
  2830  073E  2F15               	goto	l1173
  2831  073F                     __end_of_SD_Init:	
  2832                           
  2833                           	psect	text3
  2834  073F                     __ptext3:	
  2835 ;; *************** function _SD_SendCommand *****************
  2836 ;; Defined at:
  2837 ;;		line 78 in file "Lab3_SD.c"
  2838 ;; Parameters:    Size  Location     Type
  2839 ;;  CMD_6bit        1    wreg     unsigned char 
  2840 ;;  ARG3            1    1[COMMON] unsigned char 
  2841 ;;  ARG2            1    2[COMMON] unsigned char 
  2842 ;;  ARG1            1    3[COMMON] unsigned char 
  2843 ;;  ARG0            1    4[COMMON] unsigned char 
  2844 ;; Auto vars:     Size  Location     Type
  2845 ;;  CMD_6bit        1    6[COMMON] unsigned char 
  2846 ;;  Checksum        1    8[COMMON] unsigned char 
  2847 ;;  ByteToSend      1    7[COMMON] unsigned char 
  2848 ;; Return value:  Size  Location     Type
  2849 ;;                  1    wreg      void 
  2850 ;; Registers used:
  2851 ;;		wreg, fsr0l, fsr0h, status,2, status,0, pclath, cstack
  2852 ;; Tracked objects:
  2853 ;;		On entry : 0/0
  2854 ;;		On exit  : 0/0
  2855 ;;		Unchanged: 0/0
  2856 ;; Data sizes:     COMMON   BANK0   BANK1   BANK2   BANK3   BANK4   BANK5   BANK6   BANK7   BANK8   BANK9  BANK10  BANK1
      +1  BANK12  BANK13  BANK14  BANK15  BANK16  BANK17  BANK18  BANK19  BANK20  BANK21  BANK22  BANK23  BANK24  BANK25
  2857 ;;      Params:         4       0       0       0       0       0       0       0       0       0       0       0       
      +0       0       0       0       0       0       0       0       0       0       0       0       0       0       0
  2858 ;;      Locals:         3       0       0       0       0       0       0       0       0       0       0       0       
      +0       0       0       0       0       0       0       0       0       0       0       0       0       0       0
  2859 ;;      Temps:          1       0       0       0       0       0       0       0       0       0       0       0       
      +0       0       0       0       0       0       0       0       0       0       0       0       0       0       0
  2860 ;;      Totals:         8       0       0       0       0       0       0       0       0       0       0       0       
      +0       0       0       0       0       0       0       0       0       0       0       0       0       0       0
  2861 ;;Total ram usage:        8 bytes
  2862 ;; Hardware stack levels used:    1
  2863 ;; Hardware stack levels required when called:    1
  2864 ;; This function calls:
  2865 ;;		_SPI_Write
  2866 ;; This function is called by:
  2867 ;;		_SD_Init
  2868 ;;		_main
  2869 ;;		_SD_WriteBlock
  2870 ;;		_SD_ReadBlock
  2871 ;; This function uses a non-reentrant model
  2872 ;;
  2873                           
  2874                           
  2875                           ;psect for function _SD_SendCommand
  2876  073F                     _SD_SendCommand:	
  2877                           
  2878                           ;incstack = 0
  2879                           ; Regs used in _SD_SendCommand: [wreg-fsr0h+status,2+status,0+pclath+cstack]
  2880                           ;SD_SendCommand@CMD_6bit stored from wreg
  2881  073F  00F6               	movwf	SD_SendCommand@CMD_6bit
  2882                           
  2883                           ;Lab3_SD.c: 81:     char Checksum = 0x00;
  2884  0740  01F8               	clrf	SD_SendCommand@Checksum
  2885                           
  2886                           ;Lab3_SD.c: 84:     ByteToSend = (CMD_6bit & 0x3F) | 0x40;
  2887  0741  0876               	movf	SD_SendCommand@CMD_6bit,w
  2888  0742  393F               	andlw	63
  2889  0743  3840               	iorlw	64
  2890  0744  00F5               	movwf	??_SD_SendCommand
  2891  0745  0875               	movf	??_SD_SendCommand,w
  2892  0746  00F7               	movwf	SD_SendCommand@ByteToSend
  2893                           
  2894                           ;Lab3_SD.c: 85:     SPI_Write(ByteToSend);
  2895  0747  0877               	movf	SD_SendCommand@ByteToSend,w
  2896  0748  3185  259E  3187   	fcall	_SPI_Write
  2897                           
  2898                           ;Lab3_SD.c: 86:     { Checksum = Checksum << 1; Checksum = Checksum ^ ByteToSend; Checks
      +                          um = CRCTable[Checksum]; };
  2899  074B  3578               	lslf	SD_SendCommand@Checksum,w
  2900  074C  00F5               	movwf	??_SD_SendCommand
  2901  074D  0875               	movf	??_SD_SendCommand,w
  2902  074E  00F8               	movwf	SD_SendCommand@Checksum
  2903  074F  0878               	movf	SD_SendCommand@Checksum,w
  2904  0750  0677               	xorwf	SD_SendCommand@ByteToSend,w
  2905  0751  00F5               	movwf	??_SD_SendCommand
  2906  0752  0875               	movf	??_SD_SendCommand,w
  2907  0753  00F8               	movwf	SD_SendCommand@Checksum
  2908  0754  0878               	movf	SD_SendCommand@Checksum,w
  2909  0755  3E00               	addlw	low (_CRCTable| (0+32768))
  2910  0756  0084               	movwf	4
  2911  0757  3088               	movlw	high (_CRCTable| (0+32768))
  2912  0758  1803               	skipnc
  2913  0759  3E01               	addlw	1
  2914  075A  0085               	movwf	5
  2915  075B  0800               	movf	0,w	;code access
  2916  075C  00F5               	movwf	??_SD_SendCommand
  2917  075D  0875               	movf	??_SD_SendCommand,w
  2918  075E  00F8               	movwf	SD_SendCommand@Checksum
  2919                           
  2920                           ;Lab3_SD.c: 89:     ByteToSend = ARG3;
  2921  075F  0871               	movf	SD_SendCommand@ARG3,w
  2922  0760  00F5               	movwf	??_SD_SendCommand
  2923  0761  0875               	movf	??_SD_SendCommand,w
  2924  0762  00F7               	movwf	SD_SendCommand@ByteToSend
  2925                           
  2926                           ;Lab3_SD.c: 90:     SPI_Write(ByteToSend);
  2927  0763  0877               	movf	SD_SendCommand@ByteToSend,w
  2928  0764  3185  259E  3187   	fcall	_SPI_Write
  2929                           
  2930                           ;Lab3_SD.c: 91:     { Checksum = Checksum << 1; Checksum = Checksum ^ ByteToSend; Checks
      +                          um = CRCTable[Checksum]; };
  2931  0767  3578               	lslf	SD_SendCommand@Checksum,w
  2932  0768  00F5               	movwf	??_SD_SendCommand
  2933  0769  0875               	movf	??_SD_SendCommand,w
  2934  076A  00F8               	movwf	SD_SendCommand@Checksum
  2935  076B  0878               	movf	SD_SendCommand@Checksum,w
  2936  076C  0677               	xorwf	SD_SendCommand@ByteToSend,w
  2937  076D  00F5               	movwf	??_SD_SendCommand
  2938  076E  0875               	movf	??_SD_SendCommand,w
  2939  076F  00F8               	movwf	SD_SendCommand@Checksum
  2940  0770  0878               	movf	SD_SendCommand@Checksum,w
  2941  0771  3E00               	addlw	low (_CRCTable| (0+32768))
  2942  0772  0084               	movwf	4
  2943  0773  3088               	movlw	high (_CRCTable| (0+32768))
  2944  0774  1803               	skipnc
  2945  0775  3E01               	addlw	1
  2946  0776  0085               	movwf	5
  2947  0777  0800               	movf	0,w	;code access
  2948  0778  00F5               	movwf	??_SD_SendCommand
  2949  0779  0875               	movf	??_SD_SendCommand,w
  2950  077A  00F8               	movwf	SD_SendCommand@Checksum
  2951                           
  2952                           ;Lab3_SD.c: 93:     ByteToSend = ARG2;
  2953  077B  0872               	movf	SD_SendCommand@ARG2,w
  2954  077C  00F5               	movwf	??_SD_SendCommand
  2955  077D  0875               	movf	??_SD_SendCommand,w
  2956  077E  00F7               	movwf	SD_SendCommand@ByteToSend
  2957                           
  2958                           ;Lab3_SD.c: 94:     SPI_Write(ByteToSend);
  2959  077F  0877               	movf	SD_SendCommand@ByteToSend,w
  2960  0780  3185  259E  3187   	fcall	_SPI_Write
  2961                           
  2962                           ;Lab3_SD.c: 95:     { Checksum = Checksum << 1; Checksum = Checksum ^ ByteToSend; Checks
      +                          um = CRCTable[Checksum]; };
  2963  0783  3578               	lslf	SD_SendCommand@Checksum,w
  2964  0784  00F5               	movwf	??_SD_SendCommand
  2965  0785  0875               	movf	??_SD_SendCommand,w
  2966  0786  00F8               	movwf	SD_SendCommand@Checksum
  2967  0787  0878               	movf	SD_SendCommand@Checksum,w
  2968  0788  0677               	xorwf	SD_SendCommand@ByteToSend,w
  2969  0789  00F5               	movwf	??_SD_SendCommand
  2970  078A  0875               	movf	??_SD_SendCommand,w
  2971  078B  00F8               	movwf	SD_SendCommand@Checksum
  2972  078C  0878               	movf	SD_SendCommand@Checksum,w
  2973  078D  3E00               	addlw	low (_CRCTable| (0+32768))
  2974  078E  0084               	movwf	4
  2975  078F  3088               	movlw	high (_CRCTable| (0+32768))
  2976  0790  1803               	skipnc
  2977  0791  3E01               	addlw	1
  2978  0792  0085               	movwf	5
  2979  0793  0800               	movf	0,w	;code access
  2980  0794  00F5               	movwf	??_SD_SendCommand
  2981  0795  0875               	movf	??_SD_SendCommand,w
  2982  0796  00F8               	movwf	SD_SendCommand@Checksum
  2983                           
  2984                           ;Lab3_SD.c: 97:     ByteToSend = ARG1;
  2985  0797  0873               	movf	SD_SendCommand@ARG1,w
  2986  0798  00F5               	movwf	??_SD_SendCommand
  2987  0799  0875               	movf	??_SD_SendCommand,w
  2988  079A  00F7               	movwf	SD_SendCommand@ByteToSend
  2989                           
  2990                           ;Lab3_SD.c: 98:     SPI_Write(ByteToSend);
  2991  079B  0877               	movf	SD_SendCommand@ByteToSend,w
  2992  079C  3185  259E  3187   	fcall	_SPI_Write
  2993                           
  2994                           ;Lab3_SD.c: 99:     { Checksum = Checksum << 1; Checksum = Checksum ^ ByteToSend; Checks
      +                          um = CRCTable[Checksum]; };
  2995  079F  3578               	lslf	SD_SendCommand@Checksum,w
  2996  07A0  00F5               	movwf	??_SD_SendCommand
  2997  07A1  0875               	movf	??_SD_SendCommand,w
  2998  07A2  00F8               	movwf	SD_SendCommand@Checksum
  2999  07A3  0878               	movf	SD_SendCommand@Checksum,w
  3000  07A4  0677               	xorwf	SD_SendCommand@ByteToSend,w
  3001  07A5  00F5               	movwf	??_SD_SendCommand
  3002  07A6  0875               	movf	??_SD_SendCommand,w
  3003  07A7  00F8               	movwf	SD_SendCommand@Checksum
  3004  07A8  0878               	movf	SD_SendCommand@Checksum,w
  3005  07A9  3E00               	addlw	low (_CRCTable| (0+32768))
  3006  07AA  0084               	movwf	4
  3007  07AB  3088               	movlw	high (_CRCTable| (0+32768))
  3008  07AC  1803               	skipnc
  3009  07AD  3E01               	addlw	1
  3010  07AE  0085               	movwf	5
  3011  07AF  0800               	movf	0,w	;code access
  3012  07B0  00F5               	movwf	??_SD_SendCommand
  3013  07B1  0875               	movf	??_SD_SendCommand,w
  3014  07B2  00F8               	movwf	SD_SendCommand@Checksum
  3015                           
  3016                           ;Lab3_SD.c: 101:     ByteToSend = ARG0;
  3017  07B3  0874               	movf	SD_SendCommand@ARG0,w
  3018  07B4  00F5               	movwf	??_SD_SendCommand
  3019  07B5  0875               	movf	??_SD_SendCommand,w
  3020  07B6  00F7               	movwf	SD_SendCommand@ByteToSend
  3021                           
  3022                           ;Lab3_SD.c: 102:     SPI_Write(ByteToSend);
  3023  07B7  0877               	movf	SD_SendCommand@ByteToSend,w
  3024  07B8  3185  259E  3187   	fcall	_SPI_Write
  3025                           
  3026                           ;Lab3_SD.c: 103:     { Checksum = Checksum << 1; Checksum = Checksum ^ ByteToSend; Check
      +                          sum = CRCTable[Checksum]; };
  3027  07BB  3578               	lslf	SD_SendCommand@Checksum,w
  3028  07BC  00F5               	movwf	??_SD_SendCommand
  3029  07BD  0875               	movf	??_SD_SendCommand,w
  3030  07BE  00F8               	movwf	SD_SendCommand@Checksum
  3031  07BF  0878               	movf	SD_SendCommand@Checksum,w
  3032  07C0  0677               	xorwf	SD_SendCommand@ByteToSend,w
  3033  07C1  00F5               	movwf	??_SD_SendCommand
  3034  07C2  0875               	movf	??_SD_SendCommand,w
  3035  07C3  00F8               	movwf	SD_SendCommand@Checksum
  3036  07C4  0878               	movf	SD_SendCommand@Checksum,w
  3037  07C5  3E00               	addlw	low (_CRCTable| (0+32768))
  3038  07C6  0084               	movwf	4
  3039  07C7  3088               	movlw	high (_CRCTable| (0+32768))
  3040  07C8  1803               	skipnc
  3041  07C9  3E01               	addlw	1
  3042  07CA  0085               	movwf	5
  3043  07CB  0800               	movf	0,w	;code access
  3044  07CC  00F5               	movwf	??_SD_SendCommand
  3045  07CD  0875               	movf	??_SD_SendCommand,w
  3046  07CE  00F8               	movwf	SD_SendCommand@Checksum
  3047                           
  3048                           ;Lab3_SD.c: 106:     ByteToSend = (Checksum << 1) | 0x01;
  3049  07CF  1403               	setc
  3050  07D0  0D78               	rlf	SD_SendCommand@Checksum,w
  3051  07D1  00F5               	movwf	??_SD_SendCommand
  3052  07D2  0875               	movf	??_SD_SendCommand,w
  3053  07D3  00F7               	movwf	SD_SendCommand@ByteToSend
  3054                           
  3055                           ;Lab3_SD.c: 107:     SPI_Write(ByteToSend);
  3056  07D4  0877               	movf	SD_SendCommand@ByteToSend,w
  3057  07D5  3185  259E         	fcall	_SPI_Write
  3058  07D7  0008               	return
  3059  07D8                     __end_of_SD_SendCommand:	
  3060                           
  3061                           	psect	text4
  3062  059E                     __ptext4:	
  3063 ;; *************** function _SPI_Write *****************
  3064 ;; Defined at:
  3065 ;;		line 39 in file "Lab3_SPI.c"
  3066 ;; Parameters:    Size  Location     Type
  3067 ;;  Data_8bit       1    wreg     unsigned char 
  3068 ;; Auto vars:     Size  Location     Type
  3069 ;;  Data_8bit       1    0[COMMON] unsigned char 
  3070 ;; Return value:  Size  Location     Type
  3071 ;;                  1    wreg      void 
  3072 ;; Registers used:
  3073 ;;		wreg
  3074 ;; Tracked objects:
  3075 ;;		On entry : 0/0
  3076 ;;		On exit  : 0/0
  3077 ;;		Unchanged: 0/0
  3078 ;; Data sizes:     COMMON   BANK0   BANK1   BANK2   BANK3   BANK4   BANK5   BANK6   BANK7   BANK8   BANK9  BANK10  BANK1
      +1  BANK12  BANK13  BANK14  BANK15  BANK16  BANK17  BANK18  BANK19  BANK20  BANK21  BANK22  BANK23  BANK24  BANK25
  3079 ;;      Params:         0       0       0       0       0       0       0       0       0       0       0       0       
      +0       0       0       0       0       0       0       0       0       0       0       0       0       0       0
  3080 ;;      Locals:         1       0       0       0       0       0       0       0       0       0       0       0       
      +0       0       0       0       0       0       0       0       0       0       0       0       0       0       0
  3081 ;;      Temps:          0       0       0       0       0       0       0       0       0       0       0       0       
      +0       0       0       0       0       0       0       0       0       0       0       0       0       0       0
  3082 ;;      Totals:         1       0       0       0       0       0       0       0       0       0       0       0       
      +0       0       0       0       0       0       0       0       0       0       0       0       0       0       0
  3083 ;;Total ram usage:        1 bytes
  3084 ;; Hardware stack levels used:    1
  3085 ;; This function calls:
  3086 ;;		Nothing
  3087 ;; This function is called by:
  3088 ;;		_SD_Init
  3089 ;;		_SD_SendCommand
  3090 ;;		_SD_WriteBlock
  3091 ;; This function uses a non-reentrant model
  3092 ;;
  3093                           
  3094                           
  3095                           ;psect for function _SPI_Write
  3096  059E                     _SPI_Write:	
  3097                           
  3098                           ;incstack = 0
  3099                           ; Regs used in _SPI_Write: [wreg]
  3100                           ;SPI_Write@Data_8bit stored from wreg
  3101  059E  00F0               	movwf	SPI_Write@Data_8bit
  3102                           
  3103                           ;Lab3_SPI.c: 39: void SPI_Write(char Data_8bit);Lab3_SPI.c: 40: {;Lab3_SPI.c: 41:     SS
      +                          P1BUF = Data_8bit;
  3104  059F  0870               	movf	SPI_Write@Data_8bit,w
  3105  05A0  0024               	movlb	4	; select bank4
  3106  05A1  0091               	movwf	17	;volatile
  3107  05A2                     l114:	
  3108                           ;Lab3_SPI.c: 42:     while(SSP1STATbits.BF == 0);
  3109                           
  3110  05A2  1814               	btfsc	20,0	;volatile
  3111  05A3  0008               	return
  3112  05A4  2DA2               	goto	l114
  3113  05A5                     __end_of_SPI_Write:	
  3114                           
  3115                           	psect	text5
  3116  05BB                     __ptext5:	
  3117 ;; *************** function _SD_Read8bitResponse *****************
  3118 ;; Defined at:
  3119 ;;		line 114 in file "Lab3_SD.c"
  3120 ;; Parameters:    Size  Location     Type
  3121 ;;		None
  3122 ;; Auto vars:     Size  Location     Type
  3123 ;;  readMessage     1    1[COMMON] unsigned char 
  3124 ;; Return value:  Size  Location     Type
  3125 ;;                  1    wreg      void 
  3126 ;; Registers used:
  3127 ;;		wreg, status,2, status,0, pclath, cstack
  3128 ;; Tracked objects:
  3129 ;;		On entry : 0/0
  3130 ;;		On exit  : 0/0
  3131 ;;		Unchanged: 0/0
  3132 ;; Data sizes:     COMMON   BANK0   BANK1   BANK2   BANK3   BANK4   BANK5   BANK6   BANK7   BANK8   BANK9  BANK10  BANK1
      +1  BANK12  BANK13  BANK14  BANK15  BANK16  BANK17  BANK18  BANK19  BANK20  BANK21  BANK22  BANK23  BANK24  BANK25
  3133 ;;      Params:         0       0       0       0       0       0       0       0       0       0       0       0       
      +0       0       0       0       0       0       0       0       0       0       0       0       0       0       0
  3134 ;;      Locals:         1       0       0       0       0       0       0       0       0       0       0       0       
      +0       0       0       0       0       0       0       0       0       0       0       0       0       0       0
  3135 ;;      Temps:          1       0       0       0       0       0       0       0       0       0       0       0       
      +0       0       0       0       0       0       0       0       0       0       0       0       0       0       0
  3136 ;;      Totals:         2       0       0       0       0       0       0       0       0       0       0       0       
      +0       0       0       0       0       0       0       0       0       0       0       0       0       0       0
  3137 ;;Total ram usage:        2 bytes
  3138 ;; Hardware stack levels used:    1
  3139 ;; Hardware stack levels required when called:    1
  3140 ;; This function calls:
  3141 ;;		_SPI_Read
  3142 ;; This function is called by:
  3143 ;;		_SD_Init
  3144 ;;		_main
  3145 ;;		_SD_WriteBlock
  3146 ;;		_SD_ReadBlock
  3147 ;; This function uses a non-reentrant model
  3148 ;;
  3149                           
  3150                           
  3151                           ;psect for function _SD_Read8bitResponse
  3152  05BB                     _SD_Read8bitResponse:	
  3153  05BB                     l1087:	
  3154                           ;incstack = 0
  3155                           ; Regs used in _SD_Read8bitResponse: [wreg+status,2+status,0+pclath+cstack]
  3156                           
  3157  05BB  3185  2597  3185   	fcall	_SPI_Read
  3158  05BE  00F0               	movwf	??_SD_Read8bitResponse
  3159  05BF  0870               	movf	??_SD_Read8bitResponse,w
  3160  05C0  00F1               	movwf	SD_Read8bitResponse@readMessage
  3161  05C1  0A71               	incf	SD_Read8bitResponse@readMessage,w
  3162  05C2  1903               	btfsc	3,2
  3163  05C3  2DBB               	goto	l1087
  3164                           
  3165                           ;Lab3_SD.c: 124:     GLBL_Resp8 = readMessage;
  3166  05C4  0871               	movf	SD_Read8bitResponse@readMessage,w
  3167  05C5  00F0               	movwf	??_SD_Read8bitResponse
  3168  05C6  0870               	movf	??_SD_Read8bitResponse,w
  3169  05C7  0020               	movlb	0	; select bank0
  3170  05C8  00AD               	movwf	_GLBL_Resp8
  3171                           
  3172                           ;Lab3_SD.c: 127:     SPI_Read();
  3173  05C9  3185  2597         	fcall	_SPI_Read
  3174  05CB  0008               	return
  3175  05CC                     __end_of_SD_Read8bitResponse:	
  3176                           
  3177                           	psect	text6
  3178  0603                     __ptext6:	
  3179 ;; *************** function _SD_Read40bitResponse *****************
  3180 ;; Defined at:
  3181 ;;		line 145 in file "Lab3_SD.c"
  3182 ;; Parameters:    Size  Location     Type
  3183 ;;		None
  3184 ;; Auto vars:     Size  Location     Type
  3185 ;;  readMessage     1    1[COMMON] unsigned char 
  3186 ;; Return value:  Size  Location     Type
  3187 ;;                  1    wreg      void 
  3188 ;; Registers used:
  3189 ;;		wreg, status,2, status,0, pclath, cstack
  3190 ;; Tracked objects:
  3191 ;;		On entry : 0/0
  3192 ;;		On exit  : 0/0
  3193 ;;		Unchanged: 0/0
  3194 ;; Data sizes:     COMMON   BANK0   BANK1   BANK2   BANK3   BANK4   BANK5   BANK6   BANK7   BANK8   BANK9  BANK10  BANK1
      +1  BANK12  BANK13  BANK14  BANK15  BANK16  BANK17  BANK18  BANK19  BANK20  BANK21  BANK22  BANK23  BANK24  BANK25
  3195 ;;      Params:         0       0       0       0       0       0       0       0       0       0       0       0       
      +0       0       0       0       0       0       0       0       0       0       0       0       0       0       0
  3196 ;;      Locals:         1       0       0       0       0       0       0       0       0       0       0       0       
      +0       0       0       0       0       0       0       0       0       0       0       0       0       0       0
  3197 ;;      Temps:          1       0       0       0       0       0       0       0       0       0       0       0       
      +0       0       0       0       0       0       0       0       0       0       0       0       0       0       0
  3198 ;;      Totals:         2       0       0       0       0       0       0       0       0       0       0       0       
      +0       0       0       0       0       0       0       0       0       0       0       0       0       0       0
  3199 ;;Total ram usage:        2 bytes
  3200 ;; Hardware stack levels used:    1
  3201 ;; Hardware stack levels required when called:    1
  3202 ;; This function calls:
  3203 ;;		_SPI_Read
  3204 ;; This function is called by:
  3205 ;;		_SD_Init
  3206 ;; This function uses a non-reentrant model
  3207 ;;
  3208                           
  3209                           
  3210                           ;psect for function _SD_Read40bitResponse
  3211  0603                     _SD_Read40bitResponse:	
  3212  0603                     l1109:	
  3213                           ;incstack = 0
  3214                           ; Regs used in _SD_Read40bitResponse: [wreg+status,2+status,0+pclath+cstack]
  3215                           
  3216  0603  3185  2597  3186   	fcall	_SPI_Read
  3217  0606  00F0               	movwf	??_SD_Read40bitResponse
  3218  0607  0870               	movf	??_SD_Read40bitResponse,w
  3219  0608  00F1               	movwf	SD_Read40bitResponse@readMessage
  3220  0609  0A71               	incf	SD_Read40bitResponse@readMessage,w
  3221  060A  1903               	btfsc	3,2
  3222  060B  2E03               	goto	l1109
  3223                           
  3224                           ;Lab3_SD.c: 155:     GLBL_Resp40[0] = readMessage;
  3225  060C  0871               	movf	SD_Read40bitResponse@readMessage,w
  3226  060D  00F0               	movwf	??_SD_Read40bitResponse
  3227  060E  0870               	movf	??_SD_Read40bitResponse,w
  3228  060F  0020               	movlb	0	; select bank0
  3229  0610  00A8               	movwf	_GLBL_Resp40
  3230                           
  3231                           ;Lab3_SD.c: 156:     GLBL_Resp40[1] = SPI_Read();
  3232  0611  3185  2597  3186   	fcall	_SPI_Read
  3233  0614  00F0               	movwf	??_SD_Read40bitResponse
  3234  0615  0870               	movf	??_SD_Read40bitResponse,w
  3235  0616  0020               	movlb	0	; select bank0
  3236  0617  00A9               	movwf	_GLBL_Resp40+1
  3237                           
  3238                           ;Lab3_SD.c: 157:     GLBL_Resp40[2] = SPI_Read();
  3239  0618  3185  2597  3186   	fcall	_SPI_Read
  3240  061B  00F0               	movwf	??_SD_Read40bitResponse
  3241  061C  0870               	movf	??_SD_Read40bitResponse,w
  3242  061D  0020               	movlb	0	; select bank0
  3243  061E  00AA               	movwf	_GLBL_Resp40+2
  3244                           
  3245                           ;Lab3_SD.c: 158:     GLBL_Resp40[3] = SPI_Read();
  3246  061F  3185  2597  3186   	fcall	_SPI_Read
  3247  0622  00F0               	movwf	??_SD_Read40bitResponse
  3248  0623  0870               	movf	??_SD_Read40bitResponse,w
  3249  0624  0020               	movlb	0	; select bank0
  3250  0625  00AB               	movwf	_GLBL_Resp40+3
  3251                           
  3252                           ;Lab3_SD.c: 159:     GLBL_Resp40[4] = SPI_Read();
  3253  0626  3185  2597  3186   	fcall	_SPI_Read
  3254  0629  00F0               	movwf	??_SD_Read40bitResponse
  3255  062A  0870               	movf	??_SD_Read40bitResponse,w
  3256  062B  0020               	movlb	0	; select bank0
  3257  062C  00AC               	movwf	_GLBL_Resp40+4
  3258                           
  3259                           ;Lab3_SD.c: 162:     SPI_Read();
  3260  062D  3185  2597         	fcall	_SPI_Read
  3261  062F  0008               	return
  3262  0630                     __end_of_SD_Read40bitResponse:	
  3263                           
  3264                           	psect	text7
  3265  0597                     __ptext7:	
  3266 ;; *************** function _SPI_Read *****************
  3267 ;; Defined at:
  3268 ;;		line 48 in file "Lab3_SPI.c"
  3269 ;; Parameters:    Size  Location     Type
  3270 ;;		None
  3271 ;; Auto vars:     Size  Location     Type
  3272 ;;		None
  3273 ;; Return value:  Size  Location     Type
  3274 ;;                  1    wreg      unsigned char 
  3275 ;; Registers used:
  3276 ;;		wreg
  3277 ;; Tracked objects:
  3278 ;;		On entry : 0/0
  3279 ;;		On exit  : 0/0
  3280 ;;		Unchanged: 0/0
  3281 ;; Data sizes:     COMMON   BANK0   BANK1   BANK2   BANK3   BANK4   BANK5   BANK6   BANK7   BANK8   BANK9  BANK10  BANK1
      +1  BANK12  BANK13  BANK14  BANK15  BANK16  BANK17  BANK18  BANK19  BANK20  BANK21  BANK22  BANK23  BANK24  BANK25
  3282 ;;      Params:         0       0       0       0       0       0       0       0       0       0       0       0       
      +0       0       0       0       0       0       0       0       0       0       0       0       0       0       0
  3283 ;;      Locals:         0       0       0       0       0       0       0       0       0       0       0       0       
      +0       0       0       0       0       0       0       0       0       0       0       0       0       0       0
  3284 ;;      Temps:          0       0       0       0       0       0       0       0       0       0       0       0       
      +0       0       0       0       0       0       0       0       0       0       0       0       0       0       0
  3285 ;;      Totals:         0       0       0       0       0       0       0       0       0       0       0       0       
      +0       0       0       0       0       0       0       0       0       0       0       0       0       0       0
  3286 ;;Total ram usage:        0 bytes
  3287 ;; Hardware stack levels used:    1
  3288 ;; This function calls:
  3289 ;;		Nothing
  3290 ;; This function is called by:
  3291 ;;		_SD_Read8bitResponse
  3292 ;;		_SD_Read40bitResponse
  3293 ;;		_main
  3294 ;;		_SD_ReadBlock
  3295 ;; This function uses a non-reentrant model
  3296 ;;
  3297                           
  3298                           
  3299                           ;psect for function _SPI_Read
  3300  0597                     _SPI_Read:	
  3301                           
  3302                           ;Lab3_SPI.c: 50:     SSP1BUF = 0xFF;
  3303                           
  3304                           ;incstack = 0
  3305                           ; Regs used in _SPI_Read: [wreg]
  3306  0597  30FF               	movlw	255
  3307  0598  0024               	movlb	4	; select bank4
  3308  0599  0091               	movwf	17	;volatile
  3309  059A                     l120:	
  3310                           ;Lab3_SPI.c: 51:     while(SSP1STATbits.BF == 0);
  3311                           
  3312  059A  1C14               	btfss	20,0	;volatile
  3313  059B  2D9A               	goto	l120
  3314                           
  3315                           ;Lab3_SPI.c: 52:     return SSP1BUF;
  3316  059C  0811               	movf	17,w	;volatile
  3317  059D  0008               	return
  3318  059E                     __end_of_SPI_Read:	
  3319                           
  3320                           	psect	text8
  3321  05A5                     __ptext8:	
  3322 ;; *************** function _SD_Check8bitResponse *****************
  3323 ;; Defined at:
  3324 ;;		line 135 in file "Lab3_SD.c"
  3325 ;; Parameters:    Size  Location     Type
  3326 ;;  Byte            1    wreg     unsigned char 
  3327 ;; Auto vars:     Size  Location     Type
  3328 ;;  Byte            1    0[COMMON] unsigned char 
  3329 ;;  match           1    1[COMMON] _Bool 
  3330 ;; Return value:  Size  Location     Type
  3331 ;;                  1    wreg      _Bool 
  3332 ;; Registers used:
  3333 ;;		wreg, status,2
  3334 ;; Tracked objects:
  3335 ;;		On entry : 0/0
  3336 ;;		On exit  : 0/0
  3337 ;;		Unchanged: 0/0
  3338 ;; Data sizes:     COMMON   BANK0   BANK1   BANK2   BANK3   BANK4   BANK5   BANK6   BANK7   BANK8   BANK9  BANK10  BANK1
      +1  BANK12  BANK13  BANK14  BANK15  BANK16  BANK17  BANK18  BANK19  BANK20  BANK21  BANK22  BANK23  BANK24  BANK25
  3339 ;;      Params:         0       0       0       0       0       0       0       0       0       0       0       0       
      +0       0       0       0       0       0       0       0       0       0       0       0       0       0       0
  3340 ;;      Locals:         2       0       0       0       0       0       0       0       0       0       0       0       
      +0       0       0       0       0       0       0       0       0       0       0       0       0       0       0
  3341 ;;      Temps:          0       0       0       0       0       0       0       0       0       0       0       0       
      +0       0       0       0       0       0       0       0       0       0       0       0       0       0       0
  3342 ;;      Totals:         2       0       0       0       0       0       0       0       0       0       0       0       
      +0       0       0       0       0       0       0       0       0       0       0       0       0       0       0
  3343 ;;Total ram usage:        2 bytes
  3344 ;; Hardware stack levels used:    1
  3345 ;; This function calls:
  3346 ;;		Nothing
  3347 ;; This function is called by:
  3348 ;;		_SD_Init
  3349 ;;		_SD_WriteBlock
  3350 ;;		_SD_ReadBlock
  3351 ;; This function uses a non-reentrant model
  3352 ;;
  3353                           
  3354                           
  3355                           ;psect for function _SD_Check8bitResponse
  3356  05A5                     _SD_Check8bitResponse:	
  3357                           
  3358                           ;incstack = 0
  3359                           ; Regs used in _SD_Check8bitResponse: [wreg+status,2]
  3360                           ;SD_Check8bitResponse@Byte stored from wreg
  3361  05A5  00F0               	movwf	SD_Check8bitResponse@Byte
  3362                           
  3363                           ;Lab3_SD.c: 135: _Bool SD_Check8bitResponse(char Byte);Lab3_SD.c: 136: {;Lab3_SD.c: 137:
      +                               _Bool match = 1;
  3364  05A6  01F1               	clrf	SD_Check8bitResponse@match
  3365  05A7  0AF1               	incf	SD_Check8bitResponse@match,f
  3366                           
  3367                           ;Lab3_SD.c: 138:     if (Byte != GLBL_Resp8) match = 0;
  3368  05A8  0870               	movf	SD_Check8bitResponse@Byte,w
  3369  05A9  0020               	movlb	0	; select bank0
  3370  05AA  062D               	xorwf	_GLBL_Resp8,w
  3371  05AB  1D03               	btfss	3,2
  3372  05AC  01F1               	clrf	SD_Check8bitResponse@match
  3373                           
  3374                           ;Lab3_SD.c: 139:     return match;
  3375  05AD  0871               	movf	SD_Check8bitResponse@match,w
  3376  05AE  0008               	return
  3377  05AF                     __end_of_SD_Check8bitResponse:	
  3378                           
  3379                           	psect	text9
  3380  05CC                     __ptext9:	
  3381 ;; *************** function _SD_Check40bitResponse *****************
  3382 ;; Defined at:
  3383 ;;		line 171 in file "Lab3_SD.c"
  3384 ;; Parameters:    Size  Location     Type
  3385 ;;  Byte4           1    wreg     unsigned char 
  3386 ;;  Byte3           1    0[COMMON] unsigned char 
  3387 ;;  Byte2           1    1[COMMON] unsigned char 
  3388 ;;  Byte1           1    2[COMMON] unsigned char 
  3389 ;;  Byte0           1    3[COMMON] unsigned char 
  3390 ;; Auto vars:     Size  Location     Type
  3391 ;;  Byte4           1    4[COMMON] unsigned char 
  3392 ;;  match           1    5[COMMON] _Bool 
  3393 ;; Return value:  Size  Location     Type
  3394 ;;                  1    wreg      _Bool 
  3395 ;; Registers used:
  3396 ;;		wreg, status,2
  3397 ;; Tracked objects:
  3398 ;;		On entry : 0/0
  3399 ;;		On exit  : 0/0
  3400 ;;		Unchanged: 0/0
  3401 ;; Data sizes:     COMMON   BANK0   BANK1   BANK2   BANK3   BANK4   BANK5   BANK6   BANK7   BANK8   BANK9  BANK10  BANK1
      +1  BANK12  BANK13  BANK14  BANK15  BANK16  BANK17  BANK18  BANK19  BANK20  BANK21  BANK22  BANK23  BANK24  BANK25
  3402 ;;      Params:         4       0       0       0       0       0       0       0       0       0       0       0       
      +0       0       0       0       0       0       0       0       0       0       0       0       0       0       0
  3403 ;;      Locals:         2       0       0       0       0       0       0       0       0       0       0       0       
      +0       0       0       0       0       0       0       0       0       0       0       0       0       0       0
  3404 ;;      Temps:          0       0       0       0       0       0       0       0       0       0       0       0       
      +0       0       0       0       0       0       0       0       0       0       0       0       0       0       0
  3405 ;;      Totals:         6       0       0       0       0       0       0       0       0       0       0       0       
      +0       0       0       0       0       0       0       0       0       0       0       0       0       0       0
  3406 ;;Total ram usage:        6 bytes
  3407 ;; Hardware stack levels used:    1
  3408 ;; This function calls:
  3409 ;;		Nothing
  3410 ;; This function is called by:
  3411 ;;		_SD_Init
  3412 ;; This function uses a non-reentrant model
  3413 ;;
  3414                           
  3415                           
  3416                           ;psect for function _SD_Check40bitResponse
  3417  05CC                     _SD_Check40bitResponse:	
  3418                           
  3419                           ;incstack = 0
  3420                           ; Regs used in _SD_Check40bitResponse: [wreg+status,2]
  3421                           ;SD_Check40bitResponse@Byte4 stored from wreg
  3422  05CC  00F4               	movwf	SD_Check40bitResponse@Byte4
  3423                           
  3424                           ;Lab3_SD.c: 171: _Bool SD_Check40bitResponse(char Byte4, char Byte3, char Byte2, char By
      +                          te1, char Byte0);Lab3_SD.c: 172: {;Lab3_SD.c: 173:     _Bool match = 1;
  3425  05CD  01F5               	clrf	SD_Check40bitResponse@match
  3426  05CE  0AF5               	incf	SD_Check40bitResponse@match,f
  3427                           
  3428                           ;Lab3_SD.c: 174:     if (Byte4 != GLBL_Resp40[0]) match = 0;
  3429  05CF  0020               	movlb	0	; select bank0
  3430  05D0  0828               	movf	_GLBL_Resp40,w
  3431  05D1  0674               	xorwf	SD_Check40bitResponse@Byte4,w
  3432  05D2  1D03               	btfss	3,2
  3433  05D3  01F5               	clrf	SD_Check40bitResponse@match
  3434                           
  3435                           ;Lab3_SD.c: 175:     if (Byte3 != GLBL_Resp40[1]) match = 0;
  3436  05D4  0829               	movf	_GLBL_Resp40+1,w
  3437  05D5  0670               	xorwf	SD_Check40bitResponse@Byte3,w
  3438  05D6  1D03               	btfss	3,2
  3439  05D7  01F5               	clrf	SD_Check40bitResponse@match
  3440                           
  3441                           ;Lab3_SD.c: 176:     if (Byte2 != GLBL_Resp40[2]) match = 0;
  3442  05D8  082A               	movf	_GLBL_Resp40+2,w
  3443  05D9  0671               	xorwf	SD_Check40bitResponse@Byte2,w
  3444  05DA  1D03               	btfss	3,2
  3445  05DB  01F5               	clrf	SD_Check40bitResponse@match
  3446                           
  3447                           ;Lab3_SD.c: 177:     if (Byte1 != GLBL_Resp40[3]) match = 0;
  3448  05DC  082B               	movf	_GLBL_Resp40+3,w
  3449  05DD  0672               	xorwf	SD_Check40bitResponse@Byte1,w
  3450  05DE  1D03               	btfss	3,2
  3451  05DF  01F5               	clrf	SD_Check40bitResponse@match
  3452                           
  3453                           ;Lab3_SD.c: 178:     if (Byte0 != GLBL_Resp40[4]) match = 0;
  3454  05E0  082C               	movf	_GLBL_Resp40+4,w
  3455  05E1  0673               	xorwf	SD_Check40bitResponse@Byte0,w
  3456  05E2  1D03               	btfss	3,2
  3457  05E3  01F5               	clrf	SD_Check40bitResponse@match
  3458                           
  3459                           ;Lab3_SD.c: 179:     return match;
  3460  05E4  0875               	movf	SD_Check40bitResponse@match,w
  3461  05E5  0008               	return
  3462  05E6                     __end_of_SD_Check40bitResponse:	
  3463                           
  3464                           	psect	text10
  3465  0590                     __ptext10:	
  3466 ;; *************** function _Lab3_DAQ *****************
  3467 ;; Defined at:
  3468 ;;		line 70 in file "Lab3_Main.c"
  3469 ;; Parameters:    Size  Location     Type
  3470 ;;  writevalue      1    wreg     unsigned char 
  3471 ;; Auto vars:     Size  Location     Type
  3472 ;;  writevalue      1    0[COMMON] unsigned char 
  3473 ;; Return value:  Size  Location     Type
  3474 ;;                  1    wreg      void 
  3475 ;; Registers used:
  3476 ;;		wreg, status,2
  3477 ;; Tracked objects:
  3478 ;;		On entry : 0/0
  3479 ;;		On exit  : 0/0
  3480 ;;		Unchanged: 0/0
  3481 ;; Data sizes:     COMMON   BANK0   BANK1   BANK2   BANK3   BANK4   BANK5   BANK6   BANK7   BANK8   BANK9  BANK10  BANK1
      +1  BANK12  BANK13  BANK14  BANK15  BANK16  BANK17  BANK18  BANK19  BANK20  BANK21  BANK22  BANK23  BANK24  BANK25
  3482 ;;      Params:         0       0       0       0       0       0       0       0       0       0       0       0       
      +0       0       0       0       0       0       0       0       0       0       0       0       0       0       0
  3483 ;;      Locals:         1       0       0       0       0       0       0       0       0       0       0       0       
      +0       0       0       0       0       0       0       0       0       0       0       0       0       0       0
  3484 ;;      Temps:          0       0       0       0       0       0       0       0       0       0       0       0       
      +0       0       0       0       0       0       0       0       0       0       0       0       0       0       0
  3485 ;;      Totals:         1       0       0       0       0       0       0       0       0       0       0       0       
      +0       0       0       0       0       0       0       0       0       0       0       0       0       0       0
  3486 ;;Total ram usage:        1 bytes
  3487 ;; Hardware stack levels used:    1
  3488 ;; This function calls:
  3489 ;;		Nothing
  3490 ;; This function is called by:
  3491 ;;		_main
  3492 ;; This function uses a non-reentrant model
  3493 ;;
  3494                           
  3495                           
  3496                           ;psect for function _Lab3_DAQ
  3497  0590                     _Lab3_DAQ:	
  3498                           
  3499                           ;incstack = 0
  3500                           ; Regs used in _Lab3_DAQ: [wreg+status,2]
  3501                           ;Lab3_DAQ@writevalue stored from wreg
  3502  0590  00F0               	movwf	Lab3_DAQ@writevalue
  3503                           
  3504                           ;Lab3_Main.c: 71:    DAC1REFH = writevalue;
  3505  0591  0870               	movf	Lab3_DAQ@writevalue,w
  3506  0592  002B               	movlb	11	; select bank11
  3507  0593  0090               	movwf	16	;volatile
  3508                           
  3509                           ;Lab3_Main.c: 72:    DAC1REFL = 0;
  3510  0594  018F               	clrf	15	;volatile
  3511                           
  3512                           ;Lab3_Main.c: 73:    DAC1LD = 1;
  3513  0595  140D               	bsf	13,0	;volatile
  3514  0596  0008               	return
  3515  0597                     __end_of_Lab3_DAQ:	
  3516  007E                     btemp	set	126	;btemp
  3517  007E                     wtemp0	set	126


Data Sizes:
    Strings     0
    Constant    256
    Data        6
    BSS         0
    Persistent  32
    Stack       0

Auto Spaces:
    Space          Size  Autos    Used
    COMMON           14     14      14
    BANK0            80      8      14
    BANK1            80      0       0
    BANK2            80      0       0
    BANK3            80      0       0
    BANK4            80      0       0
    BANK5            80      0       0
    BANK6            16      0       0
    BANK7             0      0       0
    BANK8             0      0       0
    BANK9             0      0       0
    BANK10            0      0       0
    BANK11            0      0       0
    BANK12            0      0       0
    BANK13           80      0       0
    BANK14           80      0       0
    BANK15           80      0       0
    BANK16           80      0       0
    BANK17           80      0       0
    BANK18           80      0       0
    BANK19            0      0       0
    BANK20            0      0       0
    BANK21            0      0       0
    BANK22            0      0       0
    BANK23            0      0       0
    BANK24            0      0       0
    BANK25            0      0       0

Pointer List with Targets:

    None.

Critical Paths under _main in COMMON

    _main->_SD_Init
    _SD_Init->_SD_SendCommand
    _SD_SendCommand->_SPI_Write

Critical Paths under _main in BANK0

    None.

Critical Paths under _main in BANK1

    None.

Critical Paths under _main in BANK2

    None.

Critical Paths under _main in BANK3

    None.

Critical Paths under _main in BANK4

    None.

Critical Paths under _main in BANK5

    None.

Critical Paths under _main in BANK6

    None.

Critical Paths under _main in BANK7

    None.

Critical Paths under _main in BANK8

    None.

Critical Paths under _main in BANK9

    None.

Critical Paths under _main in BANK10

    None.

Critical Paths under _main in BANK11

    None.

Critical Paths under _main in BANK12

    None.

Critical Paths under _main in BANK13

    None.

Critical Paths under _main in BANK14

    None.

Critical Paths under _main in BANK15

    None.

Critical Paths under _main in BANK16

    None.

Critical Paths under _main in BANK17

    None.

Critical Paths under _main in BANK18

    None.

Critical Paths under _main in BANK19

    None.

Critical Paths under _main in BANK20

    None.

Critical Paths under _main in BANK21

    None.

Critical Paths under _main in BANK22

    None.

Critical Paths under _main in BANK23

    None.

Critical Paths under _main in BANK24

    None.

Critical Paths under _main in BANK25

    None.

Call Graph Tables:

 ---------------------------------------------------------------------------------
 (Depth) Function   	        Calls       Base Space   Used Autos Params    Refs
 ---------------------------------------------------------------------------------
 (0) _main                                                12    12      0    6683
                                             10 COMMON     4     4      0
                                              0 BANK0      8     8      0
                           _Lab3_DAQ
                            _SD_Init
                _SD_Read8bitResponse
                     _SD_SendCommand
                           _SPI_Init
                           _SPI_Read
 ---------------------------------------------------------------------------------
 (1) _SPI_Init                                             0     0      0       0
 ---------------------------------------------------------------------------------
 (1) _SD_Init                                              1     1      0    3479
                                              9 COMMON     1     1      0
              _SD_Check40bitResponse
               _SD_Check8bitResponse
               _SD_Read40bitResponse
                _SD_Read8bitResponse
                     _SD_SendCommand
                          _SPI_Write
 ---------------------------------------------------------------------------------
 (1) _SD_SendCommand                                       8     4      4    2877
                                              1 COMMON     8     4      4
                          _SPI_Write
 ---------------------------------------------------------------------------------
 (2) _SPI_Write                                            1     1      0      22
                                              0 COMMON     1     1      0
 ---------------------------------------------------------------------------------
 (1) _SD_Read8bitResponse                                  2     2      0      46
                                              0 COMMON     2     2      0
                           _SPI_Read
 ---------------------------------------------------------------------------------
 (2) _SD_Read40bitResponse                                 2     2      0      46
                                              0 COMMON     2     2      0
                           _SPI_Read
 ---------------------------------------------------------------------------------
 (1) _SPI_Read                                             0     0      0       0
 ---------------------------------------------------------------------------------
 (2) _SD_Check8bitResponse                                 2     2      0      46
                                              0 COMMON     2     2      0
 ---------------------------------------------------------------------------------
 (2) _SD_Check40bitResponse                                6     2      4     442
                                              0 COMMON     6     2      4
 ---------------------------------------------------------------------------------
 (1) _Lab3_DAQ                                             1     1      0      22
                                              0 COMMON     1     1      0
 ---------------------------------------------------------------------------------
 Estimated maximum stack depth 2
 ---------------------------------------------------------------------------------

 Call Graph Graphs:

 _main (ROOT)
   _Lab3_DAQ
   _SD_Init
     _SD_Check40bitResponse
     _SD_Check8bitResponse
     _SD_Read40bitResponse
       _SPI_Read
     _SD_Read8bitResponse
       _SPI_Read
     _SD_SendCommand
       _SPI_Write
     _SPI_Write
   _SD_Read8bitResponse
     _SPI_Read
   _SD_SendCommand
     _SPI_Write
   _SPI_Init
   _SPI_Read

 Address spaces:
Name               Size   Autos  Total    Cost      Usage
BIGRAM_1           3E0      0       0       0        0.0%
NULL                 0      0       0       0        0.0%
CODE                 0      0       0       0        0.0%
BIGRAM             3F0      0       0       1        0.0%
BITSFR0              0      0       0       1        0.0%
SFR0                 0      0       0       1        0.0%
BITCOMMON            E      0       0       2        0.0%
BITSFR1              0      0       0       2        0.0%
SFR1                 0      0       0       2        0.0%
COMMON               E      E       E       3      100.0%
BITSFR2              0      0       0       3        0.0%
SFR2                 0      0       0       3        0.0%
BITSFR3              0      0       0       4        0.0%
SFR3                 0      0       0       4        0.0%
STACK                0      0       0       4        0.0%
BANK0               50      8       E       5       17.5%
BITSFR4              0      0       0       5        0.0%
SFR4                 0      0       0       5        0.0%
BITBANK0            50      0       0       6        0.0%
BITSFR5              0      0       0       6        0.0%
SFR5                 0      0       0       6        0.0%
BITBANK1            50      0       0       7        0.0%
BITSFR6              0      0       0       7        0.0%
SFR6                 0      0       0       7        0.0%
BANK1               50      0       0       8        0.0%
BITSFR7              0      0       0       8        0.0%
SFR7                 0      0       0       8        0.0%
BITBANK2            50      0       0       9        0.0%
BITSFR8              0      0       0       9        0.0%
SFR8                 0      0       0       9        0.0%
BANK2               50      0       0      10        0.0%
BITSFR9              0      0       0      10        0.0%
SFR9                 0      0       0      10        0.0%
BITBANK3            50      0       0      11        0.0%
BITSFR10             0      0       0      11        0.0%
SFR10                0      0       0      11        0.0%
BANK3               50      0       0      12        0.0%
BITSFR11             0      0       0      12        0.0%
SFR11                0      0       0      12        0.0%
BITSFR12             0      0       0      13        0.0%
SFR12                0      0       0      13        0.0%
ABS                  0      0      1C      13        0.0%
BITBANK4            50      0       0      14        0.0%
BITSFR13             0      0       0      14        0.0%
SFR13                0      0       0      14        0.0%
BANK4               50      0       0      15        0.0%
BITSFR14             0      0       0      15        0.0%
SFR14                0      0       0      15        0.0%
BITBANK5            50      0       0      16        0.0%
BITSFR15             0      0       0      16        0.0%
SFR15                0      0       0      16        0.0%
BANK5               50      0       0      17        0.0%
BITSFR16             0      0       0      17        0.0%
SFR16                0      0       0      17        0.0%
BITBANK6            50      0       0      18        0.0%
BITSFR17             0      0       0      18        0.0%
SFR17                0      0       0      18        0.0%
BANK6               10      0       0      19        0.0%
BITSFR18             0      0       0      19        0.0%
SFR18                0      0       0      19        0.0%
BITBANK7            50      0       0      20        0.0%
BITSFR19             0      0       0      20        0.0%
SFR19                0      0       0      20        0.0%
BITSFR20             0      0       0      21        0.0%
SFR20                0      0       0      21        0.0%
BANK7                0      0       0      21        0.0%
BITBANK8            50      0       0      22        0.0%
BITSFR21             0      0       0      22        0.0%
SFR21                0      0       0      22        0.0%
BITSFR22             0      0       0      23        0.0%
SFR22                0      0       0      23        0.0%
BANK8                0      0       0      23        0.0%
BITBANK9            50      0       0      24        0.0%
BITSFR23             0      0       0      24        0.0%
SFR23                0      0       0      24        0.0%
BITSFR24             0      0       0      25        0.0%
SFR24                0      0       0      25        0.0%
BANK9                0      0       0      25        0.0%
BITBANK10           50      0       0      26        0.0%
BITSFR25             0      0       0      26        0.0%
SFR25                0      0       0      26        0.0%
BITSFR26             0      0       0      27        0.0%
SFR26                0      0       0      27        0.0%
BANK10               0      0       0      27        0.0%
BITBANK11           50      0       0      28        0.0%
BITSFR27             0      0       0      28        0.0%
SFR27                0      0       0      28        0.0%
BITSFR28             0      0       0      29        0.0%
SFR28                0      0       0      29        0.0%
BANK11               0      0       0      29        0.0%
BITSFR29             0      0       0      30        0.0%
SFR29                0      0       0      30        0.0%
DATA                 0      0      1C      30        0.0%
BITBANK12           30      0       0      31        0.0%
BITSFR30             0      0       0      31        0.0%
SFR30                0      0       0      31        0.0%
BITSFR31             0      0       0      32        0.0%
SFR31                0      0       0      32        0.0%
BANK12               0      0       0      32        0.0%
BITBANK13           50      0       0      33        0.0%
BANK13              50      0       0      34        0.0%
BITBANK14           50      0       0      35        0.0%
BANK14              50      0       0      36        0.0%
BITBANK15           50      0       0      37        0.0%
BANK15              50      0       0      38        0.0%
BITBANK16           50      0       0      39        0.0%
BANK16              50      0       0      40        0.0%
BITBANK17           50      0       0      41        0.0%
BANK17              50      0       0      42        0.0%
BITBANK18           50      0       0      43        0.0%
BANK18              50      0       0      44        0.0%
BITBANK19           50      0       0      45        0.0%
BANK19               0      0       0      46        0.0%
BITBANK20           50      0       0      47        0.0%
BANK20               0      0       0      48        0.0%
BITBANK21           50      0       0      49        0.0%
BANK21               0      0       0      50        0.0%
BITBANK22           50      0       0      51        0.0%
BANK22               0      0       0      52        0.0%
BITBANK23           50      0       0      53        0.0%
BANK23               0      0       0      54        0.0%
BITBANK24           50      0       0      55        0.0%
BANK24               0      0       0      56        0.0%
BITBANK25           20      0       0      57        0.0%
BANK25               0      0       0      58        0.0%


Microchip Technology PIC Macro Assembler V2.05 build -831301201 
Symbol Table                                                                                   Tue Mar 26 11:16:23 2019

                            l120 059A                              l114 05A2                              l170 0633  
                            l181 06AE           ??_SD_Check8bitResponse 0070                  ?_SD_SendCommand 0071  
                           l1109 0603                             l1161 06E3                             l1313 069B  
                           l1307 0693                             l1173 0715                             l1087 05BB  
                           l1167 06F6                             l1319 06A3                             l1291 0668  
                           l1283 064C                             l1295 0672                             _T2PR 0494  
                           _main 0630                  __end_of_SD_Init 073F                             fsr0h 0005  
                           indf0 0000                             fsr0l 0004                             btemp 007E  
                           start 0002    __size_of_SD_Read40bitResponse 002D     __size_of_SD_Read8bitResponse 0011  
               __end_of_CRCTable 0900                    __CFG_PLLEN$ON 0000                            ?_main 0070  
                  __CFG_WDTE$OFF 0000                            _ANSC3 0C73                            _T2CON 0495  
               __end_of_SPI_Init 0603                 __end_of_SPI_Read 059E                 __end_of_Lab3_DAQ 0597  
                          status 0003                            wtemp0 007E               __size_of_SPI_Write 0007  
                __initialization 07D8                     __end_of_main 06B3                           ??_main 007A  
                _GLBL_ReadBuffer 21F0         SD_Check8bitResponse@Byte 0070                           _DAC1LD 2C68  
                      ??_SD_Init 0079                           _RC2PPS 0EA2                           _RC4PPS 0EA4  
                         _OSCCON 009B                           _TRISC2 0472                           _TRISC3 0473  
                         _TRISC4 0474                           _TRISC7 0477         SD_SendCommand@ByteToSend 0077  
              __end_of_SPI_Write 05A5          __end_of__initialization 07FD   __size_of_SD_Check40bitResponse 001A  
  __end_of_SD_Check40bitResponse 05E6                   main@ch_adbyte1 0025                   main@ch_adbyte2 0026  
                 main@ch_adbyte3 0027                   main@ch_adbyte4 0021                   __pcstackCOMMON 0070  
                   __pidataBANK0 058A                        ?_SPI_Init 0070                        ?_SPI_Read 0070  
                      ?_Lab3_DAQ 0070                 ??_SD_SendCommand 0075              _SD_Read8bitResponse 05BB  
                     __pmaintext 0630             ?_SD_Read8bitResponse 0070                       ??_SPI_Init 0070  
                     ??_SPI_Read 0070                       ??_Lab3_DAQ 0070     __end_of_SD_Read40bitResponse 0630  
                        _SSP1ADD 0212                          _SSP1BUF 0211                          _SD_Init 06B3  
  __size_of_SD_Check8bitResponse 000A            ??_SD_Read8bitResponse 0070                   main@sh_counter 0023  
                        __ptext1 05E6                          __ptext2 06B3                          __ptext3 073F  
                        __ptext4 059E                          __ptext5 05BB                          __ptext6 0603  
                        __ptext7 0597                          __ptext8 05A5                          __ptext9 05CC  
             Lab3_DAQ@writevalue 0070                          clrloop0 05B0             end_of_initialization 07FD  
     SD_Check40bitResponse@Byte0 0073       SD_Check40bitResponse@Byte1 0072       SD_Check40bitResponse@Byte2 0071  
     SD_Check40bitResponse@Byte3 0070       SD_Check40bitResponse@Byte4 0074       SD_Check40bitResponse@match 0075  
                      _PORTCbits 000E                        _SSPDATPPS 0E3B                        _SSPCLKPPS 0E3A  
               __CFG_FOSC$INTOSC 0000                    __pbssBIGRAM_1 25F0                        _SPI_Write 059E  
SD_Read40bitResponse@readMessage 0071             _SD_Read40bitResponse 0603                __size_of_SPI_Init 001D  
              __size_of_SPI_Read 0007                __size_of_Lab3_DAQ 0007              start_initialization 07D8  
             SPI_Write@Data_8bit 0070                  main@ch_sendbyte 0020                       ?_SPI_Write 0070  
               _GLBL_WriteBuffer 25F0            ?_SD_Read40bitResponse 0070            _SD_Check40bitResponse 05CC  
                    __pdataBANK0 0028                      __pbssBIGRAM 21F0                        ___latbits 0003  
                  __pcstackBANK0 0020                         ?_SD_Init 0070     __end_of_SD_Check8bitResponse 05AF  
                       _DAC1CON0 058E                         _DAC1REFH 0590                         _DAC1REFL 058F  
                    _GLBL_Resp40 0028                      ??_SPI_Write 0070                         _T2CLKCON 0497  
                       _CRCTable 0800          __size_of_SD_SendCommand 0099           ??_SD_Read40bitResponse 0070  
    __end_of_SD_Read8bitResponse 05CC                        clear_ram0 05AF           SD_SendCommand@CMD_6bit 0076  
                       _PIR1bits 0011           ?_SD_Check40bitResponse 0070                         _SSP1CON1 0215  
                       _SSP1STAT 0214                  main@readMessage 0022                         _SPI_Init 05E6  
                       _SPI_Read 0597                         _Lab3_DAQ 0590                 __size_of_SD_Init 008C  
         SD_SendCommand@Checksum 0078                         __ptext10 0590                     _SSP1CON1bits 0215  
           _SD_Check8bitResponse 05A5                       _GLBL_Resp8 002D                    __size_of_main 0083  
             SD_SendCommand@ARG0 0074               SD_SendCommand@ARG1 0073               SD_SendCommand@ARG2 0072  
             SD_SendCommand@ARG3 0071                     _SSP1STATbits 0214                      _OSCSTATbits 009C  
 SD_Read8bitResponse@readMessage 0071            ?_SD_Check8bitResponse 0070                   _SD_SendCommand 073F  
      SD_Check8bitResponse@match 0071                    __pstringtext1 0800           __end_of_SD_SendCommand 07D8  
        ??_SD_Check40bitResponse 0074  
