

Microchip MPLAB XC8 Assembler V2.05 build -831301201 
                                                                                               Wed Apr 17 16:54:38 2019

Microchip MPLAB XC8 C Compiler v2.05 (Free license) build 20181220022703 Og1 
     1                           	processor	16F1778
     2                           	opt	pw 120
     3                           	opt	flic
     4                           	psect	idataBANK0,global,class=CODE,delta=2
     5                           	psect	idataBANK1,global,class=CODE,delta=2
     6                           	psect	idataBANK2,global,class=CODE,delta=2
     7                           	psect	stringtext1,global,class=STRCODE,delta=2
     8                           	psect	cinit,global,class=CODE,merge=1,delta=2
     9                           	psect	bssCOMMON,global,class=COMMON,space=1,delta=1
    10                           	psect	bssBANK0,global,class=BANK0,space=1,delta=1
    11                           	psect	dataBANK0,global,class=BANK0,space=1,delta=1
    12                           	psect	dataBANK1,global,class=BANK1,space=1,delta=1
    13                           	psect	dataBANK2,global,class=BANK2,space=1,delta=1
    14                           	psect	inittext,global,class=CODE,delta=2
    15                           	psect	clrtext,global,class=CODE,delta=2
    16                           	psect	cstackCOMMON,global,class=COMMON,space=1,delta=1
    17                           	psect	cstackBANK0,global,class=BANK0,space=1,delta=1
    18                           	psect	maintext,global,class=CODE,merge=1,split=1,delta=2
    19                           	psect	text1,local,class=CODE,merge=1,delta=2
    20                           	psect	text2,local,class=CODE,merge=1,delta=2
    21                           	psect	text3,local,class=CODE,merge=1,delta=2
    22                           	psect	text4,local,class=CODE,merge=1,delta=2
    23                           	psect	text5,local,class=CODE,merge=1,delta=2
    24                           	psect	text6,local,class=CODE,merge=1,delta=2
    25                           	psect	text7,local,class=CODE,merge=1,delta=2,group=1
    26                           	psect	text8,local,class=CODE,merge=1,delta=2
    27                           	psect	text9,local,class=CODE,merge=1,delta=2
    28                           	psect	text10,local,class=CODE,merge=1,delta=2
    29                           	psect	text11,local,class=CODE,merge=1,delta=2
    30                           	psect	text12,local,class=CODE,merge=1,delta=2
    31                           	psect	text13,local,class=CODE,merge=1,delta=2
    32                           	psect	text14,local,class=CODE,merge=1,delta=2
    33                           	psect	text15,local,class=CODE,merge=1,delta=2
    34                           	psect	text16,local,class=CODE,merge=1,delta=2
    35                           	psect	text17,local,class=CODE,merge=1,delta=2
    36                           	psect	text18,local,class=CODE,merge=1,delta=2
    37                           	psect	text19,local,class=CODE,merge=1,delta=2
    38                           	psect	text20,local,class=CODE,merge=1,delta=2
    39                           	psect	intentry,global,class=CODE,delta=2
    40                           	dabs	1,0xCA0,32
    41                           	dabs	1,0xC20,80
    42                           	dabs	1,0xBA0,80
    43                           	dabs	1,0xB20,80
    44                           	dabs	1,0xAA0,80
    45                           	dabs	1,0xA20,80
    46                           	dabs	1,0x9A0,80
    47                           	dabs	1,0x620,48
    48                           	dabs	1,0x5A0,80
    49                           	dabs	1,0x520,80
    50                           	dabs	1,0x4A0,80
    51                           	dabs	1,0x420,80
    52                           	dabs	1,0x3A0,80
    53                           	dabs	1,0x330,64
    54                           	dabs	1,0x25F0,0,_GLBL_WriteBuffer
    55                           	dabs	1,0x21F0,0,_GLBL_ReadBuffer
    56                           	dabs	1,0x7E,2
    57  0000                     
    58                           ; Version 2.05
    59                           ; Generated 20/12/2018 GMT
    60                           ; 
    61                           ; Copyright © 2018, Microchip Technology Inc. and its subsidiaries ("Microchip")
    62                           ; All rights reserved.
    63                           ; 
    64                           ; This software is developed by Microchip Technology Inc. and its subsidiaries ("Microch
      +                          ip").
    65                           ; 
    66                           ; Redistribution and use in source and binary forms, with or without modification, are
    67                           ; permitted provided that the following conditions are met:
    68                           ; 
    69                           ;     1. Redistributions of source code must retain the above copyright notice, this lis
      +                          t of
    70                           ;        conditions and the following disclaimer.
    71                           ; 
    72                           ;     2. Redistributions in binary form must reproduce the above copyright notice, this 
      +                          list
    73                           ;        of conditions and the following disclaimer in the documentation and/or other
    74                           ;        materials provided with the distribution.
    75                           ; 
    76                           ;     3. Microchip's name may not be used to endorse or promote products derived from th
      +                          is
    77                           ;        software without specific prior written permission.
    78                           ; 
    79                           ; THIS SOFTWARE IS PROVIDED BY MICROCHIP "AS IS" AND ANY EXPRESS OR IMPLIED WARRANTIES,
    80                           ; INCLUDING, BUT NOT LIMITED TO, THE IMPLIED WARRANTIES OF MERCHANTABILITY AND FITNESS F
      +                          OR
    81                           ; PURPOSE ARE DISCLAIMED.  IN NO EVENT SHALL MICROCHIP BE LIABLE FOR ANY DIRECT, INDIREC
      +                          T,
    82                           ; INCIDENTAL, SPECIAL, EXEMPLARY, OR CONSEQUENTIAL DAMAGES (INCLUDING BUT NOT LIMITED TO
    83                           ; PROCUREMENT OF SUBSTITUTE GOODS OR SERVICES; LOSS OF USE, DATA OR PROFITS; OR BUSINESS
    84                           ; INTERRUPTION) HOWSOEVER CAUSED AND ON ANY THEORY OF LIABILITY, WHETHER IN CONTRACT, ST
      +                          RICT
    85                           ; LIABILITY, OR TORT (INCLUDING NEGLIGENCE OR OTHERWISE) ARISING IN ANY WAY OUT OF THE U
      +                          SE OF
    86                           ; THIS SOFTWARE, EVEN IF ADVISED OF THE POSSIBILITY OF SUCH DAMAGE.
    87                           ; 
    88                           ; 
    89                           ; Code-generator required, PIC16F1778 Definitions
    90                           ; 
    91                           ; SFR Addresses
    92  0000                     	;# 
    93  0001                     	;# 
    94  0002                     	;# 
    95  0003                     	;# 
    96  0004                     	;# 
    97  0005                     	;# 
    98  0006                     	;# 
    99  0007                     	;# 
   100  0008                     	;# 
   101  0009                     	;# 
   102  000A                     	;# 
   103  000B                     	;# 
   104  000C                     	;# 
   105  000D                     	;# 
   106  000E                     	;# 
   107  0010                     	;# 
   108  0011                     	;# 
   109  0012                     	;# 
   110  0013                     	;# 
   111  0014                     	;# 
   112  0015                     	;# 
   113  0016                     	;# 
   114  0017                     	;# 
   115  0018                     	;# 
   116  0018                     	;# 
   117  0019                     	;# 
   118  001A                     	;# 
   119  001B                     	;# 
   120  001C                     	;# 
   121  001C                     	;# 
   122  001D                     	;# 
   123  001E                     	;# 
   124  001F                     	;# 
   125  008C                     	;# 
   126  008D                     	;# 
   127  008E                     	;# 
   128  0090                     	;# 
   129  0091                     	;# 
   130  0092                     	;# 
   131  0093                     	;# 
   132  0094                     	;# 
   133  0095                     	;# 
   134  0096                     	;# 
   135  0097                     	;# 
   136  0098                     	;# 
   137  0099                     	;# 
   138  009A                     	;# 
   139  009B                     	;# 
   140  009C                     	;# 
   141  009D                     	;# 
   142  009E                     	;# 
   143  009F                     	;# 
   144  010C                     	;# 
   145  010D                     	;# 
   146  010E                     	;# 
   147  0111                     	;# 
   148  0112                     	;# 
   149  0113                     	;# 
   150  0114                     	;# 
   151  0115                     	;# 
   152  0116                     	;# 
   153  0117                     	;# 
   154  0118                     	;# 
   155  0119                     	;# 
   156  011A                     	;# 
   157  011B                     	;# 
   158  011C                     	;# 
   159  011D                     	;# 
   160  018C                     	;# 
   161  018D                     	;# 
   162  018E                     	;# 
   163  0191                     	;# 
   164  0191                     	;# 
   165  0192                     	;# 
   166  0193                     	;# 
   167  0193                     	;# 
   168  0194                     	;# 
   169  0195                     	;# 
   170  0196                     	;# 
   171  0197                     	;# 
   172  0199                     	;# 
   173  0199                     	;# 
   174  0199                     	;# 
   175  019A                     	;# 
   176  019A                     	;# 
   177  019A                     	;# 
   178  019B                     	;# 
   179  019B                     	;# 
   180  019B                     	;# 
   181  019B                     	;# 
   182  019B                     	;# 
   183  019C                     	;# 
   184  019C                     	;# 
   185  019C                     	;# 
   186  019D                     	;# 
   187  019D                     	;# 
   188  019D                     	;# 
   189  019E                     	;# 
   190  019E                     	;# 
   191  019E                     	;# 
   192  019F                     	;# 
   193  019F                     	;# 
   194  019F                     	;# 
   195  019F                     	;# 
   196  019F                     	;# 
   197  020C                     	;# 
   198  020D                     	;# 
   199  020E                     	;# 
   200  0210                     	;# 
   201  0211                     	;# 
   202  0211                     	;# 
   203  0212                     	;# 
   204  0212                     	;# 
   205  0213                     	;# 
   206  0213                     	;# 
   207  0214                     	;# 
   208  0214                     	;# 
   209  0215                     	;# 
   210  0215                     	;# 
   211  0215                     	;# 
   212  0215                     	;# 
   213  0216                     	;# 
   214  0216                     	;# 
   215  0217                     	;# 
   216  0217                     	;# 
   217  021B                     	;# 
   218  021C                     	;# 
   219  021D                     	;# 
   220  021E                     	;# 
   221  021F                     	;# 
   222  028C                     	;# 
   223  028D                     	;# 
   224  028E                     	;# 
   225  0291                     	;# 
   226  0291                     	;# 
   227  0292                     	;# 
   228  0293                     	;# 
   229  0294                     	;# 
   230  0295                     	;# 
   231  0295                     	;# 
   232  0296                     	;# 
   233  0297                     	;# 
   234  0298                     	;# 
   235  0299                     	;# 
   236  0299                     	;# 
   237  029A                     	;# 
   238  029B                     	;# 
   239  029C                     	;# 
   240  029E                     	;# 
   241  029F                     	;# 
   242  030C                     	;# 
   243  030D                     	;# 
   244  030E                     	;# 
   245  0315                     	;# 
   246  0316                     	;# 
   247  0317                     	;# 
   248  0318                     	;# 
   249  0319                     	;# 
   250  031B                     	;# 
   251  031C                     	;# 
   252  031D                     	;# 
   253  031E                     	;# 
   254  031F                     	;# 
   255  038C                     	;# 
   256  038D                     	;# 
   257  038E                     	;# 
   258  0390                     	;# 
   259  0391                     	;# 
   260  0392                     	;# 
   261  0393                     	;# 
   262  0394                     	;# 
   263  0395                     	;# 
   264  0396                     	;# 
   265  0397                     	;# 
   266  0398                     	;# 
   267  0399                     	;# 
   268  039D                     	;# 
   269  039E                     	;# 
   270  039F                     	;# 
   271  040D                     	;# 
   272  040F                     	;# 
   273  040F                     	;# 
   274  0410                     	;# 
   275  0411                     	;# 
   276  0412                     	;# 
   277  0413                     	;# 
   278  0413                     	;# 
   279  0414                     	;# 
   280  0414                     	;# 
   281  0415                     	;# 
   282  0416                     	;# 
   283  0417                     	;# 
   284  0418                     	;# 
   285  041A                     	;# 
   286  041A                     	;# 
   287  041B                     	;# 
   288  041B                     	;# 
   289  041C                     	;# 
   290  041D                     	;# 
   291  041E                     	;# 
   292  041F                     	;# 
   293  048E                     	;# 
   294  048E                     	;# 
   295  048F                     	;# 
   296  0490                     	;# 
   297  0491                     	;# 
   298  0492                     	;# 
   299  0493                     	;# 
   300  0493                     	;# 
   301  0494                     	;# 
   302  0494                     	;# 
   303  0495                     	;# 
   304  0496                     	;# 
   305  0497                     	;# 
   306  0498                     	;# 
   307  049A                     	;# 
   308  049A                     	;# 
   309  049B                     	;# 
   310  049B                     	;# 
   311  049C                     	;# 
   312  049D                     	;# 
   313  049E                     	;# 
   314  049F                     	;# 
   315  050F                     	;# 
   316  0510                     	;# 
   317  0511                     	;# 
   318  0512                     	;# 
   319  0513                     	;# 
   320  0514                     	;# 
   321  0515                     	;# 
   322  0516                     	;# 
   323  0517                     	;# 
   324  0518                     	;# 
   325  0519                     	;# 
   326  051A                     	;# 
   327  058D                     	;# 
   328  058E                     	;# 
   329  058F                     	;# 
   330  058F                     	;# 
   331  058F                     	;# 
   332  0590                     	;# 
   333  0590                     	;# 
   334  0591                     	;# 
   335  0592                     	;# 
   336  0592                     	;# 
   337  0592                     	;# 
   338  0593                     	;# 
   339  0593                     	;# 
   340  0594                     	;# 
   341  0595                     	;# 
   342  0595                     	;# 
   343  0596                     	;# 
   344  0597                     	;# 
   345  0597                     	;# 
   346  0598                     	;# 
   347  0599                     	;# 
   348  0599                     	;# 
   349  0599                     	;# 
   350  059A                     	;# 
   351  059A                     	;# 
   352  059E                     	;# 
   353  059F                     	;# 
   354  059F                     	;# 
   355  0614                     	;# 
   356  0614                     	;# 
   357  0615                     	;# 
   358  0616                     	;# 
   359  0617                     	;# 
   360  0617                     	;# 
   361  0618                     	;# 
   362  0619                     	;# 
   363  061A                     	;# 
   364  061A                     	;# 
   365  061B                     	;# 
   366  061C                     	;# 
   367  068D                     	;# 
   368  068E                     	;# 
   369  068F                     	;# 
   370  0690                     	;# 
   371  0691                     	;# 
   372  0692                     	;# 
   373  0693                     	;# 
   374  0694                     	;# 
   375  0695                     	;# 
   376  0696                     	;# 
   377  0697                     	;# 
   378  0698                     	;# 
   379  0699                     	;# 
   380  069A                     	;# 
   381  069B                     	;# 
   382  069C                     	;# 
   383  069D                     	;# 
   384  069E                     	;# 
   385  069F                     	;# 
   386  070D                     	;# 
   387  070E                     	;# 
   388  070F                     	;# 
   389  0710                     	;# 
   390  0711                     	;# 
   391  0712                     	;# 
   392  0713                     	;# 
   393  0714                     	;# 
   394  0715                     	;# 
   395  0716                     	;# 
   396  0717                     	;# 
   397  0718                     	;# 
   398  0719                     	;# 
   399  071A                     	;# 
   400  071B                     	;# 
   401  071C                     	;# 
   402  071D                     	;# 
   403  071E                     	;# 
   404  071F                     	;# 
   405  078E                     	;# 
   406  078F                     	;# 
   407  0790                     	;# 
   408  0791                     	;# 
   409  0792                     	;# 
   410  0793                     	;# 
   411  0794                     	;# 
   412  0795                     	;# 
   413  0796                     	;# 
   414  0797                     	;# 
   415  0798                     	;# 
   416  0799                     	;# 
   417  079A                     	;# 
   418  079B                     	;# 
   419  079C                     	;# 
   420  079D                     	;# 
   421  079E                     	;# 
   422  079F                     	;# 
   423  080D                     	;# 
   424  080E                     	;# 
   425  080F                     	;# 
   426  0810                     	;# 
   427  0811                     	;# 
   428  0812                     	;# 
   429  0813                     	;# 
   430  0814                     	;# 
   431  0815                     	;# 
   432  0816                     	;# 
   433  0817                     	;# 
   434  0818                     	;# 
   435  0819                     	;# 
   436  081A                     	;# 
   437  081B                     	;# 
   438  081C                     	;# 
   439  081D                     	;# 
   440  081E                     	;# 
   441  081F                     	;# 
   442  090C                     	;# 
   443  090D                     	;# 
   444  090E                     	;# 
   445  090F                     	;# 
   446  0910                     	;# 
   447  0911                     	;# 
   448  0912                     	;# 
   449  0913                     	;# 
   450  0914                     	;# 
   451  0915                     	;# 
   452  0916                     	;# 
   453  0917                     	;# 
   454  0D8E                     	;# 
   455  0D8F                     	;# 
   456  0D90                     	;# 
   457  0D91                     	;# 
   458  0D91                     	;# 
   459  0D92                     	;# 
   460  0D93                     	;# 
   461  0D93                     	;# 
   462  0D94                     	;# 
   463  0D95                     	;# 
   464  0D95                     	;# 
   465  0D96                     	;# 
   466  0D97                     	;# 
   467  0D97                     	;# 
   468  0D98                     	;# 
   469  0D99                     	;# 
   470  0D99                     	;# 
   471  0D9A                     	;# 
   472  0D9B                     	;# 
   473  0D9C                     	;# 
   474  0D9C                     	;# 
   475  0D9D                     	;# 
   476  0D9D                     	;# 
   477  0D9E                     	;# 
   478  0D9F                     	;# 
   479  0DA0                     	;# 
   480  0DA1                     	;# 
   481  0DA1                     	;# 
   482  0DA2                     	;# 
   483  0DA3                     	;# 
   484  0DA3                     	;# 
   485  0DA4                     	;# 
   486  0DA5                     	;# 
   487  0DA5                     	;# 
   488  0DA6                     	;# 
   489  0DA7                     	;# 
   490  0DA7                     	;# 
   491  0DA8                     	;# 
   492  0DA9                     	;# 
   493  0DA9                     	;# 
   494  0DAA                     	;# 
   495  0DAB                     	;# 
   496  0DAC                     	;# 
   497  0DAC                     	;# 
   498  0DAD                     	;# 
   499  0DAD                     	;# 
   500  0DAE                     	;# 
   501  0DAF                     	;# 
   502  0DB0                     	;# 
   503  0DB1                     	;# 
   504  0DB1                     	;# 
   505  0DB2                     	;# 
   506  0DB3                     	;# 
   507  0DB3                     	;# 
   508  0DB4                     	;# 
   509  0DB5                     	;# 
   510  0DB5                     	;# 
   511  0DB6                     	;# 
   512  0DB7                     	;# 
   513  0DB7                     	;# 
   514  0DB8                     	;# 
   515  0DB9                     	;# 
   516  0DB9                     	;# 
   517  0DBA                     	;# 
   518  0DBB                     	;# 
   519  0DBC                     	;# 
   520  0DBC                     	;# 
   521  0DBD                     	;# 
   522  0DBD                     	;# 
   523  0DBE                     	;# 
   524  0DBF                     	;# 
   525  0DC0                     	;# 
   526  0E0C                     	;# 
   527  0E0D                     	;# 
   528  0E0E                     	;# 
   529  0E0F                     	;# 
   530  0E10                     	;# 
   531  0E11                     	;# 
   532  0E12                     	;# 
   533  0E13                     	;# 
   534  0E14                     	;# 
   535  0E15                     	;# 
   536  0E15                     	;# 
   537  0E15                     	;# 
   538  0E16                     	;# 
   539  0E16                     	;# 
   540  0E16                     	;# 
   541  0E17                     	;# 
   542  0E17                     	;# 
   543  0E17                     	;# 
   544  0E18                     	;# 
   545  0E18                     	;# 
   546  0E18                     	;# 
   547  0E19                     	;# 
   548  0E1A                     	;# 
   549  0E1B                     	;# 
   550  0E1D                     	;# 
   551  0E1E                     	;# 
   552  0E1F                     	;# 
   553  0E21                     	;# 
   554  0E22                     	;# 
   555  0E23                     	;# 
   556  0E24                     	;# 
   557  0E25                     	;# 
   558  0E26                     	;# 
   559  0E27                     	;# 
   560  0E28                     	;# 
   561  0E29                     	;# 
   562  0E2D                     	;# 
   563  0E2E                     	;# 
   564  0E2F                     	;# 
   565  0E30                     	;# 
   566  0E31                     	;# 
   567  0E32                     	;# 
   568  0E35                     	;# 
   569  0E36                     	;# 
   570  0E37                     	;# 
   571  0E38                     	;# 
   572  0E39                     	;# 
   573  0E3A                     	;# 
   574  0E3B                     	;# 
   575  0E3C                     	;# 
   576  0E3D                     	;# 
   577  0E3E                     	;# 
   578  0E90                     	;# 
   579  0E91                     	;# 
   580  0E92                     	;# 
   581  0E93                     	;# 
   582  0E94                     	;# 
   583  0E95                     	;# 
   584  0E96                     	;# 
   585  0E97                     	;# 
   586  0E98                     	;# 
   587  0E99                     	;# 
   588  0E9A                     	;# 
   589  0E9B                     	;# 
   590  0E9C                     	;# 
   591  0E9D                     	;# 
   592  0E9E                     	;# 
   593  0E9F                     	;# 
   594  0EA0                     	;# 
   595  0EA1                     	;# 
   596  0EA2                     	;# 
   597  0EA3                     	;# 
   598  0EA4                     	;# 
   599  0EA5                     	;# 
   600  0EA6                     	;# 
   601  0EA7                     	;# 
   602  0F0F                     	;# 
   603  0F10                     	;# 
   604  0F11                     	;# 
   605  0F12                     	;# 
   606  0F13                     	;# 
   607  0F14                     	;# 
   608  0F15                     	;# 
   609  0F16                     	;# 
   610  0F17                     	;# 
   611  0F18                     	;# 
   612  0F19                     	;# 
   613  0F1A                     	;# 
   614  0F1B                     	;# 
   615  0F1C                     	;# 
   616  0F1D                     	;# 
   617  0F1E                     	;# 
   618  0F1F                     	;# 
   619  0F20                     	;# 
   620  0F21                     	;# 
   621  0F22                     	;# 
   622  0F23                     	;# 
   623  0F24                     	;# 
   624  0F25                     	;# 
   625  0F26                     	;# 
   626  0F27                     	;# 
   627  0F28                     	;# 
   628  0F29                     	;# 
   629  0F2A                     	;# 
   630  0F2B                     	;# 
   631  0F2C                     	;# 
   632  0F2D                     	;# 
   633  0F2E                     	;# 
   634  0F2F                     	;# 
   635  0F30                     	;# 
   636  0F31                     	;# 
   637  0F32                     	;# 
   638  0F33                     	;# 
   639  0F34                     	;# 
   640  0F35                     	;# 
   641  0F36                     	;# 
   642  0F37                     	;# 
   643  0FE4                     	;# 
   644  0FE5                     	;# 
   645  0FE6                     	;# 
   646  0FE7                     	;# 
   647  0FE8                     	;# 
   648  0FE9                     	;# 
   649  0FEA                     	;# 
   650  0FEB                     	;# 
   651  0FED                     	;# 
   652  0FEE                     	;# 
   653  0FEF                     	;# 
   654  0000                     	;# 
   655  0001                     	;# 
   656  0002                     	;# 
   657  0003                     	;# 
   658  0004                     	;# 
   659  0005                     	;# 
   660  0006                     	;# 
   661  0007                     	;# 
   662  0008                     	;# 
   663  0009                     	;# 
   664  000A                     	;# 
   665  000B                     	;# 
   666  000C                     	;# 
   667  000D                     	;# 
   668  000E                     	;# 
   669  0010                     	;# 
   670  0011                     	;# 
   671  0012                     	;# 
   672  0013                     	;# 
   673  0014                     	;# 
   674  0015                     	;# 
   675  0016                     	;# 
   676  0017                     	;# 
   677  0018                     	;# 
   678  0018                     	;# 
   679  0019                     	;# 
   680  001A                     	;# 
   681  001B                     	;# 
   682  001C                     	;# 
   683  001C                     	;# 
   684  001D                     	;# 
   685  001E                     	;# 
   686  001F                     	;# 
   687  008C                     	;# 
   688  008D                     	;# 
   689  008E                     	;# 
   690  0090                     	;# 
   691  0091                     	;# 
   692  0092                     	;# 
   693  0093                     	;# 
   694  0094                     	;# 
   695  0095                     	;# 
   696  0096                     	;# 
   697  0097                     	;# 
   698  0098                     	;# 
   699  0099                     	;# 
   700  009A                     	;# 
   701  009B                     	;# 
   702  009C                     	;# 
   703  009D                     	;# 
   704  009E                     	;# 
   705  009F                     	;# 
   706  010C                     	;# 
   707  010D                     	;# 
   708  010E                     	;# 
   709  0111                     	;# 
   710  0112                     	;# 
   711  0113                     	;# 
   712  0114                     	;# 
   713  0115                     	;# 
   714  0116                     	;# 
   715  0117                     	;# 
   716  0118                     	;# 
   717  0119                     	;# 
   718  011A                     	;# 
   719  011B                     	;# 
   720  011C                     	;# 
   721  011D                     	;# 
   722  018C                     	;# 
   723  018D                     	;# 
   724  018E                     	;# 
   725  0191                     	;# 
   726  0191                     	;# 
   727  0192                     	;# 
   728  0193                     	;# 
   729  0193                     	;# 
   730  0194                     	;# 
   731  0195                     	;# 
   732  0196                     	;# 
   733  0197                     	;# 
   734  0199                     	;# 
   735  0199                     	;# 
   736  0199                     	;# 
   737  019A                     	;# 
   738  019A                     	;# 
   739  019A                     	;# 
   740  019B                     	;# 
   741  019B                     	;# 
   742  019B                     	;# 
   743  019B                     	;# 
   744  019B                     	;# 
   745  019C                     	;# 
   746  019C                     	;# 
   747  019C                     	;# 
   748  019D                     	;# 
   749  019D                     	;# 
   750  019D                     	;# 
   751  019E                     	;# 
   752  019E                     	;# 
   753  019E                     	;# 
   754  019F                     	;# 
   755  019F                     	;# 
   756  019F                     	;# 
   757  019F                     	;# 
   758  019F                     	;# 
   759  020C                     	;# 
   760  020D                     	;# 
   761  020E                     	;# 
   762  0210                     	;# 
   763  0211                     	;# 
   764  0211                     	;# 
   765  0212                     	;# 
   766  0212                     	;# 
   767  0213                     	;# 
   768  0213                     	;# 
   769  0214                     	;# 
   770  0214                     	;# 
   771  0215                     	;# 
   772  0215                     	;# 
   773  0215                     	;# 
   774  0215                     	;# 
   775  0216                     	;# 
   776  0216                     	;# 
   777  0217                     	;# 
   778  0217                     	;# 
   779  021B                     	;# 
   780  021C                     	;# 
   781  021D                     	;# 
   782  021E                     	;# 
   783  021F                     	;# 
   784  028C                     	;# 
   785  028D                     	;# 
   786  028E                     	;# 
   787  0291                     	;# 
   788  0291                     	;# 
   789  0292                     	;# 
   790  0293                     	;# 
   791  0294                     	;# 
   792  0295                     	;# 
   793  0295                     	;# 
   794  0296                     	;# 
   795  0297                     	;# 
   796  0298                     	;# 
   797  0299                     	;# 
   798  0299                     	;# 
   799  029A                     	;# 
   800  029B                     	;# 
   801  029C                     	;# 
   802  029E                     	;# 
   803  029F                     	;# 
   804  030C                     	;# 
   805  030D                     	;# 
   806  030E                     	;# 
   807  0315                     	;# 
   808  0316                     	;# 
   809  0317                     	;# 
   810  0318                     	;# 
   811  0319                     	;# 
   812  031B                     	;# 
   813  031C                     	;# 
   814  031D                     	;# 
   815  031E                     	;# 
   816  031F                     	;# 
   817  038C                     	;# 
   818  038D                     	;# 
   819  038E                     	;# 
   820  0390                     	;# 
   821  0391                     	;# 
   822  0392                     	;# 
   823  0393                     	;# 
   824  0394                     	;# 
   825  0395                     	;# 
   826  0396                     	;# 
   827  0397                     	;# 
   828  0398                     	;# 
   829  0399                     	;# 
   830  039D                     	;# 
   831  039E                     	;# 
   832  039F                     	;# 
   833  040D                     	;# 
   834  040F                     	;# 
   835  040F                     	;# 
   836  0410                     	;# 
   837  0411                     	;# 
   838  0412                     	;# 
   839  0413                     	;# 
   840  0413                     	;# 
   841  0414                     	;# 
   842  0414                     	;# 
   843  0415                     	;# 
   844  0416                     	;# 
   845  0417                     	;# 
   846  0418                     	;# 
   847  041A                     	;# 
   848  041A                     	;# 
   849  041B                     	;# 
   850  041B                     	;# 
   851  041C                     	;# 
   852  041D                     	;# 
   853  041E                     	;# 
   854  041F                     	;# 
   855  048E                     	;# 
   856  048E                     	;# 
   857  048F                     	;# 
   858  0490                     	;# 
   859  0491                     	;# 
   860  0492                     	;# 
   861  0493                     	;# 
   862  0493                     	;# 
   863  0494                     	;# 
   864  0494                     	;# 
   865  0495                     	;# 
   866  0496                     	;# 
   867  0497                     	;# 
   868  0498                     	;# 
   869  049A                     	;# 
   870  049A                     	;# 
   871  049B                     	;# 
   872  049B                     	;# 
   873  049C                     	;# 
   874  049D                     	;# 
   875  049E                     	;# 
   876  049F                     	;# 
   877  050F                     	;# 
   878  0510                     	;# 
   879  0511                     	;# 
   880  0512                     	;# 
   881  0513                     	;# 
   882  0514                     	;# 
   883  0515                     	;# 
   884  0516                     	;# 
   885  0517                     	;# 
   886  0518                     	;# 
   887  0519                     	;# 
   888  051A                     	;# 
   889  058D                     	;# 
   890  058E                     	;# 
   891  058F                     	;# 
   892  058F                     	;# 
   893  058F                     	;# 
   894  0590                     	;# 
   895  0590                     	;# 
   896  0591                     	;# 
   897  0592                     	;# 
   898  0592                     	;# 
   899  0592                     	;# 
   900  0593                     	;# 
   901  0593                     	;# 
   902  0594                     	;# 
   903  0595                     	;# 
   904  0595                     	;# 
   905  0596                     	;# 
   906  0597                     	;# 
   907  0597                     	;# 
   908  0598                     	;# 
   909  0599                     	;# 
   910  0599                     	;# 
   911  0599                     	;# 
   912  059A                     	;# 
   913  059A                     	;# 
   914  059E                     	;# 
   915  059F                     	;# 
   916  059F                     	;# 
   917  0614                     	;# 
   918  0614                     	;# 
   919  0615                     	;# 
   920  0616                     	;# 
   921  0617                     	;# 
   922  0617                     	;# 
   923  0618                     	;# 
   924  0619                     	;# 
   925  061A                     	;# 
   926  061A                     	;# 
   927  061B                     	;# 
   928  061C                     	;# 
   929  068D                     	;# 
   930  068E                     	;# 
   931  068F                     	;# 
   932  0690                     	;# 
   933  0691                     	;# 
   934  0692                     	;# 
   935  0693                     	;# 
   936  0694                     	;# 
   937  0695                     	;# 
   938  0696                     	;# 
   939  0697                     	;# 
   940  0698                     	;# 
   941  0699                     	;# 
   942  069A                     	;# 
   943  069B                     	;# 
   944  069C                     	;# 
   945  069D                     	;# 
   946  069E                     	;# 
   947  069F                     	;# 
   948  070D                     	;# 
   949  070E                     	;# 
   950  070F                     	;# 
   951  0710                     	;# 
   952  0711                     	;# 
   953  0712                     	;# 
   954  0713                     	;# 
   955  0714                     	;# 
   956  0715                     	;# 
   957  0716                     	;# 
   958  0717                     	;# 
   959  0718                     	;# 
   960  0719                     	;# 
   961  071A                     	;# 
   962  071B                     	;# 
   963  071C                     	;# 
   964  071D                     	;# 
   965  071E                     	;# 
   966  071F                     	;# 
   967  078E                     	;# 
   968  078F                     	;# 
   969  0790                     	;# 
   970  0791                     	;# 
   971  0792                     	;# 
   972  0793                     	;# 
   973  0794                     	;# 
   974  0795                     	;# 
   975  0796                     	;# 
   976  0797                     	;# 
   977  0798                     	;# 
   978  0799                     	;# 
   979  079A                     	;# 
   980  079B                     	;# 
   981  079C                     	;# 
   982  079D                     	;# 
   983  079E                     	;# 
   984  079F                     	;# 
   985  080D                     	;# 
   986  080E                     	;# 
   987  080F                     	;# 
   988  0810                     	;# 
   989  0811                     	;# 
   990  0812                     	;# 
   991  0813                     	;# 
   992  0814                     	;# 
   993  0815                     	;# 
   994  0816                     	;# 
   995  0817                     	;# 
   996  0818                     	;# 
   997  0819                     	;# 
   998  081A                     	;# 
   999  081B                     	;# 
  1000  081C                     	;# 
  1001  081D                     	;# 
  1002  081E                     	;# 
  1003  081F                     	;# 
  1004  090C                     	;# 
  1005  090D                     	;# 
  1006  090E                     	;# 
  1007  090F                     	;# 
  1008  0910                     	;# 
  1009  0911                     	;# 
  1010  0912                     	;# 
  1011  0913                     	;# 
  1012  0914                     	;# 
  1013  0915                     	;# 
  1014  0916                     	;# 
  1015  0917                     	;# 
  1016  0D8E                     	;# 
  1017  0D8F                     	;# 
  1018  0D90                     	;# 
  1019  0D91                     	;# 
  1020  0D91                     	;# 
  1021  0D92                     	;# 
  1022  0D93                     	;# 
  1023  0D93                     	;# 
  1024  0D94                     	;# 
  1025  0D95                     	;# 
  1026  0D95                     	;# 
  1027  0D96                     	;# 
  1028  0D97                     	;# 
  1029  0D97                     	;# 
  1030  0D98                     	;# 
  1031  0D99                     	;# 
  1032  0D99                     	;# 
  1033  0D9A                     	;# 
  1034  0D9B                     	;# 
  1035  0D9C                     	;# 
  1036  0D9C                     	;# 
  1037  0D9D                     	;# 
  1038  0D9D                     	;# 
  1039  0D9E                     	;# 
  1040  0D9F                     	;# 
  1041  0DA0                     	;# 
  1042  0DA1                     	;# 
  1043  0DA1                     	;# 
  1044  0DA2                     	;# 
  1045  0DA3                     	;# 
  1046  0DA3                     	;# 
  1047  0DA4                     	;# 
  1048  0DA5                     	;# 
  1049  0DA5                     	;# 
  1050  0DA6                     	;# 
  1051  0DA7                     	;# 
  1052  0DA7                     	;# 
  1053  0DA8                     	;# 
  1054  0DA9                     	;# 
  1055  0DA9                     	;# 
  1056  0DAA                     	;# 
  1057  0DAB                     	;# 
  1058  0DAC                     	;# 
  1059  0DAC                     	;# 
  1060  0DAD                     	;# 
  1061  0DAD                     	;# 
  1062  0DAE                     	;# 
  1063  0DAF                     	;# 
  1064  0DB0                     	;# 
  1065  0DB1                     	;# 
  1066  0DB1                     	;# 
  1067  0DB2                     	;# 
  1068  0DB3                     	;# 
  1069  0DB3                     	;# 
  1070  0DB4                     	;# 
  1071  0DB5                     	;# 
  1072  0DB5                     	;# 
  1073  0DB6                     	;# 
  1074  0DB7                     	;# 
  1075  0DB7                     	;# 
  1076  0DB8                     	;# 
  1077  0DB9                     	;# 
  1078  0DB9                     	;# 
  1079  0DBA                     	;# 
  1080  0DBB                     	;# 
  1081  0DBC                     	;# 
  1082  0DBC                     	;# 
  1083  0DBD                     	;# 
  1084  0DBD                     	;# 
  1085  0DBE                     	;# 
  1086  0DBF                     	;# 
  1087  0DC0                     	;# 
  1088  0E0C                     	;# 
  1089  0E0D                     	;# 
  1090  0E0E                     	;# 
  1091  0E0F                     	;# 
  1092  0E10                     	;# 
  1093  0E11                     	;# 
  1094  0E12                     	;# 
  1095  0E13                     	;# 
  1096  0E14                     	;# 
  1097  0E15                     	;# 
  1098  0E15                     	;# 
  1099  0E15                     	;# 
  1100  0E16                     	;# 
  1101  0E16                     	;# 
  1102  0E16                     	;# 
  1103  0E17                     	;# 
  1104  0E17                     	;# 
  1105  0E17                     	;# 
  1106  0E18                     	;# 
  1107  0E18                     	;# 
  1108  0E18                     	;# 
  1109  0E19                     	;# 
  1110  0E1A                     	;# 
  1111  0E1B                     	;# 
  1112  0E1D                     	;# 
  1113  0E1E                     	;# 
  1114  0E1F                     	;# 
  1115  0E21                     	;# 
  1116  0E22                     	;# 
  1117  0E23                     	;# 
  1118  0E24                     	;# 
  1119  0E25                     	;# 
  1120  0E26                     	;# 
  1121  0E27                     	;# 
  1122  0E28                     	;# 
  1123  0E29                     	;# 
  1124  0E2D                     	;# 
  1125  0E2E                     	;# 
  1126  0E2F                     	;# 
  1127  0E30                     	;# 
  1128  0E31                     	;# 
  1129  0E32                     	;# 
  1130  0E35                     	;# 
  1131  0E36                     	;# 
  1132  0E37                     	;# 
  1133  0E38                     	;# 
  1134  0E39                     	;# 
  1135  0E3A                     	;# 
  1136  0E3B                     	;# 
  1137  0E3C                     	;# 
  1138  0E3D                     	;# 
  1139  0E3E                     	;# 
  1140  0E90                     	;# 
  1141  0E91                     	;# 
  1142  0E92                     	;# 
  1143  0E93                     	;# 
  1144  0E94                     	;# 
  1145  0E95                     	;# 
  1146  0E96                     	;# 
  1147  0E97                     	;# 
  1148  0E98                     	;# 
  1149  0E99                     	;# 
  1150  0E9A                     	;# 
  1151  0E9B                     	;# 
  1152  0E9C                     	;# 
  1153  0E9D                     	;# 
  1154  0E9E                     	;# 
  1155  0E9F                     	;# 
  1156  0EA0                     	;# 
  1157  0EA1                     	;# 
  1158  0EA2                     	;# 
  1159  0EA3                     	;# 
  1160  0EA4                     	;# 
  1161  0EA5                     	;# 
  1162  0EA6                     	;# 
  1163  0EA7                     	;# 
  1164  0F0F                     	;# 
  1165  0F10                     	;# 
  1166  0F11                     	;# 
  1167  0F12                     	;# 
  1168  0F13                     	;# 
  1169  0F14                     	;# 
  1170  0F15                     	;# 
  1171  0F16                     	;# 
  1172  0F17                     	;# 
  1173  0F18                     	;# 
  1174  0F19                     	;# 
  1175  0F1A                     	;# 
  1176  0F1B                     	;# 
  1177  0F1C                     	;# 
  1178  0F1D                     	;# 
  1179  0F1E                     	;# 
  1180  0F1F                     	;# 
  1181  0F20                     	;# 
  1182  0F21                     	;# 
  1183  0F22                     	;# 
  1184  0F23                     	;# 
  1185  0F24                     	;# 
  1186  0F25                     	;# 
  1187  0F26                     	;# 
  1188  0F27                     	;# 
  1189  0F28                     	;# 
  1190  0F29                     	;# 
  1191  0F2A                     	;# 
  1192  0F2B                     	;# 
  1193  0F2C                     	;# 
  1194  0F2D                     	;# 
  1195  0F2E                     	;# 
  1196  0F2F                     	;# 
  1197  0F30                     	;# 
  1198  0F31                     	;# 
  1199  0F32                     	;# 
  1200  0F33                     	;# 
  1201  0F34                     	;# 
  1202  0F35                     	;# 
  1203  0F36                     	;# 
  1204  0F37                     	;# 
  1205  0FE4                     	;# 
  1206  0FE5                     	;# 
  1207  0FE6                     	;# 
  1208  0FE7                     	;# 
  1209  0FE8                     	;# 
  1210  0FE9                     	;# 
  1211  0FEA                     	;# 
  1212  0FEB                     	;# 
  1213  0FED                     	;# 
  1214  0FEE                     	;# 
  1215  0FEF                     	;# 
  1216  0000                     	;# 
  1217  0001                     	;# 
  1218  0002                     	;# 
  1219  0003                     	;# 
  1220  0004                     	;# 
  1221  0005                     	;# 
  1222  0006                     	;# 
  1223  0007                     	;# 
  1224  0008                     	;# 
  1225  0009                     	;# 
  1226  000A                     	;# 
  1227  000B                     	;# 
  1228  000C                     	;# 
  1229  000D                     	;# 
  1230  000E                     	;# 
  1231  0010                     	;# 
  1232  0011                     	;# 
  1233  0012                     	;# 
  1234  0013                     	;# 
  1235  0014                     	;# 
  1236  0015                     	;# 
  1237  0016                     	;# 
  1238  0017                     	;# 
  1239  0018                     	;# 
  1240  0018                     	;# 
  1241  0019                     	;# 
  1242  001A                     	;# 
  1243  001B                     	;# 
  1244  001C                     	;# 
  1245  001C                     	;# 
  1246  001D                     	;# 
  1247  001E                     	;# 
  1248  001F                     	;# 
  1249  008C                     	;# 
  1250  008D                     	;# 
  1251  008E                     	;# 
  1252  0090                     	;# 
  1253  0091                     	;# 
  1254  0092                     	;# 
  1255  0093                     	;# 
  1256  0094                     	;# 
  1257  0095                     	;# 
  1258  0096                     	;# 
  1259  0097                     	;# 
  1260  0098                     	;# 
  1261  0099                     	;# 
  1262  009A                     	;# 
  1263  009B                     	;# 
  1264  009C                     	;# 
  1265  009D                     	;# 
  1266  009E                     	;# 
  1267  009F                     	;# 
  1268  010C                     	;# 
  1269  010D                     	;# 
  1270  010E                     	;# 
  1271  0111                     	;# 
  1272  0112                     	;# 
  1273  0113                     	;# 
  1274  0114                     	;# 
  1275  0115                     	;# 
  1276  0116                     	;# 
  1277  0117                     	;# 
  1278  0118                     	;# 
  1279  0119                     	;# 
  1280  011A                     	;# 
  1281  011B                     	;# 
  1282  011C                     	;# 
  1283  011D                     	;# 
  1284  018C                     	;# 
  1285  018D                     	;# 
  1286  018E                     	;# 
  1287  0191                     	;# 
  1288  0191                     	;# 
  1289  0192                     	;# 
  1290  0193                     	;# 
  1291  0193                     	;# 
  1292  0194                     	;# 
  1293  0195                     	;# 
  1294  0196                     	;# 
  1295  0197                     	;# 
  1296  0199                     	;# 
  1297  0199                     	;# 
  1298  0199                     	;# 
  1299  019A                     	;# 
  1300  019A                     	;# 
  1301  019A                     	;# 
  1302  019B                     	;# 
  1303  019B                     	;# 
  1304  019B                     	;# 
  1305  019B                     	;# 
  1306  019B                     	;# 
  1307  019C                     	;# 
  1308  019C                     	;# 
  1309  019C                     	;# 
  1310  019D                     	;# 
  1311  019D                     	;# 
  1312  019D                     	;# 
  1313  019E                     	;# 
  1314  019E                     	;# 
  1315  019E                     	;# 
  1316  019F                     	;# 
  1317  019F                     	;# 
  1318  019F                     	;# 
  1319  019F                     	;# 
  1320  019F                     	;# 
  1321  020C                     	;# 
  1322  020D                     	;# 
  1323  020E                     	;# 
  1324  0210                     	;# 
  1325  0211                     	;# 
  1326  0211                     	;# 
  1327  0212                     	;# 
  1328  0212                     	;# 
  1329  0213                     	;# 
  1330  0213                     	;# 
  1331  0214                     	;# 
  1332  0214                     	;# 
  1333  0215                     	;# 
  1334  0215                     	;# 
  1335  0215                     	;# 
  1336  0215                     	;# 
  1337  0216                     	;# 
  1338  0216                     	;# 
  1339  0217                     	;# 
  1340  0217                     	;# 
  1341  021B                     	;# 
  1342  021C                     	;# 
  1343  021D                     	;# 
  1344  021E                     	;# 
  1345  021F                     	;# 
  1346  028C                     	;# 
  1347  028D                     	;# 
  1348  028E                     	;# 
  1349  0291                     	;# 
  1350  0291                     	;# 
  1351  0292                     	;# 
  1352  0293                     	;# 
  1353  0294                     	;# 
  1354  0295                     	;# 
  1355  0295                     	;# 
  1356  0296                     	;# 
  1357  0297                     	;# 
  1358  0298                     	;# 
  1359  0299                     	;# 
  1360  0299                     	;# 
  1361  029A                     	;# 
  1362  029B                     	;# 
  1363  029C                     	;# 
  1364  029E                     	;# 
  1365  029F                     	;# 
  1366  030C                     	;# 
  1367  030D                     	;# 
  1368  030E                     	;# 
  1369  0315                     	;# 
  1370  0316                     	;# 
  1371  0317                     	;# 
  1372  0318                     	;# 
  1373  0319                     	;# 
  1374  031B                     	;# 
  1375  031C                     	;# 
  1376  031D                     	;# 
  1377  031E                     	;# 
  1378  031F                     	;# 
  1379  038C                     	;# 
  1380  038D                     	;# 
  1381  038E                     	;# 
  1382  0390                     	;# 
  1383  0391                     	;# 
  1384  0392                     	;# 
  1385  0393                     	;# 
  1386  0394                     	;# 
  1387  0395                     	;# 
  1388  0396                     	;# 
  1389  0397                     	;# 
  1390  0398                     	;# 
  1391  0399                     	;# 
  1392  039D                     	;# 
  1393  039E                     	;# 
  1394  039F                     	;# 
  1395  040D                     	;# 
  1396  040F                     	;# 
  1397  040F                     	;# 
  1398  0410                     	;# 
  1399  0411                     	;# 
  1400  0412                     	;# 
  1401  0413                     	;# 
  1402  0413                     	;# 
  1403  0414                     	;# 
  1404  0414                     	;# 
  1405  0415                     	;# 
  1406  0416                     	;# 
  1407  0417                     	;# 
  1408  0418                     	;# 
  1409  041A                     	;# 
  1410  041A                     	;# 
  1411  041B                     	;# 
  1412  041B                     	;# 
  1413  041C                     	;# 
  1414  041D                     	;# 
  1415  041E                     	;# 
  1416  041F                     	;# 
  1417  048E                     	;# 
  1418  048E                     	;# 
  1419  048F                     	;# 
  1420  0490                     	;# 
  1421  0491                     	;# 
  1422  0492                     	;# 
  1423  0493                     	;# 
  1424  0493                     	;# 
  1425  0494                     	;# 
  1426  0494                     	;# 
  1427  0495                     	;# 
  1428  0496                     	;# 
  1429  0497                     	;# 
  1430  0498                     	;# 
  1431  049A                     	;# 
  1432  049A                     	;# 
  1433  049B                     	;# 
  1434  049B                     	;# 
  1435  049C                     	;# 
  1436  049D                     	;# 
  1437  049E                     	;# 
  1438  049F                     	;# 
  1439  050F                     	;# 
  1440  0510                     	;# 
  1441  0511                     	;# 
  1442  0512                     	;# 
  1443  0513                     	;# 
  1444  0514                     	;# 
  1445  0515                     	;# 
  1446  0516                     	;# 
  1447  0517                     	;# 
  1448  0518                     	;# 
  1449  0519                     	;# 
  1450  051A                     	;# 
  1451  058D                     	;# 
  1452  058E                     	;# 
  1453  058F                     	;# 
  1454  058F                     	;# 
  1455  058F                     	;# 
  1456  0590                     	;# 
  1457  0590                     	;# 
  1458  0591                     	;# 
  1459  0592                     	;# 
  1460  0592                     	;# 
  1461  0592                     	;# 
  1462  0593                     	;# 
  1463  0593                     	;# 
  1464  0594                     	;# 
  1465  0595                     	;# 
  1466  0595                     	;# 
  1467  0596                     	;# 
  1468  0597                     	;# 
  1469  0597                     	;# 
  1470  0598                     	;# 
  1471  0599                     	;# 
  1472  0599                     	;# 
  1473  0599                     	;# 
  1474  059A                     	;# 
  1475  059A                     	;# 
  1476  059E                     	;# 
  1477  059F                     	;# 
  1478  059F                     	;# 
  1479  0614                     	;# 
  1480  0614                     	;# 
  1481  0615                     	;# 
  1482  0616                     	;# 
  1483  0617                     	;# 
  1484  0617                     	;# 
  1485  0618                     	;# 
  1486  0619                     	;# 
  1487  061A                     	;# 
  1488  061A                     	;# 
  1489  061B                     	;# 
  1490  061C                     	;# 
  1491  068D                     	;# 
  1492  068E                     	;# 
  1493  068F                     	;# 
  1494  0690                     	;# 
  1495  0691                     	;# 
  1496  0692                     	;# 
  1497  0693                     	;# 
  1498  0694                     	;# 
  1499  0695                     	;# 
  1500  0696                     	;# 
  1501  0697                     	;# 
  1502  0698                     	;# 
  1503  0699                     	;# 
  1504  069A                     	;# 
  1505  069B                     	;# 
  1506  069C                     	;# 
  1507  069D                     	;# 
  1508  069E                     	;# 
  1509  069F                     	;# 
  1510  070D                     	;# 
  1511  070E                     	;# 
  1512  070F                     	;# 
  1513  0710                     	;# 
  1514  0711                     	;# 
  1515  0712                     	;# 
  1516  0713                     	;# 
  1517  0714                     	;# 
  1518  0715                     	;# 
  1519  0716                     	;# 
  1520  0717                     	;# 
  1521  0718                     	;# 
  1522  0719                     	;# 
  1523  071A                     	;# 
  1524  071B                     	;# 
  1525  071C                     	;# 
  1526  071D                     	;# 
  1527  071E                     	;# 
  1528  071F                     	;# 
  1529  078E                     	;# 
  1530  078F                     	;# 
  1531  0790                     	;# 
  1532  0791                     	;# 
  1533  0792                     	;# 
  1534  0793                     	;# 
  1535  0794                     	;# 
  1536  0795                     	;# 
  1537  0796                     	;# 
  1538  0797                     	;# 
  1539  0798                     	;# 
  1540  0799                     	;# 
  1541  079A                     	;# 
  1542  079B                     	;# 
  1543  079C                     	;# 
  1544  079D                     	;# 
  1545  079E                     	;# 
  1546  079F                     	;# 
  1547  080D                     	;# 
  1548  080E                     	;# 
  1549  080F                     	;# 
  1550  0810                     	;# 
  1551  0811                     	;# 
  1552  0812                     	;# 
  1553  0813                     	;# 
  1554  0814                     	;# 
  1555  0815                     	;# 
  1556  0816                     	;# 
  1557  0817                     	;# 
  1558  0818                     	;# 
  1559  0819                     	;# 
  1560  081A                     	;# 
  1561  081B                     	;# 
  1562  081C                     	;# 
  1563  081D                     	;# 
  1564  081E                     	;# 
  1565  081F                     	;# 
  1566  090C                     	;# 
  1567  090D                     	;# 
  1568  090E                     	;# 
  1569  090F                     	;# 
  1570  0910                     	;# 
  1571  0911                     	;# 
  1572  0912                     	;# 
  1573  0913                     	;# 
  1574  0914                     	;# 
  1575  0915                     	;# 
  1576  0916                     	;# 
  1577  0917                     	;# 
  1578  0D8E                     	;# 
  1579  0D8F                     	;# 
  1580  0D90                     	;# 
  1581  0D91                     	;# 
  1582  0D91                     	;# 
  1583  0D92                     	;# 
  1584  0D93                     	;# 
  1585  0D93                     	;# 
  1586  0D94                     	;# 
  1587  0D95                     	;# 
  1588  0D95                     	;# 
  1589  0D96                     	;# 
  1590  0D97                     	;# 
  1591  0D97                     	;# 
  1592  0D98                     	;# 
  1593  0D99                     	;# 
  1594  0D99                     	;# 
  1595  0D9A                     	;# 
  1596  0D9B                     	;# 
  1597  0D9C                     	;# 
  1598  0D9C                     	;# 
  1599  0D9D                     	;# 
  1600  0D9D                     	;# 
  1601  0D9E                     	;# 
  1602  0D9F                     	;# 
  1603  0DA0                     	;# 
  1604  0DA1                     	;# 
  1605  0DA1                     	;# 
  1606  0DA2                     	;# 
  1607  0DA3                     	;# 
  1608  0DA3                     	;# 
  1609  0DA4                     	;# 
  1610  0DA5                     	;# 
  1611  0DA5                     	;# 
  1612  0DA6                     	;# 
  1613  0DA7                     	;# 
  1614  0DA7                     	;# 
  1615  0DA8                     	;# 
  1616  0DA9                     	;# 
  1617  0DA9                     	;# 
  1618  0DAA                     	;# 
  1619  0DAB                     	;# 
  1620  0DAC                     	;# 
  1621  0DAC                     	;# 
  1622  0DAD                     	;# 
  1623  0DAD                     	;# 
  1624  0DAE                     	;# 
  1625  0DAF                     	;# 
  1626  0DB0                     	;# 
  1627  0DB1                     	;# 
  1628  0DB1                     	;# 
  1629  0DB2                     	;# 
  1630  0DB3                     	;# 
  1631  0DB3                     	;# 
  1632  0DB4                     	;# 
  1633  0DB5                     	;# 
  1634  0DB5                     	;# 
  1635  0DB6                     	;# 
  1636  0DB7                     	;# 
  1637  0DB7                     	;# 
  1638  0DB8                     	;# 
  1639  0DB9                     	;# 
  1640  0DB9                     	;# 
  1641  0DBA                     	;# 
  1642  0DBB                     	;# 
  1643  0DBC                     	;# 
  1644  0DBC                     	;# 
  1645  0DBD                     	;# 
  1646  0DBD                     	;# 
  1647  0DBE                     	;# 
  1648  0DBF                     	;# 
  1649  0DC0                     	;# 
  1650  0E0C                     	;# 
  1651  0E0D                     	;# 
  1652  0E0E                     	;# 
  1653  0E0F                     	;# 
  1654  0E10                     	;# 
  1655  0E11                     	;# 
  1656  0E12                     	;# 
  1657  0E13                     	;# 
  1658  0E14                     	;# 
  1659  0E15                     	;# 
  1660  0E15                     	;# 
  1661  0E15                     	;# 
  1662  0E16                     	;# 
  1663  0E16                     	;# 
  1664  0E16                     	;# 
  1665  0E17                     	;# 
  1666  0E17                     	;# 
  1667  0E17                     	;# 
  1668  0E18                     	;# 
  1669  0E18                     	;# 
  1670  0E18                     	;# 
  1671  0E19                     	;# 
  1672  0E1A                     	;# 
  1673  0E1B                     	;# 
  1674  0E1D                     	;# 
  1675  0E1E                     	;# 
  1676  0E1F                     	;# 
  1677  0E21                     	;# 
  1678  0E22                     	;# 
  1679  0E23                     	;# 
  1680  0E24                     	;# 
  1681  0E25                     	;# 
  1682  0E26                     	;# 
  1683  0E27                     	;# 
  1684  0E28                     	;# 
  1685  0E29                     	;# 
  1686  0E2D                     	;# 
  1687  0E2E                     	;# 
  1688  0E2F                     	;# 
  1689  0E30                     	;# 
  1690  0E31                     	;# 
  1691  0E32                     	;# 
  1692  0E35                     	;# 
  1693  0E36                     	;# 
  1694  0E37                     	;# 
  1695  0E38                     	;# 
  1696  0E39                     	;# 
  1697  0E3A                     	;# 
  1698  0E3B                     	;# 
  1699  0E3C                     	;# 
  1700  0E3D                     	;# 
  1701  0E3E                     	;# 
  1702  0E90                     	;# 
  1703  0E91                     	;# 
  1704  0E92                     	;# 
  1705  0E93                     	;# 
  1706  0E94                     	;# 
  1707  0E95                     	;# 
  1708  0E96                     	;# 
  1709  0E97                     	;# 
  1710  0E98                     	;# 
  1711  0E99                     	;# 
  1712  0E9A                     	;# 
  1713  0E9B                     	;# 
  1714  0E9C                     	;# 
  1715  0E9D                     	;# 
  1716  0E9E                     	;# 
  1717  0E9F                     	;# 
  1718  0EA0                     	;# 
  1719  0EA1                     	;# 
  1720  0EA2                     	;# 
  1721  0EA3                     	;# 
  1722  0EA4                     	;# 
  1723  0EA5                     	;# 
  1724  0EA6                     	;# 
  1725  0EA7                     	;# 
  1726  0F0F                     	;# 
  1727  0F10                     	;# 
  1728  0F11                     	;# 
  1729  0F12                     	;# 
  1730  0F13                     	;# 
  1731  0F14                     	;# 
  1732  0F15                     	;# 
  1733  0F16                     	;# 
  1734  0F17                     	;# 
  1735  0F18                     	;# 
  1736  0F19                     	;# 
  1737  0F1A                     	;# 
  1738  0F1B                     	;# 
  1739  0F1C                     	;# 
  1740  0F1D                     	;# 
  1741  0F1E                     	;# 
  1742  0F1F                     	;# 
  1743  0F20                     	;# 
  1744  0F21                     	;# 
  1745  0F22                     	;# 
  1746  0F23                     	;# 
  1747  0F24                     	;# 
  1748  0F25                     	;# 
  1749  0F26                     	;# 
  1750  0F27                     	;# 
  1751  0F28                     	;# 
  1752  0F29                     	;# 
  1753  0F2A                     	;# 
  1754  0F2B                     	;# 
  1755  0F2C                     	;# 
  1756  0F2D                     	;# 
  1757  0F2E                     	;# 
  1758  0F2F                     	;# 
  1759  0F30                     	;# 
  1760  0F31                     	;# 
  1761  0F32                     	;# 
  1762  0F33                     	;# 
  1763  0F34                     	;# 
  1764  0F35                     	;# 
  1765  0F36                     	;# 
  1766  0F37                     	;# 
  1767  0FE4                     	;# 
  1768  0FE5                     	;# 
  1769  0FE6                     	;# 
  1770  0FE7                     	;# 
  1771  0FE8                     	;# 
  1772  0FE9                     	;# 
  1773  0FEA                     	;# 
  1774  0FEB                     	;# 
  1775  0FED                     	;# 
  1776  0FEE                     	;# 
  1777  0FEF                     	;_GLBL_ReadBuffer
  1778                           
  1779                           	psect	idataBANK0
  1780  0CB5                     __pidataBANK0:	
  1781                           
  1782                           ;initializer for _GLBL_Resp40
  1783  0CB5  34FF               	retlw	255
  1784  0CB6  34FF               	retlw	255
  1785  0CB7  34FF               	retlw	255
  1786  0CB8  34FF               	retlw	255
  1787  0CB9  34FF               	retlw	255
  1788                           
  1789                           ;initializer for _G_u16alarmMin
  1790  0CBA  3401               	retlw	1
  1791  0CBB  3400               	retlw	0
  1792                           
  1793                           ;initializer for _G_u16alarmHour
  1794  0CBC  340D               	retlw	13
  1795  0CBD  3400               	retlw	0
  1796                           
  1797                           ;initializer for _G_u16hour
  1798  0CBE  340D               	retlw	13
  1799  0CBF  3400               	retlw	0
  1800                           
  1801                           ;initializer for _setAlarm
  1802  0CC0  3401               	retlw	1
  1803                           
  1804                           ;initializer for _GLBL_Resp8
  1805  0CC1  34FF               	retlw	255
  1806                           
  1807                           	psect	idataBANK1
  1808  0E15                     __pidataBANK1:	
  1809                           
  1810                           ;initializer for _G_au16startAddresses
  1811  0E15  3400               	retlw	0
  1812  0E16  3400               	retlw	0
  1813  0E17  3417               	retlw	23
  1814  0E18  3400               	retlw	0
  1815  0E19  3436               	retlw	54
  1816  0E1A  3400               	retlw	0
  1817  0E1B  345A               	retlw	90
  1818  0E1C  3400               	retlw	0
  1819  0E1D  347C               	retlw	124
  1820  0E1E  3400               	retlw	0
  1821  0E1F  34B0               	retlw	176
  1822  0E20  3403               	retlw	3
  1823  0E21  34AE               	retlw	174
  1824  0E22  3400               	retlw	0
  1825  0E23  34C2               	retlw	194
  1826  0E24  3400               	retlw	0
  1827  0E25  34D8               	retlw	216
  1828  0E26  3400               	retlw	0
  1829  0E27  34FC               	retlw	252
  1830  0E28  3400               	retlw	0
  1831  0E29  340C               	retlw	12
  1832  0E2A  3401               	retlw	1
  1833  0E2B  3422               	retlw	34
  1834  0E2C  3401               	retlw	1
  1835  0E2D  344F               	retlw	79
  1836  0E2E  3401               	retlw	1
  1837  0E2F  3468               	retlw	104
  1838  0E30  3401               	retlw	1
  1839  0E31  348C               	retlw	140
  1840  0E32  3401               	retlw	1
  1841  0E33  34AC               	retlw	172
  1842  0E34  3401               	retlw	1
  1843  0E35  34C1               	retlw	193
  1844  0E36  3401               	retlw	1
  1845  0E37  34DC               	retlw	220
  1846  0E38  3401               	retlw	1
  1847  0E39  34F7               	retlw	247
  1848  0E3A  3401               	retlw	1
  1849  0E3B  3415               	retlw	21
  1850  0E3C  3402               	retlw	2
  1851  0E3D  3434               	retlw	52
  1852  0E3E  3402               	retlw	2
  1853  0E3F  3450               	retlw	80
  1854  0E40  3402               	retlw	2
  1855  0E41  346F               	retlw	111
  1856  0E42  3402               	retlw	2
  1857  0E43  3489               	retlw	137
  1858  0E44  3402               	retlw	2
  1859  0E45  349C               	retlw	156
  1860  0E46  3402               	retlw	2
  1861  0E47  34C1               	retlw	193
  1862  0E48  3402               	retlw	2
  1863  0E49  34D6               	retlw	214
  1864  0E4A  3402               	retlw	2
  1865  0E4B  34FD               	retlw	253
  1866  0E4C  3402               	retlw	2
  1867  0E4D  3419               	retlw	25
  1868  0E4E  3403               	retlw	3
  1869  0E4F  343A               	retlw	58
  1870  0E50  3403               	retlw	3
  1871  0E51  344E               	retlw	78
  1872  0E52  3403               	retlw	3
  1873  0E53  3460               	retlw	96
  1874  0E54  3403               	retlw	3
  1875  0E55  3484               	retlw	132
  1876  0E56  3403               	retlw	3
  1877  0E57  349C               	retlw	156
  1878  0E58  3403               	retlw	3
  1879  0E59  34CB               	retlw	203
  1880  0E5A  3403               	retlw	3
  1881  0E5B  34E9               	retlw	233
  1882  0E5C  3403               	retlw	3
  1883  0E5D  3402               	retlw	2
  1884  0E5E  3404               	retlw	4
  1885  0E5F  3415               	retlw	21
  1886  0E60  3404               	retlw	4
  1887  0E61  346C               	retlw	108
  1888  0E62  341B               	retlw	27
  1889                           
  1890                           	psect	idataBANK2
  1891  0DC7                     __pidataBANK2:	
  1892                           
  1893                           ;initializer for _G_au16endAddresses
  1894  0DC7  3417               	retlw	23
  1895  0DC8  3400               	retlw	0
  1896  0DC9  3436               	retlw	54
  1897  0DCA  3400               	retlw	0
  1898  0DCB  345A               	retlw	90
  1899  0DCC  3400               	retlw	0
  1900  0DCD  347C               	retlw	124
  1901  0DCE  3400               	retlw	0
  1902  0DCF  34A0               	retlw	160
  1903  0DD0  3400               	retlw	0
  1904  0DD1  34CB               	retlw	203
  1905  0DD2  3403               	retlw	3
  1906  0DD3  34C2               	retlw	194
  1907  0DD4  3400               	retlw	0
  1908  0DD5  34D8               	retlw	216
  1909  0DD6  3400               	retlw	0
  1910  0DD7  34FC               	retlw	252
  1911  0DD8  3400               	retlw	0
  1912  0DD9  340C               	retlw	12
  1913  0DDA  3401               	retlw	1
  1914  0DDB  3422               	retlw	34
  1915  0DDC  3401               	retlw	1
  1916  0DDD  344F               	retlw	79
  1917  0DDE  3401               	retlw	1
  1918  0DDF  3468               	retlw	104
  1919  0DE0  3401               	retlw	1
  1920  0DE1  348C               	retlw	140
  1921  0DE2  3401               	retlw	1
  1922  0DE3  34AC               	retlw	172
  1923  0DE4  3401               	retlw	1
  1924  0DE5  34C1               	retlw	193
  1925  0DE6  3401               	retlw	1
  1926  0DE7  34DC               	retlw	220
  1927  0DE8  3401               	retlw	1
  1928  0DE9  34F7               	retlw	247
  1929  0DEA  3401               	retlw	1
  1930  0DEB  3415               	retlw	21
  1931  0DEC  3402               	retlw	2
  1932  0DED  3434               	retlw	52
  1933  0DEE  3402               	retlw	2
  1934  0DEF  3450               	retlw	80
  1935  0DF0  3402               	retlw	2
  1936  0DF1  346F               	retlw	111
  1937  0DF2  3402               	retlw	2
  1938  0DF3  3489               	retlw	137
  1939  0DF4  3402               	retlw	2
  1940  0DF5  349C               	retlw	156
  1941  0DF6  3402               	retlw	2
  1942  0DF7  34C1               	retlw	193
  1943  0DF8  3402               	retlw	2
  1944  0DF9  34D6               	retlw	214
  1945  0DFA  3402               	retlw	2
  1946  0DFB  34FD               	retlw	253
  1947  0DFC  3402               	retlw	2
  1948  0DFD  3419               	retlw	25
  1949  0DFE  3403               	retlw	3
  1950  0DFF  343A               	retlw	58
  1951  0E00  3403               	retlw	3
  1952  0E01  344E               	retlw	78
  1953  0E02  3403               	retlw	3
  1954  0E03  3460               	retlw	96
  1955  0E04  3403               	retlw	3
  1956  0E05  3484               	retlw	132
  1957  0E06  3403               	retlw	3
  1958  0E07  349C               	retlw	156
  1959  0E08  3403               	retlw	3
  1960  0E09  34B0               	retlw	176
  1961  0E0A  3403               	retlw	3
  1962  0E0B  34E9               	retlw	233
  1963  0E0C  3403               	retlw	3
  1964  0E0D  3402               	retlw	2
  1965  0E0E  3404               	retlw	4
  1966  0E0F  3415               	retlw	21
  1967  0E10  3404               	retlw	4
  1968  0E11  346C               	retlw	108
  1969  0E12  341B               	retlw	27
  1970  0E13  343E               	retlw	62
  1971  0E14  3422               	retlw	34
  1972                           
  1973                           	psect	stringtext1
  1974  04E8                     __pstringtext1:	
  1975  04E8                     _CRCTable:	
  1976  04E8  3400               	retlw	0
  1977  04E9  3409               	retlw	9
  1978  04EA  3412               	retlw	18
  1979  04EB  341B               	retlw	27
  1980  04EC  3424               	retlw	36
  1981  04ED  342D               	retlw	45
  1982  04EE  3436               	retlw	54
  1983  04EF  343F               	retlw	63
  1984  04F0  3448               	retlw	72
  1985  04F1  3441               	retlw	65
  1986  04F2  345A               	retlw	90
  1987  04F3  3453               	retlw	83
  1988  04F4  346C               	retlw	108
  1989  04F5  3465               	retlw	101
  1990  04F6  347E               	retlw	126
  1991  04F7  3477               	retlw	119
  1992  04F8  3419               	retlw	25
  1993  04F9  3410               	retlw	16
  1994  04FA  340B               	retlw	11
  1995  04FB  3402               	retlw	2
  1996  04FC  343D               	retlw	61
  1997  04FD  3434               	retlw	52
  1998  04FE  342F               	retlw	47
  1999  04FF  3426               	retlw	38
  2000  0500  3451               	retlw	81
  2001  0501  3458               	retlw	88
  2002  0502  3443               	retlw	67
  2003  0503  344A               	retlw	74
  2004  0504  3475               	retlw	117
  2005  0505  347C               	retlw	124
  2006  0506  3467               	retlw	103
  2007  0507  346E               	retlw	110
  2008  0508  3432               	retlw	50
  2009  0509  343B               	retlw	59
  2010  050A  3420               	retlw	32
  2011  050B  3429               	retlw	41
  2012  050C  3416               	retlw	22
  2013  050D  341F               	retlw	31
  2014  050E  3404               	retlw	4
  2015  050F  340D               	retlw	13
  2016  0510  347A               	retlw	122
  2017  0511  3473               	retlw	115
  2018  0512  3468               	retlw	104
  2019  0513  3461               	retlw	97
  2020  0514  345E               	retlw	94
  2021  0515  3457               	retlw	87
  2022  0516  344C               	retlw	76
  2023  0517  3445               	retlw	69
  2024  0518  342B               	retlw	43
  2025  0519  3422               	retlw	34
  2026  051A  3439               	retlw	57
  2027  051B  3430               	retlw	48
  2028  051C  340F               	retlw	15
  2029  051D  3406               	retlw	6
  2030  051E  341D               	retlw	29
  2031  051F  3414               	retlw	20
  2032  0520  3463               	retlw	99
  2033  0521  346A               	retlw	106
  2034  0522  3471               	retlw	113
  2035  0523  3478               	retlw	120
  2036  0524  3447               	retlw	71
  2037  0525  344E               	retlw	78
  2038  0526  3455               	retlw	85
  2039  0527  345C               	retlw	92
  2040  0528  3464               	retlw	100
  2041  0529  346D               	retlw	109
  2042  052A  3476               	retlw	118
  2043  052B  347F               	retlw	127
  2044  052C  3440               	retlw	64
  2045  052D  3449               	retlw	73
  2046  052E  3452               	retlw	82
  2047  052F  345B               	retlw	91
  2048  0530  342C               	retlw	44
  2049  0531  3425               	retlw	37
  2050  0532  343E               	retlw	62
  2051  0533  3437               	retlw	55
  2052  0534  3408               	retlw	8
  2053  0535  3401               	retlw	1
  2054  0536  341A               	retlw	26
  2055  0537  3413               	retlw	19
  2056  0538  347D               	retlw	125
  2057  0539  3474               	retlw	116
  2058  053A  346F               	retlw	111
  2059  053B  3466               	retlw	102
  2060  053C  3459               	retlw	89
  2061  053D  3450               	retlw	80
  2062  053E  344B               	retlw	75
  2063  053F  3442               	retlw	66
  2064  0540  3435               	retlw	53
  2065  0541  343C               	retlw	60
  2066  0542  3427               	retlw	39
  2067  0543  342E               	retlw	46
  2068  0544  3411               	retlw	17
  2069  0545  3418               	retlw	24
  2070  0546  3403               	retlw	3
  2071  0547  340A               	retlw	10
  2072  0548  3456               	retlw	86
  2073  0549  345F               	retlw	95
  2074  054A  3444               	retlw	68
  2075  054B  344D               	retlw	77
  2076  054C  3472               	retlw	114
  2077  054D  347B               	retlw	123
  2078  054E  3460               	retlw	96
  2079  054F  3469               	retlw	105
  2080  0550  341E               	retlw	30
  2081  0551  3417               	retlw	23
  2082  0552  340C               	retlw	12
  2083  0553  3405               	retlw	5
  2084  0554  343A               	retlw	58
  2085  0555  3433               	retlw	51
  2086  0556  3428               	retlw	40
  2087  0557  3421               	retlw	33
  2088  0558  344F               	retlw	79
  2089  0559  3446               	retlw	70
  2090  055A  345D               	retlw	93
  2091  055B  3454               	retlw	84
  2092  055C  346B               	retlw	107
  2093  055D  3462               	retlw	98
  2094  055E  3479               	retlw	121
  2095  055F  3470               	retlw	112
  2096  0560  3407               	retlw	7
  2097  0561  340E               	retlw	14
  2098  0562  3415               	retlw	21
  2099  0563  341C               	retlw	28
  2100  0564  3423               	retlw	35
  2101  0565  342A               	retlw	42
  2102  0566  3431               	retlw	49
  2103  0567  3438               	retlw	56
  2104  0568  3441               	retlw	65
  2105  0569  3448               	retlw	72
  2106  056A  3453               	retlw	83
  2107  056B  345A               	retlw	90
  2108  056C  3465               	retlw	101
  2109  056D  346C               	retlw	108
  2110  056E  3477               	retlw	119
  2111  056F  347E               	retlw	126
  2112  0570  3409               	retlw	9
  2113  0571  3400               	retlw	0
  2114  0572  341B               	retlw	27
  2115  0573  3412               	retlw	18
  2116  0574  342D               	retlw	45
  2117  0575  3424               	retlw	36
  2118  0576  343F               	retlw	63
  2119  0577  3436               	retlw	54
  2120  0578  3458               	retlw	88
  2121  0579  3451               	retlw	81
  2122  057A  344A               	retlw	74
  2123  057B  3443               	retlw	67
  2124  057C  347C               	retlw	124
  2125  057D  3475               	retlw	117
  2126  057E  346E               	retlw	110
  2127  057F  3467               	retlw	103
  2128  0580  3410               	retlw	16
  2129  0581  3419               	retlw	25
  2130  0582  3402               	retlw	2
  2131  0583  340B               	retlw	11
  2132  0584  3434               	retlw	52
  2133  0585  343D               	retlw	61
  2134  0586  3426               	retlw	38
  2135  0587  342F               	retlw	47
  2136  0588  3473               	retlw	115
  2137  0589  347A               	retlw	122
  2138  058A  3461               	retlw	97
  2139  058B  3468               	retlw	104
  2140  058C  3457               	retlw	87
  2141  058D  345E               	retlw	94
  2142  058E  3445               	retlw	69
  2143  058F  344C               	retlw	76
  2144  0590  343B               	retlw	59
  2145  0591  3432               	retlw	50
  2146  0592  3429               	retlw	41
  2147  0593  3420               	retlw	32
  2148  0594  341F               	retlw	31
  2149  0595  3416               	retlw	22
  2150  0596  340D               	retlw	13
  2151  0597  3404               	retlw	4
  2152  0598  346A               	retlw	106
  2153  0599  3463               	retlw	99
  2154  059A  3478               	retlw	120
  2155  059B  3471               	retlw	113
  2156  059C  344E               	retlw	78
  2157  059D  3447               	retlw	71
  2158  059E  345C               	retlw	92
  2159  059F  3455               	retlw	85
  2160  05A0  3422               	retlw	34
  2161  05A1  342B               	retlw	43
  2162  05A2  3430               	retlw	48
  2163  05A3  3439               	retlw	57
  2164  05A4  3406               	retlw	6
  2165  05A5  340F               	retlw	15
  2166  05A6  3414               	retlw	20
  2167  05A7  341D               	retlw	29
  2168  05A8  3425               	retlw	37
  2169  05A9  342C               	retlw	44
  2170  05AA  3437               	retlw	55
  2171  05AB  343E               	retlw	62
  2172  05AC  3401               	retlw	1
  2173  05AD  3408               	retlw	8
  2174  05AE  3413               	retlw	19
  2175  05AF  341A               	retlw	26
  2176  05B0  346D               	retlw	109
  2177  05B1  3464               	retlw	100
  2178  05B2  347F               	retlw	127
  2179  05B3  3476               	retlw	118
  2180  05B4  3449               	retlw	73
  2181  05B5  3440               	retlw	64
  2182  05B6  345B               	retlw	91
  2183  05B7  3452               	retlw	82
  2184  05B8  343C               	retlw	60
  2185  05B9  3435               	retlw	53
  2186  05BA  342E               	retlw	46
  2187  05BB  3427               	retlw	39
  2188  05BC  3418               	retlw	24
  2189  05BD  3411               	retlw	17
  2190  05BE  340A               	retlw	10
  2191  05BF  3403               	retlw	3
  2192  05C0  3474               	retlw	116
  2193  05C1  347D               	retlw	125
  2194  05C2  3466               	retlw	102
  2195  05C3  346F               	retlw	111
  2196  05C4  3450               	retlw	80
  2197  05C5  3459               	retlw	89
  2198  05C6  3442               	retlw	66
  2199  05C7  344B               	retlw	75
  2200  05C8  3417               	retlw	23
  2201  05C9  341E               	retlw	30
  2202  05CA  3405               	retlw	5
  2203  05CB  340C               	retlw	12
  2204  05CC  3433               	retlw	51
  2205  05CD  343A               	retlw	58
  2206  05CE  3421               	retlw	33
  2207  05CF  3428               	retlw	40
  2208  05D0  345F               	retlw	95
  2209  05D1  3456               	retlw	86
  2210  05D2  344D               	retlw	77
  2211  05D3  3444               	retlw	68
  2212  05D4  347B               	retlw	123
  2213  05D5  3472               	retlw	114
  2214  05D6  3469               	retlw	105
  2215  05D7  3460               	retlw	96
  2216  05D8  340E               	retlw	14
  2217  05D9  3407               	retlw	7
  2218  05DA  341C               	retlw	28
  2219  05DB  3415               	retlw	21
  2220  05DC  342A               	retlw	42
  2221  05DD  3423               	retlw	35
  2222  05DE  3438               	retlw	56
  2223  05DF  3431               	retlw	49
  2224  05E0  3446               	retlw	70
  2225  05E1  344F               	retlw	79
  2226  05E2  3454               	retlw	84
  2227  05E3  345D               	retlw	93
  2228  05E4  3462               	retlw	98
  2229  05E5  346B               	retlw	107
  2230  05E6  3470               	retlw	112
  2231  05E7  3479               	retlw	121
  2232  05E8                     __end_of_CRCTable:	
  2233  0011                     _PIR1bits	set	17
  2234  000D                     _PORTBbits	set	13
  2235  001A                     _T1CON	set	26
  2236  000B                     _INTCON	set	11
  2237  000E                     _PORTCbits	set	14
  2238  0088                     _TMR1IF	set	136
  2239  008D                     _TRISBbits	set	141
  2240  0091                     _PIE1	set	145
  2241  009C                     _OSCSTATbits	set	156
  2242  009B                     _OSCCON	set	155
  2243  0477                     _TRISC7	set	1143
  2244  0474                     _TRISC4	set	1140
  2245  0473                     _TRISC3	set	1139
  2246  0472                     _TRISC2	set	1138
  2247  018D                     _ANSELBbits	set	397
  2248  0C73                     _ANSC3	set	3187
  2249  0214                     _SSP1STATbits	set	532
  2250  0211                     _SSP1BUF	set	529
  2251  0212                     _SSP1ADD	set	530
  2252  0215                     _SSP1CON1	set	533
  2253  0214                     _SSP1STAT	set	532
  2254  0215                     _SSP1CON1bits	set	533
  2255  0495                     _T2CON	set	1173
  2256  0494                     _T2PR	set	1172
  2257  0497                     _T2CLKCON	set	1175
  2258  058F                     _DAC1REF	set	1423
  2259  058E                     _DAC1CON0	set	1422
  2260  2C68                     _DAC1LD	set	11368
  2261  0E3B                     _SSPDATPPS	set	3643
  2262  0E3A                     _SSPCLKPPS	set	3642
  2263  0EA4                     _RC4PPS	set	3748
  2264  0EA2                     _RC2PPS	set	3746
  2265                           
  2266                           ; #config settings
  2267  0000                     
  2268                           	psect	cinit
  2269  0042                     start_initialization:	
  2270  0042                     __initialization:		;BIGRAM
  2271                           
  2272                           ; Initialize objects allocated to BANK0
  2273  0042  30B5               	movlw	low __pidataBANK0
  2274  0043  0084               	movwf	4
  2275  0044  308C               	movlw	(high __pidataBANK0)| (0+128)
  2276  0045  0085               	movwf	5
  2277  0046  3048               	movlw	low __pdataBANK0
  2278  0047  0086               	movwf	6
  2279  0048  3000               	movlw	high __pdataBANK0
  2280  0049  0087               	movwf	7
  2281  004A  3000               	movlw	0
  2282  004B  00FF               	movwf	btemp+1
  2283  004C  300D               	movlw	13
  2284  004D  318C  24A9  3180   	fcall	init_ram
  2285                           
  2286                           ; Initialize objects allocated to BANK1
  2287  0050  3015               	movlw	low __pidataBANK1
  2288  0051  0084               	movwf	4
  2289  0052  308E               	movlw	(high __pidataBANK1)| (0+128)
  2290  0053  0085               	movwf	5
  2291  0054  30A0               	movlw	low __pdataBANK1
  2292  0055  0086               	movwf	6
  2293  0056  3000               	movlw	high __pdataBANK1
  2294  0057  0087               	movwf	7
  2295  0058  3000               	movlw	0
  2296  0059  00FF               	movwf	btemp+1
  2297  005A  304E               	movlw	78
  2298  005B  318C  24A9  3180   	fcall	init_ram
  2299                           
  2300                           ; Initialize objects allocated to BANK2
  2301  005E  30C7               	movlw	low __pidataBANK2
  2302  005F  0084               	movwf	4
  2303  0060  308D               	movlw	(high __pidataBANK2)| (0+128)
  2304  0061  0085               	movwf	5
  2305  0062  3020               	movlw	low __pdataBANK2
  2306  0063  0086               	movwf	6
  2307  0064  3001               	movlw	high __pdataBANK2
  2308  0065  0087               	movwf	7
  2309  0066  3000               	movlw	0
  2310  0067  00FF               	movwf	btemp+1
  2311  0068  304E               	movlw	78
  2312  0069  318C  24A9  3180   	fcall	init_ram
  2313                           
  2314                           ; Clear objects allocated to BIGRAM_1
  2315  006C  30F0               	movlw	low (0+9712)
  2316  006D  0084               	movwf	4
  2317  006E  3025               	movlw	high (0+9712)
  2318  006F  0085               	movwf	5
  2319  0070  3000               	movlw	0
  2320  0071  00FE               	movwf	btemp
  2321  0072  3002               	movlw	2
  2322  0073  00FF               	movwf	btemp+1
  2323  0074  318C  249D  3180   	fcall	clear_ram0
  2324                           
  2325                           ; Clear objects allocated to BIGRAM
  2326  0077  30F0               	movlw	low (0+8688)
  2327  0078  0084               	movwf	4
  2328  0079  3021               	movlw	high (0+8688)
  2329  007A  0085               	movwf	5
  2330  007B  3000               	movlw	0
  2331  007C  00FE               	movwf	btemp
  2332  007D  3002               	movlw	2
  2333  007E  00FF               	movwf	btemp+1
  2334  007F  318C  249D  3180   	fcall	clear_ram0
  2335                           
  2336                           ; Clear objects allocated to COMMON
  2337  0082  01FD               	clrf	__pbssCOMMON& (0+127)
  2338                           
  2339                           ; Clear objects allocated to BANK0
  2340  0083  3020               	movlw	low __pbssBANK0
  2341  0084  0084               	movwf	4
  2342  0085  3000               	movlw	high __pbssBANK0
  2343  0086  0085               	movwf	5
  2344  0087  301A               	movlw	26
  2345  0088  00FE               	movwf	btemp
  2346  0089  3000               	movlw	0
  2347  008A  00FF               	movwf	btemp+1
  2348  008B  318C  249D         	fcall	clear_ram0
  2349  008D                     end_of_initialization:	
  2350                           ;End of C runtime variable initialization code
  2351                           
  2352  008D                     __end_of__initialization:	
  2353  008D  107E               	bcf	int$flags,0	;clear compiler interrupt flag (level 1)
  2354  008E  0020               	movlb	0
  2355  008F  318D  2D93         	ljmp	_main	;jump to C main() function
  2356                           
  2357                           	psect	bssCOMMON
  2358  007D                     __pbssCOMMON:	
  2359  007D                     _G_u8charPointer:	
  2360  007D                     	ds	1
  2361                           
  2362                           	psect	bssBANK0
  2363  0020                     __pbssBANK0:	
  2364  0020                     _G_u32timeTrack:	
  2365  0020                     	ds	4
  2366  0024                     timeInterrupt@G_u16secCheck:	
  2367  0024                     	ds	2
  2368  0026                     _G_u16sec:	
  2369  0026                     	ds	2
  2370  0028                     _G_u16min:	
  2371  0028                     	ds	2
  2372  002A                     _G_u16EndAddress:	
  2373  002A                     	ds	2
  2374  002C                     _G_8counter:	
  2375  002C                     	ds	2
  2376  002E                     _snooze:	
  2377  002E                     	ds	1
  2378  002F                     _pressedSnooze:	
  2379  002F                     	ds	1
  2380  0030                     _pressedToggle:	
  2381  0030                     	ds	1
  2382  0031                     _pressedMin:	
  2383  0031                     	ds	1
  2384  0032                     _pressedHour:	
  2385  0032                     	ds	1
  2386  0033                     _pressedTalk:	
  2387  0033                     	ds	1
  2388  0034                     _timeSaid:	
  2389  0034                     	ds	1
  2390  0035                     _G_8hasAddress:	
  2391  0035                     	ds	1
  2392  0036                     _G_8sendbyte:	
  2393  0036                     	ds	1
  2394  0037                     _G_u8play:	
  2395  0037                     	ds	1
  2396  0038                     _G_u16Address:	
  2397  0038                     	ds	2
  2398                           
  2399                           	psect	dataBANK0
  2400  0048                     __pdataBANK0:	
  2401  0048                     _GLBL_Resp40:	
  2402  0048                     	ds	5
  2403  004D                     _G_u16alarmMin:	
  2404  004D                     	ds	2
  2405  004F                     _G_u16alarmHour:	
  2406  004F                     	ds	2
  2407  0051                     _G_u16hour:	
  2408  0051                     	ds	2
  2409  0053                     _setAlarm:	
  2410  0053                     	ds	1
  2411  0054                     _GLBL_Resp8:	
  2412  0054                     	ds	1
  2413                           
  2414                           	psect	dataBANK1
  2415  00A0                     __pdataBANK1:	
  2416  00A0                     _G_au16startAddresses:	
  2417  00A0                     	ds	78
  2418                           
  2419                           	psect	dataBANK2
  2420  0120                     __pdataBANK2:	
  2421  0120                     _G_au16endAddresses:	
  2422  0120                     	ds	78
  2423                           
  2424                           	psect	inittext
  2425  0CA9                     init_ram:	
  2426  0CA9  00FE               	movwf	126
  2427  0CAA                     initloop:	
  2428  0CAA  0012               	moviw fsr0++
  2429  0CAB  001E               	movwi fsr1++
  2430  0CAC  3001               	movlw	1
  2431  0CAD  02FE               	subwf	126,f
  2432  0CAE  3000               	movlw	0
  2433  0CAF  3BFF               	subwfb	127,f
  2434  0CB0  087F               	movf	127,w
  2435  0CB1  047E               	iorwf	126,w
  2436  0CB2  1903               	btfsc	3,2
  2437  0CB3  3400               	retlw	0
  2438  0CB4  2CAA               	goto	initloop
  2439                           
  2440                           	psect	clrtext
  2441  0C9D                     clear_ram0:	
  2442                           ;	Called with FSR0 containing the base address, and
  2443                           ;	btemp/btemp+1 has the size to clear
  2444                           
  2445  0C9D  0064               	clrwdt	;clear the watchdog before getting into this loop
  2446  0C9E                     clrloop0:	
  2447  0C9E  0180               	clrf	0	;clear RAM location pointed to by FSR
  2448  0C9F  3101               	addfsr 0,1
  2449  0CA0  3001               	movlw	1
  2450  0CA1  02FE               	subwf	126,f
  2451  0CA2  3000               	movlw	0
  2452  0CA3  3BFF               	subwfb	127,f
  2453  0CA4  087F               	movf	127,w
  2454  0CA5  047E               	iorwf	126,w
  2455  0CA6  1903               	btfsc	3,2
  2456  0CA7  3400               	retlw	0	;all done for this memory range, return
  2457  0CA8  2C9E               	goto	clrloop0	;have we reached the end yet?
  2458                           
  2459                           	psect	cstackCOMMON
  2460  0070                     __pcstackCOMMON:	
  2461  0070                     ?_SPI_Write:	
  2462  0070                     ??_SPI_Write:	
  2463                           ; 1 bytes @ 0x0
  2464                           
  2465  0070                     ?_SD_Read8bitResponse:	
  2466                           ; 1 bytes @ 0x0
  2467                           
  2468  0070                     ??_SD_Read8bitResponse:	
  2469                           ; 1 bytes @ 0x0
  2470                           
  2471  0070                     ?_SD_Check8bitResponse:	
  2472                           ; 1 bytes @ 0x0
  2473                           
  2474  0070                     ??_SD_Check8bitResponse:	
  2475                           ; 1 bytes @ 0x0
  2476                           
  2477  0070                     ?_SD_Read40bitResponse:	
  2478                           ; 1 bytes @ 0x0
  2479                           
  2480  0070                     ??_SD_Read40bitResponse:	
  2481                           ; 1 bytes @ 0x0
  2482                           
  2483  0070                     ?_SD_Check40bitResponse:	
  2484                           ; 1 bytes @ 0x0
  2485                           
  2486  0070                     ?_SPI_Read:	
  2487                           ; 1 bytes @ 0x0
  2488                           
  2489  0070                     ??_SPI_Read:	
  2490                           ; 1 bytes @ 0x0
  2491                           
  2492  0070                     ?_configButtons:	
  2493                           ; 1 bytes @ 0x0
  2494                           
  2495  0070                     ??_configButtons:	
  2496                           ; 1 bytes @ 0x0
  2497                           
  2498  0070                     ?_checkButtonPress:	
  2499                           ; 1 bytes @ 0x0
  2500                           
  2501  0070                     ?_playAlarm:	
  2502                           ; 1 bytes @ 0x0
  2503                           
  2504  0070                     ?_active:	
  2505                           ; 1 bytes @ 0x0
  2506                           
  2507  0070                     ?_writeDAQ:	
  2508                           ; 1 bytes @ 0x0
  2509                           
  2510  0070                     ??_writeDAQ:	
  2511                           ; 1 bytes @ 0x0
  2512                           
  2513  0070                     ?_SD_Init:	
  2514                           ; 1 bytes @ 0x0
  2515                           
  2516  0070                     ?_SPI_Init:	
  2517                           ; 1 bytes @ 0x0
  2518                           
  2519  0070                     ??_SPI_Init:	
  2520                           ; 1 bytes @ 0x0
  2521                           
  2522  0070                     ?_main:	
  2523                           ; 1 bytes @ 0x0
  2524                           
  2525  0070                     ?_timeInterrupt:	
  2526                           ; 1 bytes @ 0x0
  2527                           
  2528  0070                     ??_timeInterrupt:	
  2529                           ; 1 bytes @ 0x0
  2530                           
  2531  0070                     ?___awdiv:	
  2532                           ; 1 bytes @ 0x0
  2533                           
  2534  0070                     SD_Check8bitResponse@Byte:	
  2535                           ; 2 bytes @ 0x0
  2536                           
  2537  0070                     SD_Check40bitResponse@Byte3:	
  2538                           ; 1 bytes @ 0x0
  2539                           
  2540  0070                     SPI_Write@Data_8bit:	
  2541                           ; 1 bytes @ 0x0
  2542                           
  2543  0070                     ___awdiv@divisor:	
  2544                           ; 1 bytes @ 0x0
  2545                           
  2546                           
  2547                           ; 2 bytes @ 0x0
  2548  0070                     	ds	1
  2549  0071                     ?_SD_SendCommand:	
  2550  0071                     SD_SendCommand@ARG3:	
  2551                           ; 1 bytes @ 0x1
  2552                           
  2553  0071                     SD_Read8bitResponse@readMessage:	
  2554                           ; 1 bytes @ 0x1
  2555                           
  2556  0071                     SD_Check8bitResponse@match:	
  2557                           ; 1 bytes @ 0x1
  2558                           
  2559  0071                     SD_Read40bitResponse@readMessage:	
  2560                           ; 1 bytes @ 0x1
  2561                           
  2562  0071                     SD_Check40bitResponse@Byte2:	
  2563                           ; 1 bytes @ 0x1
  2564                           
  2565                           
  2566                           ; 1 bytes @ 0x1
  2567  0071                     	ds	1
  2568  0072                     SD_SendCommand@ARG2:	
  2569  0072                     SD_Check40bitResponse@Byte1:	
  2570                           ; 1 bytes @ 0x2
  2571                           
  2572  0072                     writeDAQ@writevalue:	
  2573                           ; 1 bytes @ 0x2
  2574                           
  2575  0072                     ___awdiv@dividend:	
  2576                           ; 1 bytes @ 0x2
  2577                           
  2578                           
  2579                           ; 2 bytes @ 0x2
  2580  0072                     	ds	1
  2581  0073                     SD_SendCommand@ARG1:	
  2582  0073                     SD_Check40bitResponse@Byte0:	
  2583                           ; 1 bytes @ 0x3
  2584                           
  2585                           
  2586                           ; 1 bytes @ 0x3
  2587  0073                     	ds	1
  2588  0074                     ??_SD_Check40bitResponse:	
  2589  0074                     ??___awdiv:	
  2590                           ; 1 bytes @ 0x4
  2591                           
  2592  0074                     SD_SendCommand@ARG0:	
  2593                           ; 1 bytes @ 0x4
  2594                           
  2595  0074                     SD_Check40bitResponse@Byte4:	
  2596                           ; 1 bytes @ 0x4
  2597                           
  2598                           
  2599                           ; 1 bytes @ 0x4
  2600  0074                     	ds	1
  2601  0075                     ??_SD_SendCommand:	
  2602  0075                     SD_Check40bitResponse@match:	
  2603                           ; 1 bytes @ 0x5
  2604                           
  2605  0075                     ___awdiv@counter:	
  2606                           ; 1 bytes @ 0x5
  2607                           
  2608                           
  2609                           ; 1 bytes @ 0x5
  2610  0075                     	ds	1
  2611  0076                     SD_SendCommand@CMD_6bit:	
  2612  0076                     ___awdiv@sign:	
  2613                           ; 1 bytes @ 0x6
  2614                           
  2615                           
  2616                           ; 1 bytes @ 0x6
  2617  0076                     	ds	1
  2618  0077                     SD_SendCommand@ByteToSend:	
  2619  0077                     ___awdiv@quotient:	
  2620                           ; 1 bytes @ 0x7
  2621                           
  2622                           
  2623                           ; 2 bytes @ 0x7
  2624  0077                     	ds	1
  2625  0078                     SD_SendCommand@Checksum:	
  2626                           
  2627                           ; 1 bytes @ 0x8
  2628  0078                     	ds	1
  2629  0079                     ??_active:	
  2630  0079                     ??_SD_Init:	
  2631                           ; 1 bytes @ 0x9
  2632                           
  2633                           
  2634                           ; 1 bytes @ 0x9
  2635  0079                     	ds	1
  2636  007A                     active@readMessage:	
  2637                           
  2638                           ; 1 bytes @ 0xA
  2639  007A                     	ds	1
  2640  007B                     ??_playAudio:	
  2641                           
  2642                           ; 1 bytes @ 0xB
  2643  007B                     	ds	1
  2644  007C                     ??_playAlarm:	
  2645  007C                     ??_readTime:	
  2646                           ; 1 bytes @ 0xC
  2647                           
  2648  007C                     ??_playHour:	
  2649                           ; 1 bytes @ 0xC
  2650                           
  2651  007C                     ??_playMinute10:	
  2652                           ; 1 bytes @ 0xC
  2653                           
  2654  007C                     ??_playMinute:	
  2655                           ; 1 bytes @ 0xC
  2656                           
  2657                           
  2658                           ; 1 bytes @ 0xC
  2659  007C                     	ds	1
  2660  007D                     ??_checkButtonPress:	
  2661  007D                     ??_main:	
  2662                           ; 1 bytes @ 0xD
  2663                           
  2664                           
  2665                           	psect	cstackBANK0
  2666  003A                     __pcstackBANK0:	
  2667                           ; 1 bytes @ 0xD
  2668                           
  2669  003A                     ?_playAudio:	
  2670  003A                     playAudio@startAddress:	
  2671                           ; 1 bytes @ 0x0
  2672                           
  2673                           
  2674                           ; 2 bytes @ 0x0
  2675  003A                     	ds	2
  2676  003C                     playAudio@endAddress:	
  2677                           
  2678                           ; 2 bytes @ 0x2
  2679  003C                     	ds	2
  2680  003E                     ?_playHour:	
  2681  003E                     ?_playMinute:	
  2682                           ; 1 bytes @ 0x4
  2683                           
  2684  003E                     playHour@hour:	
  2685                           ; 1 bytes @ 0x4
  2686                           
  2687  003E                     playMinute@minute:	
  2688                           ; 2 bytes @ 0x4
  2689                           
  2690                           
  2691                           ; 2 bytes @ 0x4
  2692  003E                     	ds	2
  2693  0040                     ?_playMinute10:	
  2694  0040                     playMinute10@minute:	
  2695                           ; 1 bytes @ 0x6
  2696                           
  2697                           
  2698                           ; 2 bytes @ 0x6
  2699  0040                     	ds	2
  2700  0042                     ?_readTime:	
  2701  0042                     readTime@hour:	
  2702                           ; 1 bytes @ 0x8
  2703                           
  2704                           
  2705                           ; 2 bytes @ 0x8
  2706  0042                     	ds	2
  2707  0044                     readTime@minute:	
  2708                           
  2709                           ; 2 bytes @ 0xA
  2710  0044                     	ds	2
  2711  0046                     readTime@temphour:	
  2712                           
  2713                           ; 2 bytes @ 0xC
  2714  0046                     	ds	2
  2715                           
  2716                           	psect	maintext
  2717  0D93                     __pmaintext:	
  2718 ;;
  2719 ;;Main: autosize = 0, tempsize = 0, incstack = 0, save=0
  2720 ;;
  2721 ;; *************** function _main *****************
  2722 ;; Defined at:
  2723 ;;		line 63 in file "Lab3_Main.c"
  2724 ;; Parameters:    Size  Location     Type
  2725 ;;		None
  2726 ;; Auto vars:     Size  Location     Type
  2727 ;;		None
  2728 ;; Return value:  Size  Location     Type
  2729 ;;                  1    wreg      void 
  2730 ;; Registers used:
  2731 ;;		wreg, fsr0l, fsr0h, fsr1l, fsr1h, status,2, status,0, pclath, cstack
  2732 ;; Tracked objects:
  2733 ;;		On entry : B1F/0
  2734 ;;		On exit  : 0/0
  2735 ;;		Unchanged: 0/0
  2736 ;; Data sizes:     COMMON   BANK0   BANK1   BANK2   BANK3   BANK4   BANK5   BANK6   BANK7   BANK8   BANK9  BANK10  BANK1
      +1  BANK12  BANK13  BANK14  BANK15  BANK16  BANK17  BANK18  BANK19  BANK20  BANK21  BANK22  BANK23  BANK24  BANK25
  2737 ;;      Params:         0       0       0       0       0       0       0       0       0       0       0       0       
      +0       0       0       0       0       0       0       0       0       0       0       0       0       0       0
  2738 ;;      Locals:         0       0       0       0       0       0       0       0       0       0       0       0       
      +0       0       0       0       0       0       0       0       0       0       0       0       0       0       0
  2739 ;;      Temps:          0       0       0       0       0       0       0       0       0       0       0       0       
      +0       0       0       0       0       0       0       0       0       0       0       0       0       0       0
  2740 ;;      Totals:         0       0       0       0       0       0       0       0       0       0       0       0       
      +0       0       0       0       0       0       0       0       0       0       0       0       0       0       0
  2741 ;;Total ram usage:        0 bytes
  2742 ;; Hardware stack levels required when called:    9
  2743 ;; This function calls:
  2744 ;;		_SD_Init
  2745 ;;		_SPI_Init
  2746 ;;		_checkButtonPress
  2747 ;;		_configButtons
  2748 ;;		_playAlarm
  2749 ;;		_readTime
  2750 ;; This function is called by:
  2751 ;;		Startup code after reset
  2752 ;; This function uses a non-reentrant model
  2753 ;;
  2754                           
  2755                           
  2756                           ;psect for function _main
  2757  0D93                     _main:	
  2758                           
  2759                           ;Lab3_Main.c: 66:     OSCCON = 0xF4;
  2760                           
  2761                           ;incstack = 0
  2762                           ; Regs used in _main: [wreg-fsr1h+status,2+status,0+pclath+cstack]
  2763  0D93  30F4               	movlw	244
  2764  0D94  0021               	movlb	1	; select bank1
  2765  0D95  009B               	movwf	27	;volatile
  2766  0D96                     l246:	
  2767                           ;Lab3_Main.c: 67:     while(OSCSTATbits.HFIOFR == 0);
  2768                           
  2769  0D96  1E1C               	btfss	28,4	;volatile
  2770  0D97  2D96               	goto	l246
  2771                           
  2772                           ;Lab3_Main.c: 69:     SPI_Init();
  2773  0D98  318D  251E  318D   	fcall	_SPI_Init
  2774                           
  2775                           ;Lab3_Main.c: 70:     SD_Init();
  2776  0D9B  318F  2774  318D   	fcall	_SD_Init
  2777                           
  2778                           ;Lab3_Main.c: 71:     configButtons();
  2779  0D9E  318C  24EB  318D   	fcall	_configButtons
  2780                           
  2781                           ;Lab3_Main.c: 73:     DAC1CON0 = 0xA0;
  2782  0DA1  30A0               	movlw	160
  2783  0DA2  002B               	movlb	11	; select bank11
  2784  0DA3  008E               	movwf	14	;volatile
  2785                           
  2786                           ;Lab3_Main.c: 74:     T2CLKCON = 0x05;
  2787  0DA4  3005               	movlw	5
  2788  0DA5  0029               	movlb	9	; select bank9
  2789  0DA6  0097               	movwf	23	;volatile
  2790                           
  2791                           ;Lab3_Main.c: 75:     T2PR = 0x1f;
  2792  0DA7  301F               	movlw	31
  2793  0DA8  0094               	movwf	20	;volatile
  2794                           
  2795                           ;Lab3_Main.c: 76:     T2CON = 0x80;
  2796  0DA9  3080               	movlw	128
  2797  0DAA  0095               	movwf	21	;volatile
  2798                           
  2799                           ;Lab3_Main.c: 78:     INTCON = 0xC0;
  2800  0DAB  30C0               	movlw	192
  2801  0DAC  008B               	movwf	11	;volatile
  2802                           
  2803                           ;Lab3_Main.c: 79:     PIE1 = 0x01;
  2804  0DAD  3001               	movlw	1
  2805  0DAE  0021               	movlb	1	; select bank1
  2806  0DAF  0091               	movwf	17	;volatile
  2807                           
  2808                           ;Lab3_Main.c: 80:     T1CON = 0xC3;
  2809  0DB0  30C3               	movlw	195
  2810  0DB1  0020               	movlb	0	; select bank0
  2811  0DB2  009A               	movwf	26	;volatile
  2812                           
  2813                           ;Lab3_Main.c: 81:     TMR1IF = 0;
  2814  0DB3  1011               	bcf	17,0	;volatile
  2815  0DB4                     l2482:	
  2816                           
  2817                           ;Lab3_Main.c: 84:     {;Lab3_Main.c: 85:     checkButtonPress();
  2818  0DB4  3185  25E8  318D   	fcall	_checkButtonPress
  2819                           
  2820                           ;Lab3_Main.c: 86:     playAlarm();
  2821  0DB7  318D  253B  318D   	fcall	_playAlarm
  2822                           
  2823                           ;Lab3_Main.c: 87:     readTime(G_u16hour, G_u16min);
  2824  0DBA  0020               	movlb	0	; select bank0
  2825  0DBB  0852               	movf	_G_u16hour+1,w
  2826  0DBC  00C3               	movwf	readTime@hour+1
  2827  0DBD  0851               	movf	_G_u16hour,w
  2828  0DBE  00C2               	movwf	readTime@hour
  2829  0DBF  0829               	movf	_G_u16min+1,w
  2830  0DC0  00C5               	movwf	readTime@minute+1
  2831  0DC1  0828               	movf	_G_u16min,w
  2832  0DC2  00C4               	movwf	readTime@minute
  2833  0DC3  318E  26B4  318D   	fcall	_readTime
  2834  0DC6  2DB4               	goto	l2482
  2835  0DC7                     __end_of_main:	
  2836                           
  2837                           	psect	text1
  2838  0D3B                     __ptext1:	
  2839 ;; *************** function _playAlarm *****************
  2840 ;; Defined at:
  2841 ;;		line 228 in file "Lab3_Main.c"
  2842 ;; Parameters:    Size  Location     Type
  2843 ;;		None
  2844 ;; Auto vars:     Size  Location     Type
  2845 ;;		None
  2846 ;; Return value:  Size  Location     Type
  2847 ;;                  1    wreg      void 
  2848 ;; Registers used:
  2849 ;;		wreg, fsr0l, fsr0h, fsr1l, fsr1h, status,2, status,0, pclath, cstack
  2850 ;; Tracked objects:
  2851 ;;		On entry : 0/0
  2852 ;;		On exit  : 0/0
  2853 ;;		Unchanged: 0/0
  2854 ;; Data sizes:     COMMON   BANK0   BANK1   BANK2   BANK3   BANK4   BANK5   BANK6   BANK7   BANK8   BANK9  BANK10  BANK1
      +1  BANK12  BANK13  BANK14  BANK15  BANK16  BANK17  BANK18  BANK19  BANK20  BANK21  BANK22  BANK23  BANK24  BANK25
  2855 ;;      Params:         0       0       0       0       0       0       0       0       0       0       0       0       
      +0       0       0       0       0       0       0       0       0       0       0       0       0       0       0
  2856 ;;      Locals:         0       0       0       0       0       0       0       0       0       0       0       0       
      +0       0       0       0       0       0       0       0       0       0       0       0       0       0       0
  2857 ;;      Temps:          0       0       0       0       0       0       0       0       0       0       0       0       
      +0       0       0       0       0       0       0       0       0       0       0       0       0       0       0
  2858 ;;      Totals:         0       0       0       0       0       0       0       0       0       0       0       0       
      +0       0       0       0       0       0       0       0       0       0       0       0       0       0       0
  2859 ;;Total ram usage:        0 bytes
  2860 ;; Hardware stack levels used:    1
  2861 ;; Hardware stack levels required when called:    5
  2862 ;; This function calls:
  2863 ;;		_playAudio
  2864 ;; This function is called by:
  2865 ;;		_main
  2866 ;; This function uses a non-reentrant model
  2867 ;;
  2868                           
  2869                           
  2870                           ;psect for function _playAlarm
  2871  0D3B                     _playAlarm:	
  2872                           
  2873                           ;Lab3_Main.c: 230:     if (G_u16hour == G_u16alarmHour && G_u16min == G_u16alarmMin && !
      +                          snooze)
  2874                           
  2875                           ;incstack = 0
  2876                           ; Regs used in _playAlarm: [wreg-fsr1h+status,2+status,0+pclath+cstack]
  2877  0D3B  0020               	movlb	0	; select bank0
  2878  0D3C  0850               	movf	_G_u16alarmHour+1,w
  2879  0D3D  0652               	xorwf	_G_u16hour+1,w
  2880  0D3E  1D03               	skipz
  2881  0D3F  2D42               	goto	u2805
  2882  0D40  084F               	movf	_G_u16alarmHour,w
  2883  0D41  0651               	xorwf	_G_u16hour,w
  2884  0D42                     u2805:	
  2885  0D42  1D03               	skipz
  2886  0D43  0008               	return
  2887  0D44  084E               	movf	_G_u16alarmMin+1,w
  2888  0D45  0629               	xorwf	_G_u16min+1,w
  2889  0D46  1D03               	skipz
  2890  0D47  2D4A               	goto	u2815
  2891  0D48  084D               	movf	_G_u16alarmMin,w
  2892  0D49  0628               	xorwf	_G_u16min,w
  2893  0D4A                     u2815:	
  2894  0D4A  1D03               	skipz
  2895  0D4B  0008               	return
  2896  0D4C  082E               	movf	_snooze,w
  2897  0D4D  1D03               	btfss	3,2
  2898  0D4E  0008               	return
  2899                           
  2900                           ;Lab3_Main.c: 231:     {;Lab3_Main.c: 232:         timeSaid= 1;
  2901  0D4F  01B4               	clrf	_timeSaid
  2902  0D50  0AB4               	incf	_timeSaid,f
  2903                           
  2904                           ;Lab3_Main.c: 233:         playAudio(G_au16startAddresses[37],G_au16endAddresses[37]);
  2905  0D51  0021               	movlb	1	; select bank1
  2906  0D52  086B               	movf	((_G_au16startAddresses+1)^(0+128)+74),w
  2907  0D53  0020               	movlb	0	; select bank0
  2908  0D54  00BB               	movwf	playAudio@startAddress+1
  2909  0D55  0021               	movlb	1	; select bank1
  2910  0D56  086A               	movf	(_G_au16startAddresses^(0+128)+74),w
  2911  0D57  0020               	movlb	0	; select bank0
  2912  0D58  00BA               	movwf	playAudio@startAddress
  2913  0D59  0022               	movlb	2	; select bank2
  2914  0D5A  086B               	movf	((_G_au16endAddresses+1)^(0+256)+74),w
  2915  0D5B  0020               	movlb	0	; select bank0
  2916  0D5C  00BD               	movwf	playAudio@endAddress+1
  2917  0D5D  0022               	movlb	2	; select bank2
  2918  0D5E  086A               	movf	(_G_au16endAddresses^(0+256)+74),w
  2919  0D5F  0020               	movlb	0	; select bank0
  2920  0D60  00BC               	movwf	playAudio@endAddress
  2921  0D61  318C  24D3         	fcall	_playAudio
  2922                           
  2923                           ;Lab3_Main.c: 234:         timeSaid = 0;
  2924  0D63  0020               	movlb	0	; select bank0
  2925  0D64  01B4               	clrf	_timeSaid
  2926  0D65  0008               	return
  2927  0D66                     __end_of_playAlarm:	
  2928                           
  2929                           	psect	text2
  2930  0CEB                     __ptext2:	
  2931 ;; *************** function _configButtons *****************
  2932 ;; Defined at:
  2933 ;;		line 92 in file "Lab3_Main.c"
  2934 ;; Parameters:    Size  Location     Type
  2935 ;;		None
  2936 ;; Auto vars:     Size  Location     Type
  2937 ;;		None
  2938 ;; Return value:  Size  Location     Type
  2939 ;;                  1    wreg      void 
  2940 ;; Registers used:
  2941 ;;		None
  2942 ;; Tracked objects:
  2943 ;;		On entry : 0/0
  2944 ;;		On exit  : 0/0
  2945 ;;		Unchanged: 0/0
  2946 ;; Data sizes:     COMMON   BANK0   BANK1   BANK2   BANK3   BANK4   BANK5   BANK6   BANK7   BANK8   BANK9  BANK10  BANK1
      +1  BANK12  BANK13  BANK14  BANK15  BANK16  BANK17  BANK18  BANK19  BANK20  BANK21  BANK22  BANK23  BANK24  BANK25
  2947 ;;      Params:         0       0       0       0       0       0       0       0       0       0       0       0       
      +0       0       0       0       0       0       0       0       0       0       0       0       0       0       0
  2948 ;;      Locals:         0       0       0       0       0       0       0       0       0       0       0       0       
      +0       0       0       0       0       0       0       0       0       0       0       0       0       0       0
  2949 ;;      Temps:          0       0       0       0       0       0       0       0       0       0       0       0       
      +0       0       0       0       0       0       0       0       0       0       0       0       0       0       0
  2950 ;;      Totals:         0       0       0       0       0       0       0       0       0       0       0       0       
      +0       0       0       0       0       0       0       0       0       0       0       0       0       0       0
  2951 ;;Total ram usage:        0 bytes
  2952 ;; Hardware stack levels used:    1
  2953 ;; Hardware stack levels required when called:    1
  2954 ;; This function calls:
  2955 ;;		Nothing
  2956 ;; This function is called by:
  2957 ;;		_main
  2958 ;; This function uses a non-reentrant model
  2959 ;;
  2960                           
  2961                           
  2962                           ;psect for function _configButtons
  2963  0CEB                     _configButtons:	
  2964                           
  2965                           ;Lab3_Main.c: 94:     TRISBbits.TRISB4 = 1;
  2966                           
  2967                           ;incstack = 0
  2968                           ; Regs used in _configButtons: []
  2969  0CEB  0021               	movlb	1	; select bank1
  2970  0CEC  160D               	bsf	13,4	;volatile
  2971                           
  2972                           ;Lab3_Main.c: 95:     ANSELBbits.ANSB4 = 0;
  2973  0CED  0023               	movlb	3	; select bank3
  2974  0CEE  120D               	bcf	13,4	;volatile
  2975                           
  2976                           ;Lab3_Main.c: 96:     TRISBbits.TRISB3 = 1;
  2977  0CEF  0021               	movlb	1	; select bank1
  2978  0CF0  158D               	bsf	13,3	;volatile
  2979                           
  2980                           ;Lab3_Main.c: 97:     ANSELBbits.ANSB3 = 0;
  2981  0CF1  0023               	movlb	3	; select bank3
  2982  0CF2  118D               	bcf	13,3	;volatile
  2983                           
  2984                           ;Lab3_Main.c: 98:     TRISBbits.TRISB2 = 1;
  2985  0CF3  0021               	movlb	1	; select bank1
  2986  0CF4  150D               	bsf	13,2	;volatile
  2987                           
  2988                           ;Lab3_Main.c: 99:     ANSELBbits.ANSB2 = 0;
  2989  0CF5  0023               	movlb	3	; select bank3
  2990  0CF6  110D               	bcf	13,2	;volatile
  2991                           
  2992                           ;Lab3_Main.c: 100:     TRISBbits.TRISB1 = 1;
  2993  0CF7  0021               	movlb	1	; select bank1
  2994  0CF8  148D               	bsf	13,1	;volatile
  2995                           
  2996                           ;Lab3_Main.c: 101:     ANSELBbits.ANSB1 = 0;
  2997  0CF9  0023               	movlb	3	; select bank3
  2998  0CFA  108D               	bcf	13,1	;volatile
  2999                           
  3000                           ;Lab3_Main.c: 102:     TRISBbits.TRISB0 = 1;
  3001  0CFB  0021               	movlb	1	; select bank1
  3002  0CFC  140D               	bsf	13,0	;volatile
  3003                           
  3004                           ;Lab3_Main.c: 103:     ANSELBbits.ANSB0 = 0;
  3005  0CFD  0023               	movlb	3	; select bank3
  3006  0CFE  100D               	bcf	13,0	;volatile
  3007                           
  3008                           ;Lab3_Main.c: 104:     TRISBbits.TRISB5 = 0;
  3009  0CFF  0021               	movlb	1	; select bank1
  3010  0D00  128D               	bcf	13,5	;volatile
  3011                           
  3012                           ;Lab3_Main.c: 105:     ANSELBbits.ANSB5 = 0;
  3013  0D01  0023               	movlb	3	; select bank3
  3014  0D02  128D               	bcf	13,5	;volatile
  3015                           
  3016                           ;Lab3_Main.c: 106:     return;
  3017  0D03  0008               	return
  3018  0D04                     __end_of_configButtons:	
  3019                           
  3020                           	psect	text3
  3021  05E8                     __ptext3:	
  3022 ;; *************** function _checkButtonPress *****************
  3023 ;; Defined at:
  3024 ;;		line 109 in file "Lab3_Main.c"
  3025 ;; Parameters:    Size  Location     Type
  3026 ;;		None
  3027 ;; Auto vars:     Size  Location     Type
  3028 ;;		None
  3029 ;; Return value:  Size  Location     Type
  3030 ;;                  1    wreg      void 
  3031 ;; Registers used:
  3032 ;;		wreg, fsr0l, fsr0h, fsr1l, fsr1h, status,2, status,0, pclath, cstack
  3033 ;; Tracked objects:
  3034 ;;		On entry : 0/0
  3035 ;;		On exit  : 0/0
  3036 ;;		Unchanged: 0/0
  3037 ;; Data sizes:     COMMON   BANK0   BANK1   BANK2   BANK3   BANK4   BANK5   BANK6   BANK7   BANK8   BANK9  BANK10  BANK1
      +1  BANK12  BANK13  BANK14  BANK15  BANK16  BANK17  BANK18  BANK19  BANK20  BANK21  BANK22  BANK23  BANK24  BANK25
  3038 ;;      Params:         0       0       0       0       0       0       0       0       0       0       0       0       
      +0       0       0       0       0       0       0       0       0       0       0       0       0       0       0
  3039 ;;      Locals:         0       0       0       0       0       0       0       0       0       0       0       0       
      +0       0       0       0       0       0       0       0       0       0       0       0       0       0       0
  3040 ;;      Temps:          0       0       0       0       0       0       0       0       0       0       0       0       
      +0       0       0       0       0       0       0       0       0       0       0       0       0       0       0
  3041 ;;      Totals:         0       0       0       0       0       0       0       0       0       0       0       0       
      +0       0       0       0       0       0       0       0       0       0       0       0       0       0       0
  3042 ;;Total ram usage:        0 bytes
  3043 ;; Hardware stack levels used:    1
  3044 ;; Hardware stack levels required when called:    8
  3045 ;; This function calls:
  3046 ;;		_playAudio
  3047 ;;		_readTime
  3048 ;; This function is called by:
  3049 ;;		_main
  3050 ;; This function uses a non-reentrant model
  3051 ;;
  3052                           
  3053                           
  3054                           ;psect for function _checkButtonPress
  3055  05E8                     _checkButtonPress:	
  3056                           
  3057                           ;Lab3_Main.c: 112:         if (PORTBbits.RB4 == 1 && !pressedTalk)
  3058                           
  3059                           ;incstack = 0
  3060                           ; Regs used in _checkButtonPress: [wreg-fsr1h+status,2+status,0+pclath+cstack]
  3061  05E8  0020               	movlb	0	; select bank0
  3062  05E9  1E0D               	btfss	13,4	;volatile
  3063  05EA  2DF0               	goto	l258
  3064  05EB  0833               	movf	_pressedTalk,w
  3065  05EC  1D03               	btfss	3,2
  3066  05ED  2DF0               	goto	l258
  3067                           
  3068                           ;Lab3_Main.c: 113:         {;Lab3_Main.c: 114:             pressedTalk = 1;
  3069  05EE  01B3               	clrf	_pressedTalk
  3070  05EF  0AB3               	incf	_pressedTalk,f
  3071  05F0                     l258:	
  3072                           ;Lab3_Main.c: 115:         }
  3073                           
  3074                           
  3075                           ;Lab3_Main.c: 116:         if (PORTBbits.RB4 == 0 && pressedTalk)
  3076  05F0  1A0D               	btfsc	13,4	;volatile
  3077  05F1  2DF8               	goto	l2294
  3078  05F2  0833               	movf	_pressedTalk,w
  3079  05F3  1903               	btfsc	3,2
  3080  05F4  2DF8               	goto	l2294
  3081                           
  3082                           ;Lab3_Main.c: 117:         {;Lab3_Main.c: 118:             pressedTalk = 0;
  3083  05F5  01B3               	clrf	_pressedTalk
  3084                           
  3085                           ;Lab3_Main.c: 119:             timeSaid = 1;
  3086  05F6  01B4               	clrf	_timeSaid
  3087  05F7  0AB4               	incf	_timeSaid,f
  3088  05F8                     l2294:	
  3089                           
  3090                           ;Lab3_Main.c: 123:         if (PORTBbits.RB3 == 1 && !pressedHour)
  3091  05F8  1D8D               	btfss	13,3	;volatile
  3092  05F9  2DFF               	goto	l260
  3093  05FA  0832               	movf	_pressedHour,w
  3094  05FB  1D03               	btfss	3,2
  3095  05FC  2DFF               	goto	l260
  3096                           
  3097                           ;Lab3_Main.c: 124:         {;Lab3_Main.c: 125:             pressedHour = 1;
  3098  05FD  01B2               	clrf	_pressedHour
  3099  05FE  0AB2               	incf	_pressedHour,f
  3100  05FF                     l260:	
  3101                           ;Lab3_Main.c: 126:         }
  3102                           
  3103                           
  3104                           ;Lab3_Main.c: 127:         if (PORTBbits.RB3 == 0 && pressedHour)
  3105  05FF  198D               	btfsc	13,3	;volatile
  3106  0600  2E35               	goto	l2326
  3107  0601  0832               	movf	_pressedHour,w
  3108  0602  1903               	btfsc	3,2
  3109  0603  2E35               	goto	l2326
  3110                           
  3111                           ;Lab3_Main.c: 128:         {;Lab3_Main.c: 129:             pressedHour = 0;
  3112  0604  01B2               	clrf	_pressedHour
  3113                           
  3114                           ;Lab3_Main.c: 130:             if (setAlarm)
  3115  0605  0853               	movf	_setAlarm,w
  3116  0606  1903               	btfsc	3,2
  3117  0607  2E1D               	goto	l2316
  3118                           
  3119                           ;Lab3_Main.c: 131:             {;Lab3_Main.c: 132:                 G_u16alarmHour++;
  3120  0608  3001               	movlw	1
  3121  0609  07CF               	addwf	_G_u16alarmHour,f
  3122  060A  3000               	movlw	0
  3123  060B  3DD0               	addwfc	_G_u16alarmHour+1,f
  3124                           
  3125                           ;Lab3_Main.c: 133:                 if (G_u16alarmHour == 24)
  3126  060C  3018               	movlw	24
  3127  060D  064F               	xorwf	_G_u16alarmHour,w
  3128  060E  0450               	iorwf	_G_u16alarmHour+1,w
  3129  060F  1D03               	btfss	3,2
  3130  0610  2E13               	goto	l2312
  3131                           
  3132                           ;Lab3_Main.c: 134:                 {;Lab3_Main.c: 135:                     G_u16alarmHou
      +                          r = 0;
  3133  0611  01CF               	clrf	_G_u16alarmHour
  3134  0612  01D0               	clrf	_G_u16alarmHour+1
  3135  0613                     l2312:	
  3136                           
  3137                           ;Lab3_Main.c: 137:                 timeSaid = 1;
  3138  0613  01B4               	clrf	_timeSaid
  3139  0614  0AB4               	incf	_timeSaid,f
  3140                           
  3141                           ;Lab3_Main.c: 138:                 readTime(G_u16alarmHour, G_u16alarmMin);
  3142  0615  0850               	movf	_G_u16alarmHour+1,w
  3143  0616  00C3               	movwf	readTime@hour+1
  3144  0617  084F               	movf	_G_u16alarmHour,w
  3145  0618  00C2               	movwf	readTime@hour
  3146  0619  084E               	movf	_G_u16alarmMin+1,w
  3147  061A  00C5               	movwf	readTime@minute+1
  3148  061B  084D               	movf	_G_u16alarmMin,w
  3149  061C  2E31               	goto	L1
  3150  061D                     l2316:	
  3151                           ;Lab3_Main.c: 139:             } else {
  3152                           
  3153                           
  3154                           ;Lab3_Main.c: 140:                 G_u16hour++;
  3155  061D  3001               	movlw	1
  3156  061E  07D1               	addwf	_G_u16hour,f
  3157  061F  3000               	movlw	0
  3158  0620  3DD2               	addwfc	_G_u16hour+1,f
  3159                           
  3160                           ;Lab3_Main.c: 141:                 if (G_u16hour == 24)
  3161  0621  3018               	movlw	24
  3162  0622  0651               	xorwf	_G_u16hour,w
  3163  0623  0452               	iorwf	_G_u16hour+1,w
  3164  0624  1D03               	btfss	3,2
  3165  0625  2E28               	goto	l2322
  3166                           
  3167                           ;Lab3_Main.c: 142:                 {;Lab3_Main.c: 143:                     G_u16hour = 0
      +                          ;
  3168  0626  01D1               	clrf	_G_u16hour
  3169  0627  01D2               	clrf	_G_u16hour+1
  3170  0628                     l2322:	
  3171                           
  3172                           ;Lab3_Main.c: 145:                 timeSaid = 1;
  3173  0628  01B4               	clrf	_timeSaid
  3174  0629  0AB4               	incf	_timeSaid,f
  3175                           
  3176                           ;Lab3_Main.c: 146:                 readTime(G_u16hour, G_u16min);
  3177  062A  0852               	movf	_G_u16hour+1,w
  3178  062B  00C3               	movwf	readTime@hour+1
  3179  062C  0851               	movf	_G_u16hour,w
  3180  062D  00C2               	movwf	readTime@hour
  3181  062E  0829               	movf	_G_u16min+1,w
  3182  062F  00C5               	movwf	readTime@minute+1
  3183  0630  0828               	movf	_G_u16min,w
  3184  0631                     L1:	
  3185  0631  00C4               	movwf	readTime@minute
  3186  0632  318E  26B4  3185   	fcall	_readTime
  3187  0635                     l2326:	
  3188                           
  3189                           ;Lab3_Main.c: 151:         if (PORTBbits.RB2 == 1 && !pressedMin)
  3190  0635  0020               	movlb	0	; select bank0
  3191  0636  1D0D               	btfss	13,2	;volatile
  3192  0637  2E3D               	goto	l266
  3193  0638  0831               	movf	_pressedMin,w
  3194  0639  1D03               	btfss	3,2
  3195  063A  2E3D               	goto	l266
  3196                           
  3197                           ;Lab3_Main.c: 152:         {;Lab3_Main.c: 153:             pressedMin = 1;
  3198  063B  01B1               	clrf	_pressedMin
  3199  063C  0AB1               	incf	_pressedMin,f
  3200  063D                     l266:	
  3201                           ;Lab3_Main.c: 154:         }
  3202                           
  3203                           
  3204                           ;Lab3_Main.c: 155:         if (PORTBbits.RB2 == 0 && pressedMin)
  3205  063D  190D               	btfsc	13,2	;volatile
  3206  063E  2E73               	goto	l2358
  3207  063F  0831               	movf	_pressedMin,w
  3208  0640  1903               	btfsc	3,2
  3209  0641  2E73               	goto	l2358
  3210                           
  3211                           ;Lab3_Main.c: 156:         {;Lab3_Main.c: 157:            pressedMin = 0;
  3212  0642  01B1               	clrf	_pressedMin
  3213                           
  3214                           ;Lab3_Main.c: 158:            if (setAlarm)
  3215  0643  0853               	movf	_setAlarm,w
  3216  0644  1903               	btfsc	3,2
  3217  0645  2E5B               	goto	l2348
  3218                           
  3219                           ;Lab3_Main.c: 159:             {;Lab3_Main.c: 160:                 G_u16alarmMin++;
  3220  0646  3001               	movlw	1
  3221  0647  07CD               	addwf	_G_u16alarmMin,f
  3222  0648  3000               	movlw	0
  3223  0649  3DCE               	addwfc	_G_u16alarmMin+1,f
  3224                           
  3225                           ;Lab3_Main.c: 161:                 if (G_u16alarmMin == 60)
  3226  064A  303C               	movlw	60
  3227  064B  064D               	xorwf	_G_u16alarmMin,w
  3228  064C  044E               	iorwf	_G_u16alarmMin+1,w
  3229  064D  1D03               	btfss	3,2
  3230  064E  2E51               	goto	l2344
  3231                           
  3232                           ;Lab3_Main.c: 162:                 {;Lab3_Main.c: 163:                     G_u16alarmMin
      +                           = 0;
  3233  064F  01CD               	clrf	_G_u16alarmMin
  3234  0650  01CE               	clrf	_G_u16alarmMin+1
  3235  0651                     l2344:	
  3236                           
  3237                           ;Lab3_Main.c: 165:                 timeSaid = 1;
  3238  0651  01B4               	clrf	_timeSaid
  3239  0652  0AB4               	incf	_timeSaid,f
  3240                           
  3241                           ;Lab3_Main.c: 166:                 readTime(G_u16alarmHour, G_u16alarmMin);
  3242  0653  0850               	movf	_G_u16alarmHour+1,w
  3243  0654  00C3               	movwf	readTime@hour+1
  3244  0655  084F               	movf	_G_u16alarmHour,w
  3245  0656  00C2               	movwf	readTime@hour
  3246  0657  084E               	movf	_G_u16alarmMin+1,w
  3247  0658  00C5               	movwf	readTime@minute+1
  3248  0659  084D               	movf	_G_u16alarmMin,w
  3249  065A  2E6F               	goto	L2
  3250  065B                     l2348:	
  3251                           ;Lab3_Main.c: 167:             } else {
  3252                           
  3253                           
  3254                           ;Lab3_Main.c: 168:                 G_u16min++;
  3255  065B  3001               	movlw	1
  3256  065C  07A8               	addwf	_G_u16min,f
  3257  065D  3000               	movlw	0
  3258  065E  3DA9               	addwfc	_G_u16min+1,f
  3259                           
  3260                           ;Lab3_Main.c: 169:                 if (G_u16min == 60)
  3261  065F  303C               	movlw	60
  3262  0660  0628               	xorwf	_G_u16min,w
  3263  0661  0429               	iorwf	_G_u16min+1,w
  3264  0662  1D03               	btfss	3,2
  3265  0663  2E66               	goto	l2354
  3266                           
  3267                           ;Lab3_Main.c: 170:                 {;Lab3_Main.c: 171:                     G_u16min = 0;
  3268  0664  01A8               	clrf	_G_u16min
  3269  0665  01A9               	clrf	_G_u16min+1
  3270  0666                     l2354:	
  3271                           
  3272                           ;Lab3_Main.c: 173:                 timeSaid = 1;
  3273  0666  01B4               	clrf	_timeSaid
  3274  0667  0AB4               	incf	_timeSaid,f
  3275                           
  3276                           ;Lab3_Main.c: 174:                 readTime(G_u16hour, G_u16min);
  3277  0668  0852               	movf	_G_u16hour+1,w
  3278  0669  00C3               	movwf	readTime@hour+1
  3279  066A  0851               	movf	_G_u16hour,w
  3280  066B  00C2               	movwf	readTime@hour
  3281  066C  0829               	movf	_G_u16min+1,w
  3282  066D  00C5               	movwf	readTime@minute+1
  3283  066E  0828               	movf	_G_u16min,w
  3284  066F                     L2:	
  3285  066F  00C4               	movwf	readTime@minute
  3286  0670  318E  26B4  3185   	fcall	_readTime
  3287  0673                     l2358:	
  3288                           
  3289                           ;Lab3_Main.c: 179:         if (PORTBbits.RB1 == 1 && !pressedToggle)
  3290  0673  0020               	movlb	0	; select bank0
  3291  0674  1C8D               	btfss	13,1	;volatile
  3292  0675  2E7B               	goto	l272
  3293  0676  0830               	movf	_pressedToggle,w
  3294  0677  1D03               	btfss	3,2
  3295  0678  2E7B               	goto	l272
  3296                           
  3297                           ;Lab3_Main.c: 180:         {;Lab3_Main.c: 181:             pressedToggle = 1;
  3298  0679  01B0               	clrf	_pressedToggle
  3299  067A  0AB0               	incf	_pressedToggle,f
  3300  067B                     l272:	
  3301                           ;Lab3_Main.c: 182:         }
  3302                           
  3303                           
  3304                           ;Lab3_Main.c: 183:         if (PORTBbits.RB1 == 0 && pressedToggle)
  3305  067B  188D               	btfsc	13,1	;volatile
  3306  067C  0008               	return
  3307  067D  0830               	movf	_pressedToggle,w
  3308  067E  1903               	btfsc	3,2
  3309  067F  0008               	return
  3310                           
  3311                           ;Lab3_Main.c: 184:         {;Lab3_Main.c: 185:             pressedToggle = 0;
  3312  0680  01B0               	clrf	_pressedToggle
  3313                           
  3314                           ;Lab3_Main.c: 186:             if (setAlarm)
  3315  0681  0853               	movf	_setAlarm,w
  3316  0682  1903               	btfsc	3,2
  3317  0683  2EAF               	goto	l274
  3318                           
  3319                           ;Lab3_Main.c: 187:             {;Lab3_Main.c: 188:                 setAlarm = 0;
  3320  0684  01D3               	clrf	_setAlarm
  3321                           
  3322                           ;Lab3_Main.c: 189:                 timeSaid = 1;
  3323  0685  01B4               	clrf	_timeSaid
  3324  0686  0AB4               	incf	_timeSaid,f
  3325                           
  3326                           ;Lab3_Main.c: 190:                 playAudio(G_au16startAddresses[35],G_au16endAddresses
      +                          [35] );
  3327  0687  0021               	movlb	1	; select bank1
  3328  0688  0867               	movf	((_G_au16startAddresses+1)^(0+128)+70),w
  3329  0689  0020               	movlb	0	; select bank0
  3330  068A  00BB               	movwf	playAudio@startAddress+1
  3331  068B  0021               	movlb	1	; select bank1
  3332  068C  0866               	movf	(_G_au16startAddresses^(0+128)+70),w
  3333  068D  0020               	movlb	0	; select bank0
  3334  068E  00BA               	movwf	playAudio@startAddress
  3335  068F  0022               	movlb	2	; select bank2
  3336  0690  0867               	movf	((_G_au16endAddresses+1)^(0+256)+70),w
  3337  0691  0020               	movlb	0	; select bank0
  3338  0692  00BD               	movwf	playAudio@endAddress+1
  3339  0693  0022               	movlb	2	; select bank2
  3340  0694  0866               	movf	(_G_au16endAddresses^(0+256)+70),w
  3341  0695  0020               	movlb	0	; select bank0
  3342  0696  00BC               	movwf	playAudio@endAddress
  3343  0697  318C  24D3  3185   	fcall	_playAudio
  3344                           
  3345                           ;Lab3_Main.c: 191:                 playAudio(G_au16startAddresses[36],G_au16endAddresses
      +                          [36] );
  3346  069A  0021               	movlb	1	; select bank1
  3347  069B  0869               	movf	((_G_au16startAddresses+1)^(0+128)+72),w
  3348  069C  0020               	movlb	0	; select bank0
  3349  069D  00BB               	movwf	playAudio@startAddress+1
  3350  069E  0021               	movlb	1	; select bank1
  3351  069F  0868               	movf	(_G_au16startAddresses^(0+128)+72),w
  3352  06A0  0020               	movlb	0	; select bank0
  3353  06A1  00BA               	movwf	playAudio@startAddress
  3354  06A2  0022               	movlb	2	; select bank2
  3355  06A3  0869               	movf	((_G_au16endAddresses+1)^(0+256)+72),w
  3356  06A4  0020               	movlb	0	; select bank0
  3357  06A5  00BD               	movwf	playAudio@endAddress+1
  3358  06A6  0022               	movlb	2	; select bank2
  3359  06A7  0868               	movf	(_G_au16endAddresses^(0+256)+72),w
  3360  06A8  0020               	movlb	0	; select bank0
  3361  06A9  00BC               	movwf	playAudio@endAddress
  3362  06AA  318C  24D3         	fcall	_playAudio
  3363                           
  3364                           ;Lab3_Main.c: 192:                 timeSaid = 0;
  3365  06AC  0020               	movlb	0	; select bank0
  3366  06AD  01B4               	clrf	_timeSaid
  3367                           
  3368                           ;Lab3_Main.c: 193:             }
  3369  06AE  0008               	return
  3370  06AF                     l274:	
  3371                           ;Lab3_Main.c: 194:             else
  3372                           
  3373                           
  3374                           ;Lab3_Main.c: 195:             {;Lab3_Main.c: 196:                 setAlarm = 1;
  3375  06AF  01D3               	clrf	_setAlarm
  3376  06B0  0AD3               	incf	_setAlarm,f
  3377                           
  3378                           ;Lab3_Main.c: 197:                 timeSaid= 1;
  3379  06B1  01B4               	clrf	_timeSaid
  3380  06B2  0AB4               	incf	_timeSaid,f
  3381                           
  3382                           ;Lab3_Main.c: 198:                 playAudio(G_au16startAddresses[34],G_au16endAddresses
      +                          [34] );
  3383  06B3  0021               	movlb	1	; select bank1
  3384  06B4  0865               	movf	((_G_au16startAddresses+1)^(0+128)+68),w
  3385  06B5  0020               	movlb	0	; select bank0
  3386  06B6  00BB               	movwf	playAudio@startAddress+1
  3387  06B7  0021               	movlb	1	; select bank1
  3388  06B8  0864               	movf	(_G_au16startAddresses^(0+128)+68),w
  3389  06B9  0020               	movlb	0	; select bank0
  3390  06BA  00BA               	movwf	playAudio@startAddress
  3391  06BB  0022               	movlb	2	; select bank2
  3392  06BC  0865               	movf	((_G_au16endAddresses+1)^(0+256)+68),w
  3393  06BD  0020               	movlb	0	; select bank0
  3394  06BE  00BD               	movwf	playAudio@endAddress+1
  3395  06BF  0022               	movlb	2	; select bank2
  3396  06C0  0864               	movf	(_G_au16endAddresses^(0+256)+68),w
  3397  06C1  0020               	movlb	0	; select bank0
  3398  06C2  00BC               	movwf	playAudio@endAddress
  3399  06C3  318C  24D3  3185   	fcall	_playAudio
  3400                           
  3401                           ;Lab3_Main.c: 199:                 playAudio(G_au16startAddresses[36],G_au16endAddresses
      +                          [36] );
  3402  06C6  0021               	movlb	1	; select bank1
  3403  06C7  0869               	movf	((_G_au16startAddresses+1)^(0+128)+72),w
  3404  06C8  0020               	movlb	0	; select bank0
  3405  06C9  00BB               	movwf	playAudio@startAddress+1
  3406  06CA  0021               	movlb	1	; select bank1
  3407  06CB  0868               	movf	(_G_au16startAddresses^(0+128)+72),w
  3408  06CC  0020               	movlb	0	; select bank0
  3409  06CD  00BA               	movwf	playAudio@startAddress
  3410  06CE  0022               	movlb	2	; select bank2
  3411  06CF  0869               	movf	((_G_au16endAddresses+1)^(0+256)+72),w
  3412  06D0  0020               	movlb	0	; select bank0
  3413  06D1  00BD               	movwf	playAudio@endAddress+1
  3414  06D2  0022               	movlb	2	; select bank2
  3415  06D3  0868               	movf	(_G_au16endAddresses^(0+256)+72),w
  3416  06D4  0020               	movlb	0	; select bank0
  3417  06D5  00BC               	movwf	playAudio@endAddress
  3418  06D6  318C  24D3         	fcall	_playAudio
  3419                           
  3420                           ;Lab3_Main.c: 200:                 timeSaid = 0;
  3421  06D8  0020               	movlb	0	; select bank0
  3422  06D9  01B4               	clrf	_timeSaid
  3423  06DA  0008               	return
  3424  06DB                     __end_of_checkButtonPress:	
  3425                           
  3426                           	psect	text4
  3427  0EB4                     __ptext4:	
  3428 ;; *************** function _readTime *****************
  3429 ;; Defined at:
  3430 ;;		line 208 in file "Lab3_Main.c"
  3431 ;; Parameters:    Size  Location     Type
  3432 ;;  hour            2    8[BANK0 ] short 
  3433 ;;  minute          2   10[BANK0 ] short 
  3434 ;; Auto vars:     Size  Location     Type
  3435 ;;  temphour        2   12[BANK0 ] unsigned short 
  3436 ;; Return value:  Size  Location     Type
  3437 ;;                  1    wreg      void 
  3438 ;; Registers used:
  3439 ;;		wreg, fsr0l, fsr0h, fsr1l, fsr1h, status,2, status,0, pclath, cstack
  3440 ;; Tracked objects:
  3441 ;;		On entry : 0/0
  3442 ;;		On exit  : 0/0
  3443 ;;		Unchanged: 0/0
  3444 ;; Data sizes:     COMMON   BANK0   BANK1   BANK2   BANK3   BANK4   BANK5   BANK6   BANK7   BANK8   BANK9  BANK10  BANK1
      +1  BANK12  BANK13  BANK14  BANK15  BANK16  BANK17  BANK18  BANK19  BANK20  BANK21  BANK22  BANK23  BANK24  BANK25
  3445 ;;      Params:         0       4       0       0       0       0       0       0       0       0       0       0       
      +0       0       0       0       0       0       0       0       0       0       0       0       0       0       0
  3446 ;;      Locals:         0       2       0       0       0       0       0       0       0       0       0       0       
      +0       0       0       0       0       0       0       0       0       0       0       0       0       0       0
  3447 ;;      Temps:          1       0       0       0       0       0       0       0       0       0       0       0       
      +0       0       0       0       0       0       0       0       0       0       0       0       0       0       0
  3448 ;;      Totals:         1       6       0       0       0       0       0       0       0       0       0       0       
      +0       0       0       0       0       0       0       0       0       0       0       0       0       0       0
  3449 ;;Total ram usage:        7 bytes
  3450 ;; Hardware stack levels used:    1
  3451 ;; Hardware stack levels required when called:    7
  3452 ;; This function calls:
  3453 ;;		_playAudio
  3454 ;;		_playHour
  3455 ;;		_playMinute10
  3456 ;; This function is called by:
  3457 ;;		_main
  3458 ;;		_checkButtonPress
  3459 ;; This function uses a non-reentrant model
  3460 ;;
  3461                           
  3462                           
  3463                           ;psect for function _readTime
  3464  0EB4                     _readTime:	
  3465                           
  3466                           ;Lab3_Main.c: 208: void readTime (short hour, short minute);Lab3_Main.c: 209: {;Lab3_Mai
      +                          n.c: 210:     if (timeSaid == 1)
  3467                           
  3468                           ;incstack = 0
  3469                           ; Regs used in _readTime: [wreg-fsr1h+status,2+status,0+pclath+cstack]
  3470  0EB4  0020               	movlb	0	; select bank0
  3471  0EB5  0334               	decf	_timeSaid,w
  3472  0EB6  1D03               	btfss	3,2
  3473  0EB7  0008               	return
  3474                           
  3475                           ;Lab3_Main.c: 211:     {;Lab3_Main.c: 212:         if (hour < 12)
  3476  0EB8  0843               	movf	readTime@hour+1,w
  3477  0EB9  3A80               	xorlw	128
  3478  0EBA  00FC               	movwf	??_readTime
  3479  0EBB  3080               	movlw	128
  3480  0EBC  027C               	subwf	??_readTime,w
  3481  0EBD  1D03               	skipz
  3482  0EBE  2EC1               	goto	u2525
  3483  0EBF  300C               	movlw	12
  3484  0EC0  0242               	subwf	readTime@hour,w
  3485  0EC1                     u2525:	
  3486  0EC1  1803               	skipnc
  3487  0EC2  2EE2               	goto	l2222
  3488                           
  3489                           ;Lab3_Main.c: 213:         {;Lab3_Main.c: 214:             playHour(hour);
  3490  0EC3  0020               	movlb	0	; select bank0
  3491  0EC4  0843               	movf	readTime@hour+1,w
  3492  0EC5  00BF               	movwf	playHour@hour+1
  3493  0EC6  0842               	movf	readTime@hour,w
  3494  0EC7  00BE               	movwf	playHour@hour
  3495  0EC8  3183  23C9  318E   	fcall	_playHour
  3496                           
  3497                           ;Lab3_Main.c: 215:             playMinute10(minute);
  3498  0ECB  0020               	movlb	0	; select bank0
  3499  0ECC  0845               	movf	readTime@minute+1,w
  3500  0ECD  00C1               	movwf	playMinute10@minute+1
  3501  0ECE  0844               	movf	readTime@minute,w
  3502  0ECF  00C0               	movwf	playMinute10@minute
  3503  0ED0  3187  2774  318E   	fcall	_playMinute10
  3504                           
  3505                           ;Lab3_Main.c: 216:             playAudio(G_au16startAddresses[0], G_au16endAddresses[0])
      +                          ;
  3506  0ED3  0021               	movlb	1	; select bank1
  3507  0ED4  0821               	movf	(_G_au16startAddresses+1)^(0+128),w
  3508  0ED5  0020               	movlb	0	; select bank0
  3509  0ED6  00BB               	movwf	playAudio@startAddress+1
  3510  0ED7  0021               	movlb	1	; select bank1
  3511  0ED8  0820               	movf	_G_au16startAddresses^(0+128),w
  3512  0ED9  0020               	movlb	0	; select bank0
  3513  0EDA  00BA               	movwf	playAudio@startAddress
  3514  0EDB  0022               	movlb	2	; select bank2
  3515  0EDC  0821               	movf	(_G_au16endAddresses+1)^(0+256),w
  3516  0EDD  0020               	movlb	0	; select bank0
  3517  0EDE  00BD               	movwf	playAudio@endAddress+1
  3518  0EDF  0022               	movlb	2	; select bank2
  3519  0EE0  0820               	movf	_G_au16endAddresses^(0+256),w
  3520  0EE1  2F06               	goto	L3
  3521  0EE2                     l2222:	
  3522                           ;Lab3_Main.c: 217:         } else
  3523                           
  3524                           
  3525                           ;Lab3_Main.c: 218:         {;Lab3_Main.c: 219:             unsigned short temphour = hou
      +                          r - 12;
  3526  0EE2  0020               	movlb	0	; select bank0
  3527  0EE3  0842               	movf	readTime@hour,w
  3528  0EE4  3EF4               	addlw	244
  3529  0EE5  00C6               	movwf	readTime@temphour
  3530  0EE6  30FF               	movlw	255
  3531  0EE7  3D43               	addwfc	readTime@hour+1,w
  3532  0EE8  00C7               	movwf	readTime@temphour+1
  3533                           
  3534                           ;Lab3_Main.c: 220:             playHour(temphour);
  3535  0EE9  0847               	movf	readTime@temphour+1,w
  3536  0EEA  00BF               	movwf	playHour@hour+1
  3537  0EEB  0846               	movf	readTime@temphour,w
  3538  0EEC  00BE               	movwf	playHour@hour
  3539  0EED  3183  23C9  318E   	fcall	_playHour
  3540                           
  3541                           ;Lab3_Main.c: 221:             playMinute10(minute);
  3542  0EF0  0020               	movlb	0	; select bank0
  3543  0EF1  0845               	movf	readTime@minute+1,w
  3544  0EF2  00C1               	movwf	playMinute10@minute+1
  3545  0EF3  0844               	movf	readTime@minute,w
  3546  0EF4  00C0               	movwf	playMinute10@minute
  3547  0EF5  3187  2774  318E   	fcall	_playMinute10
  3548                           
  3549                           ;Lab3_Main.c: 222:             playAudio(G_au16startAddresses[22], G_au16endAddresses[22
      +                          ]);
  3550  0EF8  0021               	movlb	1	; select bank1
  3551  0EF9  084D               	movf	((_G_au16startAddresses+1)^(0+128)+44),w
  3552  0EFA  0020               	movlb	0	; select bank0
  3553  0EFB  00BB               	movwf	playAudio@startAddress+1
  3554  0EFC  0021               	movlb	1	; select bank1
  3555  0EFD  084C               	movf	(_G_au16startAddresses^(0+128)+44),w
  3556  0EFE  0020               	movlb	0	; select bank0
  3557  0EFF  00BA               	movwf	playAudio@startAddress
  3558  0F00  0022               	movlb	2	; select bank2
  3559  0F01  084D               	movf	((_G_au16endAddresses+1)^(0+256)+44),w
  3560  0F02  0020               	movlb	0	; select bank0
  3561  0F03  00BD               	movwf	playAudio@endAddress+1
  3562  0F04  0022               	movlb	2	; select bank2
  3563  0F05  084C               	movf	(_G_au16endAddresses^(0+256)+44),w
  3564  0F06                     L3:	
  3565  0F06  0020               	movlb	0	; select bank0
  3566  0F07  00BC               	movwf	playAudio@endAddress
  3567  0F08  318C  24D3         	fcall	_playAudio
  3568                           
  3569                           ;Lab3_Main.c: 224:         timeSaid = 0;
  3570  0F0A  0020               	movlb	0	; select bank0
  3571  0F0B  01B4               	clrf	_timeSaid
  3572  0F0C  0008               	return
  3573  0F0D                     __end_of_readTime:	
  3574                           
  3575                           	psect	text5
  3576  0774                     __ptext5:	
  3577 ;; *************** function _playMinute10 *****************
  3578 ;; Defined at:
  3579 ;;		line 268 in file "Lab3_Main.c"
  3580 ;; Parameters:    Size  Location     Type
  3581 ;;  minute          2    6[BANK0 ] short 
  3582 ;; Auto vars:     Size  Location     Type
  3583 ;;		None
  3584 ;; Return value:  Size  Location     Type
  3585 ;;                  1    wreg      void 
  3586 ;; Registers used:
  3587 ;;		wreg, fsr0l, fsr0h, fsr1l, fsr1h, status,2, status,0, pclath, cstack
  3588 ;; Tracked objects:
  3589 ;;		On entry : 0/0
  3590 ;;		On exit  : 0/0
  3591 ;;		Unchanged: 0/0
  3592 ;; Data sizes:     COMMON   BANK0   BANK1   BANK2   BANK3   BANK4   BANK5   BANK6   BANK7   BANK8   BANK9  BANK10  BANK1
      +1  BANK12  BANK13  BANK14  BANK15  BANK16  BANK17  BANK18  BANK19  BANK20  BANK21  BANK22  BANK23  BANK24  BANK25
  3593 ;;      Params:         0       2       0       0       0       0       0       0       0       0       0       0       
      +0       0       0       0       0       0       0       0       0       0       0       0       0       0       0
  3594 ;;      Locals:         0       0       0       0       0       0       0       0       0       0       0       0       
      +0       0       0       0       0       0       0       0       0       0       0       0       0       0       0
  3595 ;;      Temps:          0       0       0       0       0       0       0       0       0       0       0       0       
      +0       0       0       0       0       0       0       0       0       0       0       0       0       0       0
  3596 ;;      Totals:         0       2       0       0       0       0       0       0       0       0       0       0       
      +0       0       0       0       0       0       0       0       0       0       0       0       0       0       0
  3597 ;;Total ram usage:        2 bytes
  3598 ;; Hardware stack levels used:    1
  3599 ;; Hardware stack levels required when called:    6
  3600 ;; This function calls:
  3601 ;;		___awdiv
  3602 ;;		_playAudio
  3603 ;;		_playMinute
  3604 ;; This function is called by:
  3605 ;;		_readTime
  3606 ;; This function uses a non-reentrant model
  3607 ;;
  3608                           
  3609                           
  3610                           ;psect for function _playMinute10
  3611  0774                     _playMinute10:	
  3612                           
  3613                           ;Lab3_Main.c: 268: void playMinute10 (short minute);Lab3_Main.c: 269: {;Lab3_Main.c: 270
      +                          :     if (minute/10 == 2){
  3614                           
  3615                           ;incstack = 0
  3616                           ; Regs used in _playMinute10: [wreg-fsr1h+status,2+status,0+pclath+cstack]
  3617  0774  300A               	movlw	10
  3618  0775  00F0               	movwf	___awdiv@divisor
  3619  0776  3000               	movlw	0
  3620  0777  00F1               	movwf	___awdiv@divisor+1
  3621  0778  0020               	movlb	0	; select bank0
  3622  0779  0841               	movf	playMinute10@minute+1,w
  3623  077A  00F3               	movwf	___awdiv@dividend+1
  3624  077B  0840               	movf	playMinute10@minute,w
  3625  077C  00F2               	movwf	___awdiv@dividend
  3626  077D  318E  2663  3187   	fcall	___awdiv
  3627  0780  3002               	movlw	2
  3628  0781  0670               	xorwf	?___awdiv,w
  3629  0782  0471               	iorwf	?___awdiv+1,w
  3630  0783  1D03               	btfss	3,2
  3631  0784  2F94               	goto	l2146
  3632                           
  3633                           ;Lab3_Main.c: 271:            playAudio(G_au16startAddresses[32], G_au16endAddresses[32]
      +                          );
  3634  0785  0021               	movlb	1	; select bank1
  3635  0786  0861               	movf	((_G_au16startAddresses+1)^(0+128)+64),w
  3636  0787  0020               	movlb	0	; select bank0
  3637  0788  00BB               	movwf	playAudio@startAddress+1
  3638  0789  0021               	movlb	1	; select bank1
  3639  078A  0860               	movf	(_G_au16startAddresses^(0+128)+64),w
  3640  078B  0020               	movlb	0	; select bank0
  3641  078C  00BA               	movwf	playAudio@startAddress
  3642  078D  0022               	movlb	2	; select bank2
  3643  078E  0861               	movf	((_G_au16endAddresses+1)^(0+256)+64),w
  3644  078F  0020               	movlb	0	; select bank0
  3645  0790  00BD               	movwf	playAudio@endAddress+1
  3646  0791  0022               	movlb	2	; select bank2
  3647  0792  0860               	movf	(_G_au16endAddresses^(0+256)+64),w
  3648  0793  2FF3               	goto	L4
  3649  0794                     l2146:	
  3650                           ;Lab3_Main.c: 272:     } else if (minute/10 == 3){
  3651                           
  3652  0794  300A               	movlw	10
  3653  0795  00F0               	movwf	___awdiv@divisor
  3654  0796  3000               	movlw	0
  3655  0797  00F1               	movwf	___awdiv@divisor+1
  3656  0798  0020               	movlb	0	; select bank0
  3657  0799  0841               	movf	playMinute10@minute+1,w
  3658  079A  00F3               	movwf	___awdiv@dividend+1
  3659  079B  0840               	movf	playMinute10@minute,w
  3660  079C  00F2               	movwf	___awdiv@dividend
  3661  079D  318E  2663  3187   	fcall	___awdiv
  3662  07A0  3003               	movlw	3
  3663  07A1  0670               	xorwf	?___awdiv,w
  3664  07A2  0471               	iorwf	?___awdiv+1,w
  3665  07A3  1D03               	btfss	3,2
  3666  07A4  2FB4               	goto	l2150
  3667                           
  3668                           ;Lab3_Main.c: 273:            playAudio(G_au16startAddresses[29], G_au16endAddresses[29]
      +                          );
  3669  07A5  0021               	movlb	1	; select bank1
  3670  07A6  085B               	movf	((_G_au16startAddresses+1)^(0+128)+58),w
  3671  07A7  0020               	movlb	0	; select bank0
  3672  07A8  00BB               	movwf	playAudio@startAddress+1
  3673  07A9  0021               	movlb	1	; select bank1
  3674  07AA  085A               	movf	(_G_au16startAddresses^(0+128)+58),w
  3675  07AB  0020               	movlb	0	; select bank0
  3676  07AC  00BA               	movwf	playAudio@startAddress
  3677  07AD  0022               	movlb	2	; select bank2
  3678  07AE  085B               	movf	((_G_au16endAddresses+1)^(0+256)+58),w
  3679  07AF  0020               	movlb	0	; select bank0
  3680  07B0  00BD               	movwf	playAudio@endAddress+1
  3681  07B1  0022               	movlb	2	; select bank2
  3682  07B2  085A               	movf	(_G_au16endAddresses^(0+256)+58),w
  3683  07B3  2FF3               	goto	L4
  3684  07B4                     l2150:	
  3685                           ;Lab3_Main.c: 274:     } else if (minute/10 == 4){
  3686                           
  3687  07B4  300A               	movlw	10
  3688  07B5  00F0               	movwf	___awdiv@divisor
  3689  07B6  3000               	movlw	0
  3690  07B7  00F1               	movwf	___awdiv@divisor+1
  3691  07B8  0020               	movlb	0	; select bank0
  3692  07B9  0841               	movf	playMinute10@minute+1,w
  3693  07BA  00F3               	movwf	___awdiv@dividend+1
  3694  07BB  0840               	movf	playMinute10@minute,w
  3695  07BC  00F2               	movwf	___awdiv@dividend
  3696  07BD  318E  2663  3187   	fcall	___awdiv
  3697  07C0  3004               	movlw	4
  3698  07C1  0670               	xorwf	?___awdiv,w
  3699  07C2  0471               	iorwf	?___awdiv+1,w
  3700  07C3  1D03               	btfss	3,2
  3701  07C4  2FD4               	goto	l2154
  3702                           
  3703                           ;Lab3_Main.c: 275:            playAudio(G_au16startAddresses[9], G_au16endAddresses[9]);
  3704  07C5  0021               	movlb	1	; select bank1
  3705  07C6  0833               	movf	((_G_au16startAddresses+1)^(0+128)+18),w
  3706  07C7  0020               	movlb	0	; select bank0
  3707  07C8  00BB               	movwf	playAudio@startAddress+1
  3708  07C9  0021               	movlb	1	; select bank1
  3709  07CA  0832               	movf	(_G_au16startAddresses^(0+128)+18),w
  3710  07CB  0020               	movlb	0	; select bank0
  3711  07CC  00BA               	movwf	playAudio@startAddress
  3712  07CD  0022               	movlb	2	; select bank2
  3713  07CE  0833               	movf	((_G_au16endAddresses+1)^(0+256)+18),w
  3714  07CF  0020               	movlb	0	; select bank0
  3715  07D0  00BD               	movwf	playAudio@endAddress+1
  3716  07D1  0022               	movlb	2	; select bank2
  3717  07D2  0832               	movf	(_G_au16endAddresses^(0+256)+18),w
  3718  07D3  2FF3               	goto	L4
  3719  07D4                     l2154:	
  3720                           ;Lab3_Main.c: 276:     } else if (minute/10 == 5){
  3721                           
  3722  07D4  300A               	movlw	10
  3723  07D5  00F0               	movwf	___awdiv@divisor
  3724  07D6  3000               	movlw	0
  3725  07D7  00F1               	movwf	___awdiv@divisor+1
  3726  07D8  0020               	movlb	0	; select bank0
  3727  07D9  0841               	movf	playMinute10@minute+1,w
  3728  07DA  00F3               	movwf	___awdiv@dividend+1
  3729  07DB  0840               	movf	playMinute10@minute,w
  3730  07DC  00F2               	movwf	___awdiv@dividend
  3731  07DD  318E  2663  3187   	fcall	___awdiv
  3732  07E0  3005               	movlw	5
  3733  07E1  0670               	xorwf	?___awdiv,w
  3734  07E2  0471               	iorwf	?___awdiv+1,w
  3735  07E3  1D03               	btfss	3,2
  3736  07E4  2FF8               	goto	l316
  3737                           
  3738                           ;Lab3_Main.c: 277:            playAudio(G_au16startAddresses[5], G_au16endAddresses[5]);
  3739  07E5  0021               	movlb	1	; select bank1
  3740  07E6  082B               	movf	((_G_au16startAddresses+1)^(0+128)+10),w
  3741  07E7  0020               	movlb	0	; select bank0
  3742  07E8  00BB               	movwf	playAudio@startAddress+1
  3743  07E9  0021               	movlb	1	; select bank1
  3744  07EA  082A               	movf	(_G_au16startAddresses^(0+128)+10),w
  3745  07EB  0020               	movlb	0	; select bank0
  3746  07EC  00BA               	movwf	playAudio@startAddress
  3747  07ED  0022               	movlb	2	; select bank2
  3748  07EE  082B               	movf	((_G_au16endAddresses+1)^(0+256)+10),w
  3749  07EF  0020               	movlb	0	; select bank0
  3750  07F0  00BD               	movwf	playAudio@endAddress+1
  3751  07F1  0022               	movlb	2	; select bank2
  3752  07F2  082A               	movf	(_G_au16endAddresses^(0+256)+10),w
  3753  07F3                     L4:	
  3754  07F3  0020               	movlb	0	; select bank0
  3755  07F4  00BC               	movwf	playAudio@endAddress
  3756  07F5  318C  24D3  3187   	fcall	_playAudio
  3757  07F8                     l316:	
  3758                           
  3759                           ;Lab3_Main.c: 279:      playMinute(minute);
  3760  07F8  0020               	movlb	0	; select bank0
  3761  07F9  0841               	movf	playMinute10@minute+1,w
  3762  07FA  00BF               	movwf	playMinute@minute+1
  3763  07FB  0840               	movf	playMinute10@minute,w
  3764  07FC  00BE               	movwf	playMinute@minute
  3765  07FD  3180  2091         	fcall	_playMinute
  3766  07FF  0008               	return
  3767  0800                     __end_of_playMinute10:	
  3768                           
  3769                           	psect	text6
  3770  0091                     __ptext6:	
  3771 ;; *************** function _playMinute *****************
  3772 ;; Defined at:
  3773 ;;		line 283 in file "Lab3_Main.c"
  3774 ;; Parameters:    Size  Location     Type
  3775 ;;  minute          2    4[BANK0 ] short 
  3776 ;; Auto vars:     Size  Location     Type
  3777 ;;		None
  3778 ;; Return value:  Size  Location     Type
  3779 ;;                  1    wreg      void 
  3780 ;; Registers used:
  3781 ;;		wreg, fsr0l, fsr0h, fsr1l, fsr1h, status,2, status,0, pclath, cstack
  3782 ;; Tracked objects:
  3783 ;;		On entry : 0/0
  3784 ;;		On exit  : 0/0
  3785 ;;		Unchanged: 0/0
  3786 ;; Data sizes:     COMMON   BANK0   BANK1   BANK2   BANK3   BANK4   BANK5   BANK6   BANK7   BANK8   BANK9  BANK10  BANK1
      +1  BANK12  BANK13  BANK14  BANK15  BANK16  BANK17  BANK18  BANK19  BANK20  BANK21  BANK22  BANK23  BANK24  BANK25
  3787 ;;      Params:         0       2       0       0       0       0       0       0       0       0       0       0       
      +0       0       0       0       0       0       0       0       0       0       0       0       0       0       0
  3788 ;;      Locals:         0       0       0       0       0       0       0       0       0       0       0       0       
      +0       0       0       0       0       0       0       0       0       0       0       0       0       0       0
  3789 ;;      Temps:          0       0       0       0       0       0       0       0       0       0       0       0       
      +0       0       0       0       0       0       0       0       0       0       0       0       0       0       0
  3790 ;;      Totals:         0       2       0       0       0       0       0       0       0       0       0       0       
      +0       0       0       0       0       0       0       0       0       0       0       0       0       0       0
  3791 ;;Total ram usage:        2 bytes
  3792 ;; Hardware stack levels used:    1
  3793 ;; Hardware stack levels required when called:    5
  3794 ;; This function calls:
  3795 ;;		___awdiv
  3796 ;;		_playAudio
  3797 ;; This function is called by:
  3798 ;;		_playMinute10
  3799 ;; This function uses a non-reentrant model
  3800 ;;
  3801                           
  3802                           
  3803                           ;psect for function _playMinute
  3804  0091                     _playMinute:	
  3805                           
  3806                           ;Lab3_Main.c: 283: void playMinute (short minute);Lab3_Main.c: 284: {;Lab3_Main.c: 285: 
      +                              if (minute/10 == 1) {
  3807                           
  3808                           ;incstack = 0
  3809                           ; Regs used in _playMinute: [wreg-fsr1h+status,2+status,0+pclath+cstack]
  3810  0091  300A               	movlw	10
  3811  0092  00F0               	movwf	___awdiv@divisor
  3812  0093  3000               	movlw	0
  3813  0094  00F1               	movwf	___awdiv@divisor+1
  3814  0095  0020               	movlb	0	; select bank0
  3815  0096  083F               	movf	playMinute@minute+1,w
  3816  0097  00F3               	movwf	___awdiv@dividend+1
  3817  0098  083E               	movf	playMinute@minute,w
  3818  0099  00F2               	movwf	___awdiv@dividend
  3819  009A  318E  2663  3180   	fcall	___awdiv
  3820  009D  0370               	decf	?___awdiv,w
  3821  009E  0471               	iorwf	?___awdiv+1,w
  3822  009F  1D03               	btfss	3,2
  3823  00A0  2992               	goto	l1964
  3824                           
  3825                           ;Lab3_Main.c: 286:         if (minute == 10) {
  3826  00A1  300A               	movlw	10
  3827  00A2  0020               	movlb	0	; select bank0
  3828  00A3  063E               	xorwf	playMinute@minute,w
  3829  00A4  043F               	iorwf	playMinute@minute+1,w
  3830  00A5  1D03               	btfss	3,2
  3831  00A6  28BA               	goto	l1928
  3832                           
  3833                           ;Lab3_Main.c: 287:             playAudio(G_au16startAddresses[27], G_au16endAddresses[27
      +                          ]);
  3834  00A7  0021               	movlb	1	; select bank1
  3835  00A8  0857               	movf	((_G_au16startAddresses+1)^(0+128)+54),w
  3836  00A9  0020               	movlb	0	; select bank0
  3837  00AA  00BB               	movwf	playAudio@startAddress+1
  3838  00AB  0021               	movlb	1	; select bank1
  3839  00AC  0856               	movf	(_G_au16startAddresses^(0+128)+54),w
  3840  00AD  0020               	movlb	0	; select bank0
  3841  00AE  00BA               	movwf	playAudio@startAddress
  3842  00AF  0022               	movlb	2	; select bank2
  3843  00B0  0857               	movf	((_G_au16endAddresses+1)^(0+256)+54),w
  3844  00B1  0020               	movlb	0	; select bank0
  3845  00B2  00BD               	movwf	playAudio@endAddress+1
  3846  00B3  0022               	movlb	2	; select bank2
  3847  00B4  0856               	movf	(_G_au16endAddresses^(0+256)+54),w
  3848  00B5  0020               	movlb	0	; select bank0
  3849  00B6  00BC               	movwf	playAudio@endAddress
  3850  00B7  318C  24D3         	fcall	_playAudio
  3851                           
  3852                           ;Lab3_Main.c: 288:         } else if (minute == 11) {
  3853  00B9  0008               	return
  3854  00BA                     l1928:	
  3855  00BA  300B               	movlw	11
  3856  00BB  063E               	xorwf	playMinute@minute,w
  3857  00BC  043F               	iorwf	playMinute@minute+1,w
  3858  00BD  1D03               	btfss	3,2
  3859  00BE  28D2               	goto	l1932
  3860                           
  3861                           ;Lab3_Main.c: 289:             playAudio(G_au16startAddresses[3], G_au16endAddresses[3])
      +                          ;
  3862  00BF  0021               	movlb	1	; select bank1
  3863  00C0  0827               	movf	((_G_au16startAddresses+1)^(0+128)+6),w
  3864  00C1  0020               	movlb	0	; select bank0
  3865  00C2  00BB               	movwf	playAudio@startAddress+1
  3866  00C3  0021               	movlb	1	; select bank1
  3867  00C4  0826               	movf	(_G_au16startAddresses^(0+128)+6),w
  3868  00C5  0020               	movlb	0	; select bank0
  3869  00C6  00BA               	movwf	playAudio@startAddress
  3870  00C7  0022               	movlb	2	; select bank2
  3871  00C8  0827               	movf	((_G_au16endAddresses+1)^(0+256)+6),w
  3872  00C9  0020               	movlb	0	; select bank0
  3873  00CA  00BD               	movwf	playAudio@endAddress+1
  3874  00CB  0022               	movlb	2	; select bank2
  3875  00CC  0826               	movf	(_G_au16endAddresses^(0+256)+6),w
  3876  00CD  0020               	movlb	0	; select bank0
  3877  00CE  00BC               	movwf	playAudio@endAddress
  3878  00CF  318C  24D3         	fcall	_playAudio
  3879                           
  3880                           ;Lab3_Main.c: 290:         } else if (minute == 12) {
  3881  00D1  0008               	return
  3882  00D2                     l1932:	
  3883  00D2  300C               	movlw	12
  3884  00D3  063E               	xorwf	playMinute@minute,w
  3885  00D4  043F               	iorwf	playMinute@minute+1,w
  3886  00D5  1D03               	btfss	3,2
  3887  00D6  28EA               	goto	l1936
  3888                           
  3889                           ;Lab3_Main.c: 291:             playAudio(G_au16startAddresses[31], G_au16endAddresses[31
      +                          ]);
  3890  00D7  0021               	movlb	1	; select bank1
  3891  00D8  085F               	movf	((_G_au16startAddresses+1)^(0+128)+62),w
  3892  00D9  0020               	movlb	0	; select bank0
  3893  00DA  00BB               	movwf	playAudio@startAddress+1
  3894  00DB  0021               	movlb	1	; select bank1
  3895  00DC  085E               	movf	(_G_au16startAddresses^(0+128)+62),w
  3896  00DD  0020               	movlb	0	; select bank0
  3897  00DE  00BA               	movwf	playAudio@startAddress
  3898  00DF  0022               	movlb	2	; select bank2
  3899  00E0  085F               	movf	((_G_au16endAddresses+1)^(0+256)+62),w
  3900  00E1  0020               	movlb	0	; select bank0
  3901  00E2  00BD               	movwf	playAudio@endAddress+1
  3902  00E3  0022               	movlb	2	; select bank2
  3903  00E4  085E               	movf	(_G_au16endAddresses^(0+256)+62),w
  3904  00E5  0020               	movlb	0	; select bank0
  3905  00E6  00BC               	movwf	playAudio@endAddress
  3906  00E7  318C  24D3         	fcall	_playAudio
  3907                           
  3908                           ;Lab3_Main.c: 292:         } else if (minute == 13) {
  3909  00E9  0008               	return
  3910  00EA                     l1936:	
  3911  00EA  300D               	movlw	13
  3912  00EB  063E               	xorwf	playMinute@minute,w
  3913  00EC  043F               	iorwf	playMinute@minute+1,w
  3914  00ED  1D03               	btfss	3,2
  3915  00EE  2902               	goto	l1940
  3916                           
  3917                           ;Lab3_Main.c: 293:             playAudio(G_au16startAddresses[28], G_au16endAddresses[28
      +                          ]);
  3918  00EF  0021               	movlb	1	; select bank1
  3919  00F0  0859               	movf	((_G_au16startAddresses+1)^(0+128)+56),w
  3920  00F1  0020               	movlb	0	; select bank0
  3921  00F2  00BB               	movwf	playAudio@startAddress+1
  3922  00F3  0021               	movlb	1	; select bank1
  3923  00F4  0858               	movf	(_G_au16startAddresses^(0+128)+56),w
  3924  00F5  0020               	movlb	0	; select bank0
  3925  00F6  00BA               	movwf	playAudio@startAddress
  3926  00F7  0022               	movlb	2	; select bank2
  3927  00F8  0859               	movf	((_G_au16endAddresses+1)^(0+256)+56),w
  3928  00F9  0020               	movlb	0	; select bank0
  3929  00FA  00BD               	movwf	playAudio@endAddress+1
  3930  00FB  0022               	movlb	2	; select bank2
  3931  00FC  0858               	movf	(_G_au16endAddresses^(0+256)+56),w
  3932  00FD  0020               	movlb	0	; select bank0
  3933  00FE  00BC               	movwf	playAudio@endAddress
  3934  00FF  318C  24D3         	fcall	_playAudio
  3935                           
  3936                           ;Lab3_Main.c: 294:         } else if (minute == 14) {
  3937  0101  0008               	return
  3938  0102                     l1940:	
  3939  0102  300E               	movlw	14
  3940  0103  063E               	xorwf	playMinute@minute,w
  3941  0104  043F               	iorwf	playMinute@minute+1,w
  3942  0105  1D03               	btfss	3,2
  3943  0106  291A               	goto	l1944
  3944                           
  3945                           ;Lab3_Main.c: 295:             playAudio(G_au16startAddresses[8], G_au16endAddresses[8])
      +                          ;
  3946  0107  0021               	movlb	1	; select bank1
  3947  0108  0831               	movf	((_G_au16startAddresses+1)^(0+128)+16),w
  3948  0109  0020               	movlb	0	; select bank0
  3949  010A  00BB               	movwf	playAudio@startAddress+1
  3950  010B  0021               	movlb	1	; select bank1
  3951  010C  0830               	movf	(_G_au16startAddresses^(0+128)+16),w
  3952  010D  0020               	movlb	0	; select bank0
  3953  010E  00BA               	movwf	playAudio@startAddress
  3954  010F  0022               	movlb	2	; select bank2
  3955  0110  0831               	movf	((_G_au16endAddresses+1)^(0+256)+16),w
  3956  0111  0020               	movlb	0	; select bank0
  3957  0112  00BD               	movwf	playAudio@endAddress+1
  3958  0113  0022               	movlb	2	; select bank2
  3959  0114  0830               	movf	(_G_au16endAddresses^(0+256)+16),w
  3960  0115  0020               	movlb	0	; select bank0
  3961  0116  00BC               	movwf	playAudio@endAddress
  3962  0117  318C  24D3         	fcall	_playAudio
  3963                           
  3964                           ;Lab3_Main.c: 296:         } else if (minute == 15) {
  3965  0119  0008               	return
  3966  011A                     l1944:	
  3967  011A  300F               	movlw	15
  3968  011B  063E               	xorwf	playMinute@minute,w
  3969  011C  043F               	iorwf	playMinute@minute+1,w
  3970  011D  1D03               	btfss	3,2
  3971  011E  2932               	goto	l1948
  3972                           
  3973                           ;Lab3_Main.c: 297:             playAudio(G_au16startAddresses[4], G_au16endAddresses[4])
      +                          ;
  3974  011F  0021               	movlb	1	; select bank1
  3975  0120  0829               	movf	((_G_au16startAddresses+1)^(0+128)+8),w
  3976  0121  0020               	movlb	0	; select bank0
  3977  0122  00BB               	movwf	playAudio@startAddress+1
  3978  0123  0021               	movlb	1	; select bank1
  3979  0124  0828               	movf	(_G_au16startAddresses^(0+128)+8),w
  3980  0125  0020               	movlb	0	; select bank0
  3981  0126  00BA               	movwf	playAudio@startAddress
  3982  0127  0022               	movlb	2	; select bank2
  3983  0128  0829               	movf	((_G_au16endAddresses+1)^(0+256)+8),w
  3984  0129  0020               	movlb	0	; select bank0
  3985  012A  00BD               	movwf	playAudio@endAddress+1
  3986  012B  0022               	movlb	2	; select bank2
  3987  012C  0828               	movf	(_G_au16endAddresses^(0+256)+8),w
  3988  012D  0020               	movlb	0	; select bank0
  3989  012E  00BC               	movwf	playAudio@endAddress
  3990  012F  318C  24D3         	fcall	_playAudio
  3991                           
  3992                           ;Lab3_Main.c: 298:         } else if (minute == 16) {
  3993  0131  0008               	return
  3994  0132                     l1948:	
  3995  0132  3010               	movlw	16
  3996  0133  063E               	xorwf	playMinute@minute,w
  3997  0134  043F               	iorwf	playMinute@minute+1,w
  3998  0135  1D03               	btfss	3,2
  3999  0136  294A               	goto	l1952
  4000                           
  4001                           ;Lab3_Main.c: 299:             playAudio(G_au16startAddresses[26], G_au16endAddresses[26
      +                          ]);
  4002  0137  0021               	movlb	1	; select bank1
  4003  0138  0855               	movf	((_G_au16startAddresses+1)^(0+128)+52),w
  4004  0139  0020               	movlb	0	; select bank0
  4005  013A  00BB               	movwf	playAudio@startAddress+1
  4006  013B  0021               	movlb	1	; select bank1
  4007  013C  0854               	movf	(_G_au16startAddresses^(0+128)+52),w
  4008  013D  0020               	movlb	0	; select bank0
  4009  013E  00BA               	movwf	playAudio@startAddress
  4010  013F  0022               	movlb	2	; select bank2
  4011  0140  0855               	movf	((_G_au16endAddresses+1)^(0+256)+52),w
  4012  0141  0020               	movlb	0	; select bank0
  4013  0142  00BD               	movwf	playAudio@endAddress+1
  4014  0143  0022               	movlb	2	; select bank2
  4015  0144  0854               	movf	(_G_au16endAddresses^(0+256)+52),w
  4016  0145  0020               	movlb	0	; select bank0
  4017  0146  00BC               	movwf	playAudio@endAddress
  4018  0147  318C  24D3         	fcall	_playAudio
  4019                           
  4020                           ;Lab3_Main.c: 300:         } else if (minute == 17) {
  4021  0149  0008               	return
  4022  014A                     l1952:	
  4023  014A  3011               	movlw	17
  4024  014B  063E               	xorwf	playMinute@minute,w
  4025  014C  043F               	iorwf	playMinute@minute+1,w
  4026  014D  1D03               	btfss	3,2
  4027  014E  2962               	goto	l1956
  4028                           
  4029                           ;Lab3_Main.c: 301:             playAudio(G_au16startAddresses[24], G_au16endAddresses[24
      +                          ]);
  4030  014F  0021               	movlb	1	; select bank1
  4031  0150  0851               	movf	((_G_au16startAddresses+1)^(0+128)+48),w
  4032  0151  0020               	movlb	0	; select bank0
  4033  0152  00BB               	movwf	playAudio@startAddress+1
  4034  0153  0021               	movlb	1	; select bank1
  4035  0154  0850               	movf	(_G_au16startAddresses^(0+128)+48),w
  4036  0155  0020               	movlb	0	; select bank0
  4037  0156  00BA               	movwf	playAudio@startAddress
  4038  0157  0022               	movlb	2	; select bank2
  4039  0158  0851               	movf	((_G_au16endAddresses+1)^(0+256)+48),w
  4040  0159  0020               	movlb	0	; select bank0
  4041  015A  00BD               	movwf	playAudio@endAddress+1
  4042  015B  0022               	movlb	2	; select bank2
  4043  015C  0850               	movf	(_G_au16endAddresses^(0+256)+48),w
  4044  015D  0020               	movlb	0	; select bank0
  4045  015E  00BC               	movwf	playAudio@endAddress
  4046  015F  318C  24D3         	fcall	_playAudio
  4047                           
  4048                           ;Lab3_Main.c: 302:         } else if (minute == 18) {
  4049  0161  0008               	return
  4050  0162                     l1956:	
  4051  0162  3012               	movlw	18
  4052  0163  063E               	xorwf	playMinute@minute,w
  4053  0164  043F               	iorwf	playMinute@minute+1,w
  4054  0165  1D03               	btfss	3,2
  4055  0166  297A               	goto	l1960
  4056                           
  4057                           ;Lab3_Main.c: 303:             playAudio(G_au16startAddresses[2], G_au16endAddresses[2])
      +                          ;
  4058  0167  0021               	movlb	1	; select bank1
  4059  0168  0825               	movf	((_G_au16startAddresses+1)^(0+128)+4),w
  4060  0169  0020               	movlb	0	; select bank0
  4061  016A  00BB               	movwf	playAudio@startAddress+1
  4062  016B  0021               	movlb	1	; select bank1
  4063  016C  0824               	movf	(_G_au16startAddresses^(0+128)+4),w
  4064  016D  0020               	movlb	0	; select bank0
  4065  016E  00BA               	movwf	playAudio@startAddress
  4066  016F  0022               	movlb	2	; select bank2
  4067  0170  0825               	movf	((_G_au16endAddresses+1)^(0+256)+4),w
  4068  0171  0020               	movlb	0	; select bank0
  4069  0172  00BD               	movwf	playAudio@endAddress+1
  4070  0173  0022               	movlb	2	; select bank2
  4071  0174  0824               	movf	(_G_au16endAddresses^(0+256)+4),w
  4072  0175  0020               	movlb	0	; select bank0
  4073  0176  00BC               	movwf	playAudio@endAddress
  4074  0177  318C  24D3         	fcall	_playAudio
  4075                           
  4076                           ;Lab3_Main.c: 304:         } else if (minute == 19) {
  4077  0179  0008               	return
  4078  017A                     l1960:	
  4079  017A  3013               	movlw	19
  4080  017B  063E               	xorwf	playMinute@minute,w
  4081  017C  043F               	iorwf	playMinute@minute+1,w
  4082  017D  1D03               	btfss	3,2
  4083  017E  0008               	return
  4084                           
  4085                           ;Lab3_Main.c: 305:             playAudio(G_au16startAddresses[11], G_au16endAddresses[11
      +                          ]);
  4086  017F  0021               	movlb	1	; select bank1
  4087  0180  0837               	movf	((_G_au16startAddresses+1)^(0+128)+22),w
  4088  0181  0020               	movlb	0	; select bank0
  4089  0182  00BB               	movwf	playAudio@startAddress+1
  4090  0183  0021               	movlb	1	; select bank1
  4091  0184  0836               	movf	(_G_au16startAddresses^(0+128)+22),w
  4092  0185  0020               	movlb	0	; select bank0
  4093  0186  00BA               	movwf	playAudio@startAddress
  4094  0187  0022               	movlb	2	; select bank2
  4095  0188  0837               	movf	((_G_au16endAddresses+1)^(0+256)+22),w
  4096  0189  0020               	movlb	0	; select bank0
  4097  018A  00BD               	movwf	playAudio@endAddress+1
  4098  018B  0022               	movlb	2	; select bank2
  4099  018C  0836               	movf	(_G_au16endAddresses^(0+256)+22),w
  4100  018D  0020               	movlb	0	; select bank0
  4101  018E  00BC               	movwf	playAudio@endAddress
  4102  018F  318C  24D3         	fcall	_playAudio
  4103  0191  0008               	return
  4104  0192                     l1964:	
  4105                           
  4106                           ;Lab3_Main.c: 308:         if (minute == 29 || minute == 39 || minute == 49 || minute ==
      +                           59) {
  4107  0192  301D               	movlw	29
  4108  0193  0020               	movlb	0	; select bank0
  4109  0194  063E               	xorwf	playMinute@minute,w
  4110  0195  043F               	iorwf	playMinute@minute+1,w
  4111  0196  1903               	btfsc	3,2
  4112  0197  29A7               	goto	l1972
  4113  0198  3027               	movlw	39
  4114  0199  063E               	xorwf	playMinute@minute,w
  4115  019A  043F               	iorwf	playMinute@minute+1,w
  4116  019B  1903               	btfsc	3,2
  4117  019C  29A7               	goto	l1972
  4118  019D  3031               	movlw	49
  4119  019E  063E               	xorwf	playMinute@minute,w
  4120  019F  043F               	iorwf	playMinute@minute+1,w
  4121  01A0  1903               	btfsc	3,2
  4122  01A1  29A7               	goto	l1972
  4123  01A2  303B               	movlw	59
  4124  01A3  063E               	xorwf	playMinute@minute,w
  4125  01A4  043F               	iorwf	playMinute@minute+1,w
  4126  01A5  1D03               	btfss	3,2
  4127  01A6  29BA               	goto	l1974
  4128  01A7                     l1972:	
  4129                           
  4130                           ;Lab3_Main.c: 309:             playAudio(G_au16startAddresses[10], G_au16endAddresses[10
      +                          ]);
  4131  01A7  0021               	movlb	1	; select bank1
  4132  01A8  0835               	movf	((_G_au16startAddresses+1)^(0+128)+20),w
  4133  01A9  0020               	movlb	0	; select bank0
  4134  01AA  00BB               	movwf	playAudio@startAddress+1
  4135  01AB  0021               	movlb	1	; select bank1
  4136  01AC  0834               	movf	(_G_au16startAddresses^(0+128)+20),w
  4137  01AD  0020               	movlb	0	; select bank0
  4138  01AE  00BA               	movwf	playAudio@startAddress
  4139  01AF  0022               	movlb	2	; select bank2
  4140  01B0  0835               	movf	((_G_au16endAddresses+1)^(0+256)+20),w
  4141  01B1  0020               	movlb	0	; select bank0
  4142  01B2  00BD               	movwf	playAudio@endAddress+1
  4143  01B3  0022               	movlb	2	; select bank2
  4144  01B4  0834               	movf	(_G_au16endAddresses^(0+256)+20),w
  4145  01B5  0020               	movlb	0	; select bank0
  4146  01B6  00BC               	movwf	playAudio@endAddress
  4147  01B7  318C  24D3         	fcall	_playAudio
  4148                           
  4149                           ;Lab3_Main.c: 310:         } else if ( minute == 28 || minute == 38 || minute == 48 || m
      +                          inute == 58) {
  4150  01B9  0008               	return
  4151  01BA                     l1974:	
  4152  01BA  301C               	movlw	28
  4153  01BB  063E               	xorwf	playMinute@minute,w
  4154  01BC  043F               	iorwf	playMinute@minute+1,w
  4155  01BD  1903               	btfsc	3,2
  4156  01BE  29CE               	goto	l1982
  4157  01BF  3026               	movlw	38
  4158  01C0  063E               	xorwf	playMinute@minute,w
  4159  01C1  043F               	iorwf	playMinute@minute+1,w
  4160  01C2  1903               	btfsc	3,2
  4161  01C3  29CE               	goto	l1982
  4162  01C4  3030               	movlw	48
  4163  01C5  063E               	xorwf	playMinute@minute,w
  4164  01C6  043F               	iorwf	playMinute@minute+1,w
  4165  01C7  1903               	btfsc	3,2
  4166  01C8  29CE               	goto	l1982
  4167  01C9  303A               	movlw	58
  4168  01CA  063E               	xorwf	playMinute@minute,w
  4169  01CB  043F               	iorwf	playMinute@minute+1,w
  4170  01CC  1D03               	btfss	3,2
  4171  01CD  29E1               	goto	l1984
  4172  01CE                     l1982:	
  4173                           
  4174                           ;Lab3_Main.c: 311:             playAudio(G_au16startAddresses[1], G_au16endAddresses[1])
      +                          ;
  4175  01CE  0021               	movlb	1	; select bank1
  4176  01CF  0823               	movf	((_G_au16startAddresses+1)^(0+128)+2),w
  4177  01D0  0020               	movlb	0	; select bank0
  4178  01D1  00BB               	movwf	playAudio@startAddress+1
  4179  01D2  0021               	movlb	1	; select bank1
  4180  01D3  0822               	movf	(_G_au16startAddresses^(0+128)+2),w
  4181  01D4  0020               	movlb	0	; select bank0
  4182  01D5  00BA               	movwf	playAudio@startAddress
  4183  01D6  0022               	movlb	2	; select bank2
  4184  01D7  0823               	movf	((_G_au16endAddresses+1)^(0+256)+2),w
  4185  01D8  0020               	movlb	0	; select bank0
  4186  01D9  00BD               	movwf	playAudio@endAddress+1
  4187  01DA  0022               	movlb	2	; select bank2
  4188  01DB  0822               	movf	(_G_au16endAddresses^(0+256)+2),w
  4189  01DC  0020               	movlb	0	; select bank0
  4190  01DD  00BC               	movwf	playAudio@endAddress
  4191  01DE  318C  24D3         	fcall	_playAudio
  4192                           
  4193                           ;Lab3_Main.c: 312:         } else if ( minute == 27 || minute == 37 || minute == 47 || m
      +                          inute == 57) {
  4194  01E0  0008               	return
  4195  01E1                     l1984:	
  4196  01E1  301B               	movlw	27
  4197  01E2  063E               	xorwf	playMinute@minute,w
  4198  01E3  043F               	iorwf	playMinute@minute+1,w
  4199  01E4  1903               	btfsc	3,2
  4200  01E5  29F5               	goto	l1992
  4201  01E6  3025               	movlw	37
  4202  01E7  063E               	xorwf	playMinute@minute,w
  4203  01E8  043F               	iorwf	playMinute@minute+1,w
  4204  01E9  1903               	btfsc	3,2
  4205  01EA  29F5               	goto	l1992
  4206  01EB  302F               	movlw	47
  4207  01EC  063E               	xorwf	playMinute@minute,w
  4208  01ED  043F               	iorwf	playMinute@minute+1,w
  4209  01EE  1903               	btfsc	3,2
  4210  01EF  29F5               	goto	l1992
  4211  01F0  3039               	movlw	57
  4212  01F1  063E               	xorwf	playMinute@minute,w
  4213  01F2  043F               	iorwf	playMinute@minute+1,w
  4214  01F3  1D03               	btfss	3,2
  4215  01F4  2A08               	goto	l1994
  4216  01F5                     l1992:	
  4217                           
  4218                           ;Lab3_Main.c: 313:             playAudio(G_au16startAddresses[23], G_au16endAddresses[23
      +                          ]);
  4219  01F5  0021               	movlb	1	; select bank1
  4220  01F6  084F               	movf	((_G_au16startAddresses+1)^(0+128)+46),w
  4221  01F7  0020               	movlb	0	; select bank0
  4222  01F8  00BB               	movwf	playAudio@startAddress+1
  4223  01F9  0021               	movlb	1	; select bank1
  4224  01FA  084E               	movf	(_G_au16startAddresses^(0+128)+46),w
  4225  01FB  0020               	movlb	0	; select bank0
  4226  01FC  00BA               	movwf	playAudio@startAddress
  4227  01FD  0022               	movlb	2	; select bank2
  4228  01FE  084F               	movf	((_G_au16endAddresses+1)^(0+256)+46),w
  4229  01FF  0020               	movlb	0	; select bank0
  4230  0200  00BD               	movwf	playAudio@endAddress+1
  4231  0201  0022               	movlb	2	; select bank2
  4232  0202  084E               	movf	(_G_au16endAddresses^(0+256)+46),w
  4233  0203  0020               	movlb	0	; select bank0
  4234  0204  00BC               	movwf	playAudio@endAddress
  4235  0205  318C  24D3         	fcall	_playAudio
  4236                           
  4237                           ;Lab3_Main.c: 314:         } else if (minute == 26 || minute == 36 || minute == 46 || mi
      +                          nute == 56) {
  4238  0207  0008               	return
  4239  0208                     l1994:	
  4240  0208  301A               	movlw	26
  4241  0209  063E               	xorwf	playMinute@minute,w
  4242  020A  043F               	iorwf	playMinute@minute+1,w
  4243  020B  1903               	btfsc	3,2
  4244  020C  2A1C               	goto	l2002
  4245  020D  3024               	movlw	36
  4246  020E  063E               	xorwf	playMinute@minute,w
  4247  020F  043F               	iorwf	playMinute@minute+1,w
  4248  0210  1903               	btfsc	3,2
  4249  0211  2A1C               	goto	l2002
  4250  0212  302E               	movlw	46
  4251  0213  063E               	xorwf	playMinute@minute,w
  4252  0214  043F               	iorwf	playMinute@minute+1,w
  4253  0215  1903               	btfsc	3,2
  4254  0216  2A1C               	goto	l2002
  4255  0217  3038               	movlw	56
  4256  0218  063E               	xorwf	playMinute@minute,w
  4257  0219  043F               	iorwf	playMinute@minute+1,w
  4258  021A  1D03               	btfss	3,2
  4259  021B  2A2F               	goto	l2004
  4260  021C                     l2002:	
  4261                           
  4262                           ;Lab3_Main.c: 315:             playAudio(G_au16startAddresses[25], G_au16endAddresses[25
      +                          ]);
  4263  021C  0021               	movlb	1	; select bank1
  4264  021D  0853               	movf	((_G_au16startAddresses+1)^(0+128)+50),w
  4265  021E  0020               	movlb	0	; select bank0
  4266  021F  00BB               	movwf	playAudio@startAddress+1
  4267  0220  0021               	movlb	1	; select bank1
  4268  0221  0852               	movf	(_G_au16startAddresses^(0+128)+50),w
  4269  0222  0020               	movlb	0	; select bank0
  4270  0223  00BA               	movwf	playAudio@startAddress
  4271  0224  0022               	movlb	2	; select bank2
  4272  0225  0853               	movf	((_G_au16endAddresses+1)^(0+256)+50),w
  4273  0226  0020               	movlb	0	; select bank0
  4274  0227  00BD               	movwf	playAudio@endAddress+1
  4275  0228  0022               	movlb	2	; select bank2
  4276  0229  0852               	movf	(_G_au16endAddresses^(0+256)+50),w
  4277  022A  0020               	movlb	0	; select bank0
  4278  022B  00BC               	movwf	playAudio@endAddress
  4279  022C  318C  24D3         	fcall	_playAudio
  4280                           
  4281                           ;Lab3_Main.c: 316:         } else if (minute == 25 || minute == 35 || minute == 45 || mi
      +                          nute == 55) {
  4282  022E  0008               	return
  4283  022F                     l2004:	
  4284  022F  3019               	movlw	25
  4285  0230  063E               	xorwf	playMinute@minute,w
  4286  0231  043F               	iorwf	playMinute@minute+1,w
  4287  0232  1903               	btfsc	3,2
  4288  0233  2A43               	goto	l2012
  4289  0234  3023               	movlw	35
  4290  0235  063E               	xorwf	playMinute@minute,w
  4291  0236  043F               	iorwf	playMinute@minute+1,w
  4292  0237  1903               	btfsc	3,2
  4293  0238  2A43               	goto	l2012
  4294  0239  302D               	movlw	45
  4295  023A  063E               	xorwf	playMinute@minute,w
  4296  023B  043F               	iorwf	playMinute@minute+1,w
  4297  023C  1903               	btfsc	3,2
  4298  023D  2A43               	goto	l2012
  4299  023E  3037               	movlw	55
  4300  023F  063E               	xorwf	playMinute@minute,w
  4301  0240  043F               	iorwf	playMinute@minute+1,w
  4302  0241  1D03               	btfss	3,2
  4303  0242  2A56               	goto	l2014
  4304  0243                     l2012:	
  4305                           
  4306                           ;Lab3_Main.c: 317:             playAudio(G_au16startAddresses[6], G_au16endAddresses[6])
      +                          ;
  4307  0243  0021               	movlb	1	; select bank1
  4308  0244  082D               	movf	((_G_au16startAddresses+1)^(0+128)+12),w
  4309  0245  0020               	movlb	0	; select bank0
  4310  0246  00BB               	movwf	playAudio@startAddress+1
  4311  0247  0021               	movlb	1	; select bank1
  4312  0248  082C               	movf	(_G_au16startAddresses^(0+128)+12),w
  4313  0249  0020               	movlb	0	; select bank0
  4314  024A  00BA               	movwf	playAudio@startAddress
  4315  024B  0022               	movlb	2	; select bank2
  4316  024C  082D               	movf	((_G_au16endAddresses+1)^(0+256)+12),w
  4317  024D  0020               	movlb	0	; select bank0
  4318  024E  00BD               	movwf	playAudio@endAddress+1
  4319  024F  0022               	movlb	2	; select bank2
  4320  0250  082C               	movf	(_G_au16endAddresses^(0+256)+12),w
  4321  0251  0020               	movlb	0	; select bank0
  4322  0252  00BC               	movwf	playAudio@endAddress
  4323  0253  318C  24D3         	fcall	_playAudio
  4324                           
  4325                           ;Lab3_Main.c: 318:         } else if (minute == 24 || minute == 34 || minute == 44 || mi
      +                          nute == 54) {
  4326  0255  0008               	return
  4327  0256                     l2014:	
  4328  0256  3018               	movlw	24
  4329  0257  063E               	xorwf	playMinute@minute,w
  4330  0258  043F               	iorwf	playMinute@minute+1,w
  4331  0259  1903               	btfsc	3,2
  4332  025A  2A6A               	goto	l2022
  4333  025B  3022               	movlw	34
  4334  025C  063E               	xorwf	playMinute@minute,w
  4335  025D  043F               	iorwf	playMinute@minute+1,w
  4336  025E  1903               	btfsc	3,2
  4337  025F  2A6A               	goto	l2022
  4338  0260  302C               	movlw	44
  4339  0261  063E               	xorwf	playMinute@minute,w
  4340  0262  043F               	iorwf	playMinute@minute+1,w
  4341  0263  1903               	btfsc	3,2
  4342  0264  2A6A               	goto	l2022
  4343  0265  3036               	movlw	54
  4344  0266  063E               	xorwf	playMinute@minute,w
  4345  0267  043F               	iorwf	playMinute@minute+1,w
  4346  0268  1D03               	btfss	3,2
  4347  0269  2A7D               	goto	l2024
  4348  026A                     l2022:	
  4349                           
  4350                           ;Lab3_Main.c: 319:             playAudio(G_au16startAddresses[7], G_au16endAddresses[7])
      +                          ;
  4351  026A  0021               	movlb	1	; select bank1
  4352  026B  082F               	movf	((_G_au16startAddresses+1)^(0+128)+14),w
  4353  026C  0020               	movlb	0	; select bank0
  4354  026D  00BB               	movwf	playAudio@startAddress+1
  4355  026E  0021               	movlb	1	; select bank1
  4356  026F  082E               	movf	(_G_au16startAddresses^(0+128)+14),w
  4357  0270  0020               	movlb	0	; select bank0
  4358  0271  00BA               	movwf	playAudio@startAddress
  4359  0272  0022               	movlb	2	; select bank2
  4360  0273  082F               	movf	((_G_au16endAddresses+1)^(0+256)+14),w
  4361  0274  0020               	movlb	0	; select bank0
  4362  0275  00BD               	movwf	playAudio@endAddress+1
  4363  0276  0022               	movlb	2	; select bank2
  4364  0277  082E               	movf	(_G_au16endAddresses^(0+256)+14),w
  4365  0278  0020               	movlb	0	; select bank0
  4366  0279  00BC               	movwf	playAudio@endAddress
  4367  027A  318C  24D3         	fcall	_playAudio
  4368                           
  4369                           ;Lab3_Main.c: 320:         } else if ( minute == 23 || minute == 33 || minute == 43 || m
      +                          inute == 53) {
  4370  027C  0008               	return
  4371  027D                     l2024:	
  4372  027D  3017               	movlw	23
  4373  027E  063E               	xorwf	playMinute@minute,w
  4374  027F  043F               	iorwf	playMinute@minute+1,w
  4375  0280  1903               	btfsc	3,2
  4376  0281  2A91               	goto	l2032
  4377  0282  3021               	movlw	33
  4378  0283  063E               	xorwf	playMinute@minute,w
  4379  0284  043F               	iorwf	playMinute@minute+1,w
  4380  0285  1903               	btfsc	3,2
  4381  0286  2A91               	goto	l2032
  4382  0287  302B               	movlw	43
  4383  0288  063E               	xorwf	playMinute@minute,w
  4384  0289  043F               	iorwf	playMinute@minute+1,w
  4385  028A  1903               	btfsc	3,2
  4386  028B  2A91               	goto	l2032
  4387  028C  3035               	movlw	53
  4388  028D  063E               	xorwf	playMinute@minute,w
  4389  028E  043F               	iorwf	playMinute@minute+1,w
  4390  028F  1D03               	btfss	3,2
  4391  0290  2AA4               	goto	l2034
  4392  0291                     l2032:	
  4393                           
  4394                           ;Lab3_Main.c: 321:             playAudio(G_au16startAddresses[30], G_au16endAddresses[30
      +                          ]);
  4395  0291  0021               	movlb	1	; select bank1
  4396  0292  085D               	movf	((_G_au16startAddresses+1)^(0+128)+60),w
  4397  0293  0020               	movlb	0	; select bank0
  4398  0294  00BB               	movwf	playAudio@startAddress+1
  4399  0295  0021               	movlb	1	; select bank1
  4400  0296  085C               	movf	(_G_au16startAddresses^(0+128)+60),w
  4401  0297  0020               	movlb	0	; select bank0
  4402  0298  00BA               	movwf	playAudio@startAddress
  4403  0299  0022               	movlb	2	; select bank2
  4404  029A  085D               	movf	((_G_au16endAddresses+1)^(0+256)+60),w
  4405  029B  0020               	movlb	0	; select bank0
  4406  029C  00BD               	movwf	playAudio@endAddress+1
  4407  029D  0022               	movlb	2	; select bank2
  4408  029E  085C               	movf	(_G_au16endAddresses^(0+256)+60),w
  4409  029F  0020               	movlb	0	; select bank0
  4410  02A0  00BC               	movwf	playAudio@endAddress
  4411  02A1  318C  24D3         	fcall	_playAudio
  4412                           
  4413                           ;Lab3_Main.c: 322:         } else if (minute == 22 || minute == 32 || minute == 42 || mi
      +                          nute == 52) {
  4414  02A3  0008               	return
  4415  02A4                     l2034:	
  4416  02A4  3016               	movlw	22
  4417  02A5  063E               	xorwf	playMinute@minute,w
  4418  02A6  043F               	iorwf	playMinute@minute+1,w
  4419  02A7  1903               	btfsc	3,2
  4420  02A8  2AB8               	goto	l2042
  4421  02A9  3020               	movlw	32
  4422  02AA  063E               	xorwf	playMinute@minute,w
  4423  02AB  043F               	iorwf	playMinute@minute+1,w
  4424  02AC  1903               	btfsc	3,2
  4425  02AD  2AB8               	goto	l2042
  4426  02AE  302A               	movlw	42
  4427  02AF  063E               	xorwf	playMinute@minute,w
  4428  02B0  043F               	iorwf	playMinute@minute+1,w
  4429  02B1  1903               	btfsc	3,2
  4430  02B2  2AB8               	goto	l2042
  4431  02B3  3034               	movlw	52
  4432  02B4  063E               	xorwf	playMinute@minute,w
  4433  02B5  043F               	iorwf	playMinute@minute+1,w
  4434  02B6  1D03               	btfss	3,2
  4435  02B7  2ACB               	goto	l2044
  4436  02B8                     l2042:	
  4437                           
  4438                           ;Lab3_Main.c: 323:             playAudio(G_au16startAddresses[33], G_au16endAddresses[33
      +                          ]);
  4439  02B8  0021               	movlb	1	; select bank1
  4440  02B9  0863               	movf	((_G_au16startAddresses+1)^(0+128)+66),w
  4441  02BA  0020               	movlb	0	; select bank0
  4442  02BB  00BB               	movwf	playAudio@startAddress+1
  4443  02BC  0021               	movlb	1	; select bank1
  4444  02BD  0862               	movf	(_G_au16startAddresses^(0+128)+66),w
  4445  02BE  0020               	movlb	0	; select bank0
  4446  02BF  00BA               	movwf	playAudio@startAddress
  4447  02C0  0022               	movlb	2	; select bank2
  4448  02C1  0863               	movf	((_G_au16endAddresses+1)^(0+256)+66),w
  4449  02C2  0020               	movlb	0	; select bank0
  4450  02C3  00BD               	movwf	playAudio@endAddress+1
  4451  02C4  0022               	movlb	2	; select bank2
  4452  02C5  0862               	movf	(_G_au16endAddresses^(0+256)+66),w
  4453  02C6  0020               	movlb	0	; select bank0
  4454  02C7  00BC               	movwf	playAudio@endAddress
  4455  02C8  318C  24D3         	fcall	_playAudio
  4456                           
  4457                           ;Lab3_Main.c: 324:         } else if (minute == 21 || minute == 31 || minute == 41 || mi
      +                          nute == 51) {
  4458  02CA  0008               	return
  4459  02CB                     l2044:	
  4460  02CB  3015               	movlw	21
  4461  02CC  063E               	xorwf	playMinute@minute,w
  4462  02CD  043F               	iorwf	playMinute@minute+1,w
  4463  02CE  1903               	btfsc	3,2
  4464  02CF  2ADF               	goto	l2052
  4465  02D0  301F               	movlw	31
  4466  02D1  063E               	xorwf	playMinute@minute,w
  4467  02D2  043F               	iorwf	playMinute@minute+1,w
  4468  02D3  1903               	btfsc	3,2
  4469  02D4  2ADF               	goto	l2052
  4470  02D5  3029               	movlw	41
  4471  02D6  063E               	xorwf	playMinute@minute,w
  4472  02D7  043F               	iorwf	playMinute@minute+1,w
  4473  02D8  1903               	btfsc	3,2
  4474  02D9  2ADF               	goto	l2052
  4475  02DA  3033               	movlw	51
  4476  02DB  063E               	xorwf	playMinute@minute,w
  4477  02DC  043F               	iorwf	playMinute@minute+1,w
  4478  02DD  1D03               	btfss	3,2
  4479  02DE  2AF2               	goto	l2054
  4480  02DF                     l2052:	
  4481                           
  4482                           ;Lab3_Main.c: 325:             playAudio(G_au16startAddresses[15], G_au16endAddresses[15
      +                          ]);
  4483  02DF  0021               	movlb	1	; select bank1
  4484  02E0  083F               	movf	((_G_au16startAddresses+1)^(0+128)+30),w
  4485  02E1  0020               	movlb	0	; select bank0
  4486  02E2  00BB               	movwf	playAudio@startAddress+1
  4487  02E3  0021               	movlb	1	; select bank1
  4488  02E4  083E               	movf	(_G_au16startAddresses^(0+128)+30),w
  4489  02E5  0020               	movlb	0	; select bank0
  4490  02E6  00BA               	movwf	playAudio@startAddress
  4491  02E7  0022               	movlb	2	; select bank2
  4492  02E8  083F               	movf	((_G_au16endAddresses+1)^(0+256)+30),w
  4493  02E9  0020               	movlb	0	; select bank0
  4494  02EA  00BD               	movwf	playAudio@endAddress+1
  4495  02EB  0022               	movlb	2	; select bank2
  4496  02EC  083E               	movf	(_G_au16endAddresses^(0+256)+30),w
  4497  02ED  0020               	movlb	0	; select bank0
  4498  02EE  00BC               	movwf	playAudio@endAddress
  4499  02EF  318C  24D3         	fcall	_playAudio
  4500                           
  4501                           ;Lab3_Main.c: 326:         } else if (minute == 9) {
  4502  02F1  0008               	return
  4503  02F2                     l2054:	
  4504  02F2  3009               	movlw	9
  4505  02F3  063E               	xorwf	playMinute@minute,w
  4506  02F4  043F               	iorwf	playMinute@minute+1,w
  4507  02F5  1D03               	btfss	3,2
  4508  02F6  2B0A               	goto	l2058
  4509                           
  4510                           ;Lab3_Main.c: 327:             playAudio(G_au16startAddresses[16], G_au16endAddresses[16
      +                          ]);
  4511  02F7  0021               	movlb	1	; select bank1
  4512  02F8  0841               	movf	((_G_au16startAddresses+1)^(0+128)+32),w
  4513  02F9  0020               	movlb	0	; select bank0
  4514  02FA  00BB               	movwf	playAudio@startAddress+1
  4515  02FB  0021               	movlb	1	; select bank1
  4516  02FC  0840               	movf	(_G_au16startAddresses^(0+128)+32),w
  4517  02FD  0020               	movlb	0	; select bank0
  4518  02FE  00BA               	movwf	playAudio@startAddress
  4519  02FF  0022               	movlb	2	; select bank2
  4520  0300  0841               	movf	((_G_au16endAddresses+1)^(0+256)+32),w
  4521  0301  0020               	movlb	0	; select bank0
  4522  0302  00BD               	movwf	playAudio@endAddress+1
  4523  0303  0022               	movlb	2	; select bank2
  4524  0304  0840               	movf	(_G_au16endAddresses^(0+256)+32),w
  4525  0305  0020               	movlb	0	; select bank0
  4526  0306  00BC               	movwf	playAudio@endAddress
  4527  0307  318C  24D3         	fcall	_playAudio
  4528                           
  4529                           ;Lab3_Main.c: 328:         } else if (minute == 8) {
  4530  0309  0008               	return
  4531  030A                     l2058:	
  4532  030A  3008               	movlw	8
  4533  030B  063E               	xorwf	playMinute@minute,w
  4534  030C  043F               	iorwf	playMinute@minute+1,w
  4535  030D  1D03               	btfss	3,2
  4536  030E  2B22               	goto	l2062
  4537                           
  4538                           ;Lab3_Main.c: 329:             playAudio(G_au16startAddresses[12], G_au16endAddresses[12
      +                          ]);
  4539  030F  0021               	movlb	1	; select bank1
  4540  0310  0839               	movf	((_G_au16startAddresses+1)^(0+128)+24),w
  4541  0311  0020               	movlb	0	; select bank0
  4542  0312  00BB               	movwf	playAudio@startAddress+1
  4543  0313  0021               	movlb	1	; select bank1
  4544  0314  0838               	movf	(_G_au16startAddresses^(0+128)+24),w
  4545  0315  0020               	movlb	0	; select bank0
  4546  0316  00BA               	movwf	playAudio@startAddress
  4547  0317  0022               	movlb	2	; select bank2
  4548  0318  0839               	movf	((_G_au16endAddresses+1)^(0+256)+24),w
  4549  0319  0020               	movlb	0	; select bank0
  4550  031A  00BD               	movwf	playAudio@endAddress+1
  4551  031B  0022               	movlb	2	; select bank2
  4552  031C  0838               	movf	(_G_au16endAddresses^(0+256)+24),w
  4553  031D  0020               	movlb	0	; select bank0
  4554  031E  00BC               	movwf	playAudio@endAddress
  4555  031F  318C  24D3         	fcall	_playAudio
  4556                           
  4557                           ;Lab3_Main.c: 330:         } else if (minute == 7) {
  4558  0321  0008               	return
  4559  0322                     l2062:	
  4560  0322  3007               	movlw	7
  4561  0323  063E               	xorwf	playMinute@minute,w
  4562  0324  043F               	iorwf	playMinute@minute+1,w
  4563  0325  1D03               	btfss	3,2
  4564  0326  2B3A               	goto	l2066
  4565                           
  4566                           ;Lab3_Main.c: 331:             playAudio(G_au16startAddresses[18], G_au16endAddresses[18
      +                          ]);
  4567  0327  0021               	movlb	1	; select bank1
  4568  0328  0845               	movf	((_G_au16startAddresses+1)^(0+128)+36),w
  4569  0329  0020               	movlb	0	; select bank0
  4570  032A  00BB               	movwf	playAudio@startAddress+1
  4571  032B  0021               	movlb	1	; select bank1
  4572  032C  0844               	movf	(_G_au16startAddresses^(0+128)+36),w
  4573  032D  0020               	movlb	0	; select bank0
  4574  032E  00BA               	movwf	playAudio@startAddress
  4575  032F  0022               	movlb	2	; select bank2
  4576  0330  0845               	movf	((_G_au16endAddresses+1)^(0+256)+36),w
  4577  0331  0020               	movlb	0	; select bank0
  4578  0332  00BD               	movwf	playAudio@endAddress+1
  4579  0333  0022               	movlb	2	; select bank2
  4580  0334  0844               	movf	(_G_au16endAddresses^(0+256)+36),w
  4581  0335  0020               	movlb	0	; select bank0
  4582  0336  00BC               	movwf	playAudio@endAddress
  4583  0337  318C  24D3         	fcall	_playAudio
  4584                           
  4585                           ;Lab3_Main.c: 332:         } else if (minute == 6) {
  4586  0339  0008               	return
  4587  033A                     l2066:	
  4588  033A  3006               	movlw	6
  4589  033B  063E               	xorwf	playMinute@minute,w
  4590  033C  043F               	iorwf	playMinute@minute+1,w
  4591  033D  1D03               	btfss	3,2
  4592  033E  2B52               	goto	l2070
  4593                           
  4594                           ;Lab3_Main.c: 333:             playAudio(G_au16startAddresses[19], G_au16endAddresses[19
      +                          ]);
  4595  033F  0021               	movlb	1	; select bank1
  4596  0340  0847               	movf	((_G_au16startAddresses+1)^(0+128)+38),w
  4597  0341  0020               	movlb	0	; select bank0
  4598  0342  00BB               	movwf	playAudio@startAddress+1
  4599  0343  0021               	movlb	1	; select bank1
  4600  0344  0846               	movf	(_G_au16startAddresses^(0+128)+38),w
  4601  0345  0020               	movlb	0	; select bank0
  4602  0346  00BA               	movwf	playAudio@startAddress
  4603  0347  0022               	movlb	2	; select bank2
  4604  0348  0847               	movf	((_G_au16endAddresses+1)^(0+256)+38),w
  4605  0349  0020               	movlb	0	; select bank0
  4606  034A  00BD               	movwf	playAudio@endAddress+1
  4607  034B  0022               	movlb	2	; select bank2
  4608  034C  0846               	movf	(_G_au16endAddresses^(0+256)+38),w
  4609  034D  0020               	movlb	0	; select bank0
  4610  034E  00BC               	movwf	playAudio@endAddress
  4611  034F  318C  24D3         	fcall	_playAudio
  4612                           
  4613                           ;Lab3_Main.c: 334:         } else if (minute == 5) {
  4614  0351  0008               	return
  4615  0352                     l2070:	
  4616  0352  3005               	movlw	5
  4617  0353  063E               	xorwf	playMinute@minute,w
  4618  0354  043F               	iorwf	playMinute@minute+1,w
  4619  0355  1D03               	btfss	3,2
  4620  0356  2B6A               	goto	l2074
  4621                           
  4622                           ;Lab3_Main.c: 335:             playAudio(G_au16startAddresses[13], G_au16endAddresses[13
      +                          ]);
  4623  0357  0021               	movlb	1	; select bank1
  4624  0358  083B               	movf	((_G_au16startAddresses+1)^(0+128)+26),w
  4625  0359  0020               	movlb	0	; select bank0
  4626  035A  00BB               	movwf	playAudio@startAddress+1
  4627  035B  0021               	movlb	1	; select bank1
  4628  035C  083A               	movf	(_G_au16startAddresses^(0+128)+26),w
  4629  035D  0020               	movlb	0	; select bank0
  4630  035E  00BA               	movwf	playAudio@startAddress
  4631  035F  0022               	movlb	2	; select bank2
  4632  0360  083B               	movf	((_G_au16endAddresses+1)^(0+256)+26),w
  4633  0361  0020               	movlb	0	; select bank0
  4634  0362  00BD               	movwf	playAudio@endAddress+1
  4635  0363  0022               	movlb	2	; select bank2
  4636  0364  083A               	movf	(_G_au16endAddresses^(0+256)+26),w
  4637  0365  0020               	movlb	0	; select bank0
  4638  0366  00BC               	movwf	playAudio@endAddress
  4639  0367  318C  24D3         	fcall	_playAudio
  4640                           
  4641                           ;Lab3_Main.c: 336:         } else if (minute == 4) {
  4642  0369  0008               	return
  4643  036A                     l2074:	
  4644  036A  3004               	movlw	4
  4645  036B  063E               	xorwf	playMinute@minute,w
  4646  036C  043F               	iorwf	playMinute@minute+1,w
  4647  036D  1D03               	btfss	3,2
  4648  036E  2B82               	goto	l2078
  4649                           
  4650                           ;Lab3_Main.c: 337:             playAudio(G_au16startAddresses[14], G_au16endAddresses[14
      +                          ]);
  4651  036F  0021               	movlb	1	; select bank1
  4652  0370  083D               	movf	((_G_au16startAddresses+1)^(0+128)+28),w
  4653  0371  0020               	movlb	0	; select bank0
  4654  0372  00BB               	movwf	playAudio@startAddress+1
  4655  0373  0021               	movlb	1	; select bank1
  4656  0374  083C               	movf	(_G_au16startAddresses^(0+128)+28),w
  4657  0375  0020               	movlb	0	; select bank0
  4658  0376  00BA               	movwf	playAudio@startAddress
  4659  0377  0022               	movlb	2	; select bank2
  4660  0378  083D               	movf	((_G_au16endAddresses+1)^(0+256)+28),w
  4661  0379  0020               	movlb	0	; select bank0
  4662  037A  00BD               	movwf	playAudio@endAddress+1
  4663  037B  0022               	movlb	2	; select bank2
  4664  037C  083C               	movf	(_G_au16endAddresses^(0+256)+28),w
  4665  037D  0020               	movlb	0	; select bank0
  4666  037E  00BC               	movwf	playAudio@endAddress
  4667  037F  318C  24D3         	fcall	_playAudio
  4668                           
  4669                           ;Lab3_Main.c: 338:         } else if (minute == 3) {
  4670  0381  0008               	return
  4671  0382                     l2078:	
  4672  0382  3003               	movlw	3
  4673  0383  063E               	xorwf	playMinute@minute,w
  4674  0384  043F               	iorwf	playMinute@minute+1,w
  4675  0385  1D03               	btfss	3,2
  4676  0386  2B9A               	goto	l2082
  4677                           
  4678                           ;Lab3_Main.c: 339:             playAudio(G_au16startAddresses[20], G_au16endAddresses[20
      +                          ]);
  4679  0387  0021               	movlb	1	; select bank1
  4680  0388  0849               	movf	((_G_au16startAddresses+1)^(0+128)+40),w
  4681  0389  0020               	movlb	0	; select bank0
  4682  038A  00BB               	movwf	playAudio@startAddress+1
  4683  038B  0021               	movlb	1	; select bank1
  4684  038C  0848               	movf	(_G_au16startAddresses^(0+128)+40),w
  4685  038D  0020               	movlb	0	; select bank0
  4686  038E  00BA               	movwf	playAudio@startAddress
  4687  038F  0022               	movlb	2	; select bank2
  4688  0390  0849               	movf	((_G_au16endAddresses+1)^(0+256)+40),w
  4689  0391  0020               	movlb	0	; select bank0
  4690  0392  00BD               	movwf	playAudio@endAddress+1
  4691  0393  0022               	movlb	2	; select bank2
  4692  0394  0848               	movf	(_G_au16endAddresses^(0+256)+40),w
  4693  0395  0020               	movlb	0	; select bank0
  4694  0396  00BC               	movwf	playAudio@endAddress
  4695  0397  318C  24D3         	fcall	_playAudio
  4696                           
  4697                           ;Lab3_Main.c: 340:         } else if (minute == 2) {
  4698  0399  0008               	return
  4699  039A                     l2082:	
  4700  039A  3002               	movlw	2
  4701  039B  063E               	xorwf	playMinute@minute,w
  4702  039C  043F               	iorwf	playMinute@minute+1,w
  4703  039D  1D03               	btfss	3,2
  4704  039E  2BB2               	goto	l2086
  4705                           
  4706                           ;Lab3_Main.c: 341:             playAudio(G_au16startAddresses[21], G_au16endAddresses[21
      +                          ]);
  4707  039F  0021               	movlb	1	; select bank1
  4708  03A0  084B               	movf	((_G_au16startAddresses+1)^(0+128)+42),w
  4709  03A1  0020               	movlb	0	; select bank0
  4710  03A2  00BB               	movwf	playAudio@startAddress+1
  4711  03A3  0021               	movlb	1	; select bank1
  4712  03A4  084A               	movf	(_G_au16startAddresses^(0+128)+42),w
  4713  03A5  0020               	movlb	0	; select bank0
  4714  03A6  00BA               	movwf	playAudio@startAddress
  4715  03A7  0022               	movlb	2	; select bank2
  4716  03A8  084B               	movf	((_G_au16endAddresses+1)^(0+256)+42),w
  4717  03A9  0020               	movlb	0	; select bank0
  4718  03AA  00BD               	movwf	playAudio@endAddress+1
  4719  03AB  0022               	movlb	2	; select bank2
  4720  03AC  084A               	movf	(_G_au16endAddresses^(0+256)+42),w
  4721  03AD  0020               	movlb	0	; select bank0
  4722  03AE  00BC               	movwf	playAudio@endAddress
  4723  03AF  318C  24D3         	fcall	_playAudio
  4724                           
  4725                           ;Lab3_Main.c: 342:         } else if (minute == 1) {
  4726  03B1  0008               	return
  4727  03B2                     l2086:	
  4728  03B2  033E               	decf	playMinute@minute,w
  4729  03B3  043F               	iorwf	playMinute@minute+1,w
  4730  03B4  1D03               	btfss	3,2
  4731  03B5  0008               	return
  4732                           
  4733                           ;Lab3_Main.c: 343:             playAudio(G_au16startAddresses[17], G_au16endAddresses[17
      +                          ]);
  4734  03B6  0021               	movlb	1	; select bank1
  4735  03B7  0843               	movf	((_G_au16startAddresses+1)^(0+128)+34),w
  4736  03B8  0020               	movlb	0	; select bank0
  4737  03B9  00BB               	movwf	playAudio@startAddress+1
  4738  03BA  0021               	movlb	1	; select bank1
  4739  03BB  0842               	movf	(_G_au16startAddresses^(0+128)+34),w
  4740  03BC  0020               	movlb	0	; select bank0
  4741  03BD  00BA               	movwf	playAudio@startAddress
  4742  03BE  0022               	movlb	2	; select bank2
  4743  03BF  0843               	movf	((_G_au16endAddresses+1)^(0+256)+34),w
  4744  03C0  0020               	movlb	0	; select bank0
  4745  03C1  00BD               	movwf	playAudio@endAddress+1
  4746  03C2  0022               	movlb	2	; select bank2
  4747  03C3  0842               	movf	(_G_au16endAddresses^(0+256)+34),w
  4748  03C4  0020               	movlb	0	; select bank0
  4749  03C5  00BC               	movwf	playAudio@endAddress
  4750  03C6  318C  24D3         	fcall	_playAudio
  4751  03C8  0008               	return
  4752  03C9                     __end_of_playMinute:	
  4753                           
  4754                           	psect	text7
  4755  0E63                     __ptext7:	
  4756 ;; *************** function ___awdiv *****************
  4757 ;; Defined at:
  4758 ;;		line 5 in file "C:\Program Files (x86)\Microchip\xc8\v2.05\pic\sources\c99\common\awdiv.c"
  4759 ;; Parameters:    Size  Location     Type
  4760 ;;  divisor         2    0[COMMON] int 
  4761 ;;  dividend        2    2[COMMON] int 
  4762 ;; Auto vars:     Size  Location     Type
  4763 ;;  quotient        2    7[COMMON] int 
  4764 ;;  sign            1    6[COMMON] unsigned char 
  4765 ;;  counter         1    5[COMMON] unsigned char 
  4766 ;; Return value:  Size  Location     Type
  4767 ;;                  2    0[COMMON] int 
  4768 ;; Registers used:
  4769 ;;		wreg, status,2, status,0
  4770 ;; Tracked objects:
  4771 ;;		On entry : 0/0
  4772 ;;		On exit  : 0/0
  4773 ;;		Unchanged: 0/0
  4774 ;; Data sizes:     COMMON   BANK0   BANK1   BANK2   BANK3   BANK4   BANK5   BANK6   BANK7   BANK8   BANK9  BANK10  BANK1
      +1  BANK12  BANK13  BANK14  BANK15  BANK16  BANK17  BANK18  BANK19  BANK20  BANK21  BANK22  BANK23  BANK24  BANK25
  4775 ;;      Params:         4       0       0       0       0       0       0       0       0       0       0       0       
      +0       0       0       0       0       0       0       0       0       0       0       0       0       0       0
  4776 ;;      Locals:         4       0       0       0       0       0       0       0       0       0       0       0       
      +0       0       0       0       0       0       0       0       0       0       0       0       0       0       0
  4777 ;;      Temps:          1       0       0       0       0       0       0       0       0       0       0       0       
      +0       0       0       0       0       0       0       0       0       0       0       0       0       0       0
  4778 ;;      Totals:         9       0       0       0       0       0       0       0       0       0       0       0       
      +0       0       0       0       0       0       0       0       0       0       0       0       0       0       0
  4779 ;;Total ram usage:        9 bytes
  4780 ;; Hardware stack levels used:    1
  4781 ;; Hardware stack levels required when called:    1
  4782 ;; This function calls:
  4783 ;;		Nothing
  4784 ;; This function is called by:
  4785 ;;		_playMinute10
  4786 ;;		_playMinute
  4787 ;; This function uses a non-reentrant model
  4788 ;;
  4789                           
  4790                           
  4791                           ;psect for function ___awdiv
  4792  0E63                     ___awdiv:	
  4793                           
  4794                           ;incstack = 0
  4795                           ; Regs used in ___awdiv: [wreg+status,2+status,0]
  4796  0E63  01F6               	clrf	___awdiv@sign
  4797  0E64  1FF1               	btfss	___awdiv@divisor+1,7
  4798  0E65  2E6D               	goto	l1886
  4799  0E66  09F0               	comf	___awdiv@divisor,f
  4800  0E67  09F1               	comf	___awdiv@divisor+1,f
  4801  0E68  0AF0               	incf	___awdiv@divisor,f
  4802  0E69  1903               	skipnz
  4803  0E6A  0AF1               	incf	___awdiv@divisor+1,f
  4804  0E6B  01F6               	clrf	___awdiv@sign
  4805  0E6C  0AF6               	incf	___awdiv@sign,f
  4806  0E6D                     l1886:	
  4807  0E6D  1FF3               	btfss	___awdiv@dividend+1,7
  4808  0E6E  2E78               	goto	l1892
  4809  0E6F  09F2               	comf	___awdiv@dividend,f
  4810  0E70  09F3               	comf	___awdiv@dividend+1,f
  4811  0E71  0AF2               	incf	___awdiv@dividend,f
  4812  0E72  1903               	skipnz
  4813  0E73  0AF3               	incf	___awdiv@dividend+1,f
  4814  0E74  3001               	movlw	1
  4815  0E75  00F4               	movwf	??___awdiv
  4816  0E76  0874               	movf	??___awdiv,w
  4817  0E77  06F6               	xorwf	___awdiv@sign,f
  4818  0E78                     l1892:	
  4819  0E78  01F7               	clrf	___awdiv@quotient
  4820  0E79  01F8               	clrf	___awdiv@quotient+1
  4821  0E7A  0870               	movf	___awdiv@divisor,w
  4822  0E7B  0471               	iorwf	___awdiv@divisor+1,w
  4823  0E7C  1903               	btfsc	3,2
  4824  0E7D  2EA7               	goto	l1914
  4825  0E7E  01F5               	clrf	___awdiv@counter
  4826  0E7F  0AF5               	incf	___awdiv@counter,f
  4827  0E80                     l1902:	
  4828  0E80  1BF1               	btfsc	___awdiv@divisor+1,7
  4829  0E81  2E8C               	goto	l1904
  4830  0E82  3001               	movlw	1
  4831  0E83                     u1655:	
  4832  0E83  35F0               	lslf	___awdiv@divisor,f
  4833  0E84  0DF1               	rlf	___awdiv@divisor+1,f
  4834  0E85  0B89               	decfsz	9,f
  4835  0E86  2E83               	goto	u1655
  4836  0E87  3001               	movlw	1
  4837  0E88  00F4               	movwf	??___awdiv
  4838  0E89  0874               	movf	??___awdiv,w
  4839  0E8A  07F5               	addwf	___awdiv@counter,f
  4840  0E8B  2E80               	goto	l1902
  4841  0E8C                     l1904:	
  4842  0E8C  3001               	movlw	1
  4843  0E8D                     u1675:	
  4844  0E8D  35F7               	lslf	___awdiv@quotient,f
  4845  0E8E  0DF8               	rlf	___awdiv@quotient+1,f
  4846  0E8F  0B89               	decfsz	9,f
  4847  0E90  2E8D               	goto	u1675
  4848  0E91  0871               	movf	___awdiv@divisor+1,w
  4849  0E92  0273               	subwf	___awdiv@dividend+1,w
  4850  0E93  1D03               	skipz
  4851  0E94  2E97               	goto	u1685
  4852  0E95  0870               	movf	___awdiv@divisor,w
  4853  0E96  0272               	subwf	___awdiv@dividend,w
  4854  0E97                     u1685:	
  4855  0E97  1C03               	skipc
  4856  0E98  2E9E               	goto	l1910
  4857  0E99  0870               	movf	___awdiv@divisor,w
  4858  0E9A  02F2               	subwf	___awdiv@dividend,f
  4859  0E9B  0871               	movf	___awdiv@divisor+1,w
  4860  0E9C  3BF3               	subwfb	___awdiv@dividend+1,f
  4861  0E9D  1477               	bsf	___awdiv@quotient,0
  4862  0E9E                     l1910:	
  4863  0E9E  3001               	movlw	1
  4864  0E9F                     u1695:	
  4865  0E9F  36F1               	lsrf	___awdiv@divisor+1,f
  4866  0EA0  0CF0               	rrf	___awdiv@divisor,f
  4867  0EA1  0B89               	decfsz	9,f
  4868  0EA2  2E9F               	goto	u1695
  4869  0EA3  3001               	movlw	1
  4870  0EA4  02F5               	subwf	___awdiv@counter,f
  4871  0EA5  1D03               	btfss	3,2
  4872  0EA6  2E8C               	goto	l1904
  4873  0EA7                     l1914:	
  4874  0EA7  0876               	movf	___awdiv@sign,w
  4875  0EA8  1903               	btfsc	3,2
  4876  0EA9  2EAF               	goto	l1918
  4877  0EAA  09F7               	comf	___awdiv@quotient,f
  4878  0EAB  09F8               	comf	___awdiv@quotient+1,f
  4879  0EAC  0AF7               	incf	___awdiv@quotient,f
  4880  0EAD  1903               	skipnz
  4881  0EAE  0AF8               	incf	___awdiv@quotient+1,f
  4882  0EAF                     l1918:	
  4883  0EAF  0878               	movf	___awdiv@quotient+1,w
  4884  0EB0  00F1               	movwf	?___awdiv+1
  4885  0EB1  0877               	movf	___awdiv@quotient,w
  4886  0EB2  00F0               	movwf	?___awdiv
  4887  0EB3  0008               	return
  4888  0EB4                     __end_of___awdiv:	
  4889                           
  4890                           	psect	text8
  4891  03C9                     __ptext8:	
  4892 ;; *************** function _playHour *****************
  4893 ;; Defined at:
  4894 ;;		line 239 in file "Lab3_Main.c"
  4895 ;; Parameters:    Size  Location     Type
  4896 ;;  hour            2    4[BANK0 ] short 
  4897 ;; Auto vars:     Size  Location     Type
  4898 ;;		None
  4899 ;; Return value:  Size  Location     Type
  4900 ;;                  1    wreg      void 
  4901 ;; Registers used:
  4902 ;;		wreg, fsr0l, fsr0h, fsr1l, fsr1h, status,2, status,0, pclath, cstack
  4903 ;; Tracked objects:
  4904 ;;		On entry : 0/0
  4905 ;;		On exit  : 0/0
  4906 ;;		Unchanged: 0/0
  4907 ;; Data sizes:     COMMON   BANK0   BANK1   BANK2   BANK3   BANK4   BANK5   BANK6   BANK7   BANK8   BANK9  BANK10  BANK1
      +1  BANK12  BANK13  BANK14  BANK15  BANK16  BANK17  BANK18  BANK19  BANK20  BANK21  BANK22  BANK23  BANK24  BANK25
  4908 ;;      Params:         0       2       0       0       0       0       0       0       0       0       0       0       
      +0       0       0       0       0       0       0       0       0       0       0       0       0       0       0
  4909 ;;      Locals:         0       0       0       0       0       0       0       0       0       0       0       0       
      +0       0       0       0       0       0       0       0       0       0       0       0       0       0       0
  4910 ;;      Temps:          0       0       0       0       0       0       0       0       0       0       0       0       
      +0       0       0       0       0       0       0       0       0       0       0       0       0       0       0
  4911 ;;      Totals:         0       2       0       0       0       0       0       0       0       0       0       0       
      +0       0       0       0       0       0       0       0       0       0       0       0       0       0       0
  4912 ;;Total ram usage:        2 bytes
  4913 ;; Hardware stack levels used:    1
  4914 ;; Hardware stack levels required when called:    5
  4915 ;; This function calls:
  4916 ;;		_playAudio
  4917 ;; This function is called by:
  4918 ;;		_readTime
  4919 ;; This function uses a non-reentrant model
  4920 ;;
  4921                           
  4922                           
  4923                           ;psect for function _playHour
  4924  03C9                     _playHour:	
  4925                           
  4926                           ;Lab3_Main.c: 240:         if (hour == 0) {
  4927                           
  4928                           ;incstack = 0
  4929                           ; Regs used in _playHour: [wreg-fsr1h+status,2+status,0+pclath+cstack]
  4930  03C9  0020               	movlb	0	; select bank0
  4931  03CA  083E               	movf	playHour@hour,w
  4932  03CB  043F               	iorwf	playHour@hour+1,w
  4933  03CC  1D03               	btfss	3,2
  4934  03CD  2BE1               	goto	l2096
  4935                           
  4936                           ;Lab3_Main.c: 241:             playAudio(G_au16startAddresses[31], G_au16endAddresses[31
      +                          ]);
  4937  03CE  0021               	movlb	1	; select bank1
  4938  03CF  085F               	movf	((_G_au16startAddresses+1)^(0+128)+62),w
  4939  03D0  0020               	movlb	0	; select bank0
  4940  03D1  00BB               	movwf	playAudio@startAddress+1
  4941  03D2  0021               	movlb	1	; select bank1
  4942  03D3  085E               	movf	(_G_au16startAddresses^(0+128)+62),w
  4943  03D4  0020               	movlb	0	; select bank0
  4944  03D5  00BA               	movwf	playAudio@startAddress
  4945  03D6  0022               	movlb	2	; select bank2
  4946  03D7  085F               	movf	((_G_au16endAddresses+1)^(0+256)+62),w
  4947  03D8  0020               	movlb	0	; select bank0
  4948  03D9  00BD               	movwf	playAudio@endAddress+1
  4949  03DA  0022               	movlb	2	; select bank2
  4950  03DB  085E               	movf	(_G_au16endAddresses^(0+256)+62),w
  4951  03DC  0020               	movlb	0	; select bank0
  4952  03DD  00BC               	movwf	playAudio@endAddress
  4953  03DE  318C  24D3         	fcall	_playAudio
  4954                           
  4955                           ;Lab3_Main.c: 242:         } else if (hour == 11) {
  4956  03E0  0008               	return
  4957  03E1                     l2096:	
  4958  03E1  300B               	movlw	11
  4959  03E2  063E               	xorwf	playHour@hour,w
  4960  03E3  043F               	iorwf	playHour@hour+1,w
  4961  03E4  1D03               	btfss	3,2
  4962  03E5  2BF9               	goto	l2100
  4963                           
  4964                           ;Lab3_Main.c: 243:             playAudio(G_au16startAddresses[3], G_au16endAddresses[3])
      +                          ;
  4965  03E6  0021               	movlb	1	; select bank1
  4966  03E7  0827               	movf	((_G_au16startAddresses+1)^(0+128)+6),w
  4967  03E8  0020               	movlb	0	; select bank0
  4968  03E9  00BB               	movwf	playAudio@startAddress+1
  4969  03EA  0021               	movlb	1	; select bank1
  4970  03EB  0826               	movf	(_G_au16startAddresses^(0+128)+6),w
  4971  03EC  0020               	movlb	0	; select bank0
  4972  03ED  00BA               	movwf	playAudio@startAddress
  4973  03EE  0022               	movlb	2	; select bank2
  4974  03EF  0827               	movf	((_G_au16endAddresses+1)^(0+256)+6),w
  4975  03F0  0020               	movlb	0	; select bank0
  4976  03F1  00BD               	movwf	playAudio@endAddress+1
  4977  03F2  0022               	movlb	2	; select bank2
  4978  03F3  0826               	movf	(_G_au16endAddresses^(0+256)+6),w
  4979  03F4  0020               	movlb	0	; select bank0
  4980  03F5  00BC               	movwf	playAudio@endAddress
  4981  03F6  318C  24D3         	fcall	_playAudio
  4982                           
  4983                           ;Lab3_Main.c: 244:         } else if (hour == 10) {
  4984  03F8  0008               	return
  4985  03F9                     l2100:	
  4986  03F9  300A               	movlw	10
  4987  03FA  063E               	xorwf	playHour@hour,w
  4988  03FB  043F               	iorwf	playHour@hour+1,w
  4989  03FC  1D03               	btfss	3,2
  4990  03FD  2C11               	goto	l2104
  4991                           
  4992                           ;Lab3_Main.c: 245:             playAudio(G_au16startAddresses[27], G_au16endAddresses[27
      +                          ]);
  4993  03FE  0021               	movlb	1	; select bank1
  4994  03FF  0857               	movf	((_G_au16startAddresses+1)^(0+128)+54),w
  4995  0400  0020               	movlb	0	; select bank0
  4996  0401  00BB               	movwf	playAudio@startAddress+1
  4997  0402  0021               	movlb	1	; select bank1
  4998  0403  0856               	movf	(_G_au16startAddresses^(0+128)+54),w
  4999  0404  0020               	movlb	0	; select bank0
  5000  0405  00BA               	movwf	playAudio@startAddress
  5001  0406  0022               	movlb	2	; select bank2
  5002  0407  0857               	movf	((_G_au16endAddresses+1)^(0+256)+54),w
  5003  0408  0020               	movlb	0	; select bank0
  5004  0409  00BD               	movwf	playAudio@endAddress+1
  5005  040A  0022               	movlb	2	; select bank2
  5006  040B  0856               	movf	(_G_au16endAddresses^(0+256)+54),w
  5007  040C  0020               	movlb	0	; select bank0
  5008  040D  00BC               	movwf	playAudio@endAddress
  5009  040E  318C  24D3         	fcall	_playAudio
  5010                           
  5011                           ;Lab3_Main.c: 246:         } else if (hour == 9) {
  5012  0410  0008               	return
  5013  0411                     l2104:	
  5014  0411  3009               	movlw	9
  5015  0412  063E               	xorwf	playHour@hour,w
  5016  0413  043F               	iorwf	playHour@hour+1,w
  5017  0414  1D03               	btfss	3,2
  5018  0415  2C29               	goto	l2108
  5019                           
  5020                           ;Lab3_Main.c: 247:             playAudio(G_au16startAddresses[10], G_au16endAddresses[10
      +                          ]);
  5021  0416  0021               	movlb	1	; select bank1
  5022  0417  0835               	movf	((_G_au16startAddresses+1)^(0+128)+20),w
  5023  0418  0020               	movlb	0	; select bank0
  5024  0419  00BB               	movwf	playAudio@startAddress+1
  5025  041A  0021               	movlb	1	; select bank1
  5026  041B  0834               	movf	(_G_au16startAddresses^(0+128)+20),w
  5027  041C  0020               	movlb	0	; select bank0
  5028  041D  00BA               	movwf	playAudio@startAddress
  5029  041E  0022               	movlb	2	; select bank2
  5030  041F  0835               	movf	((_G_au16endAddresses+1)^(0+256)+20),w
  5031  0420  0020               	movlb	0	; select bank0
  5032  0421  00BD               	movwf	playAudio@endAddress+1
  5033  0422  0022               	movlb	2	; select bank2
  5034  0423  0834               	movf	(_G_au16endAddresses^(0+256)+20),w
  5035  0424  0020               	movlb	0	; select bank0
  5036  0425  00BC               	movwf	playAudio@endAddress
  5037  0426  318C  24D3         	fcall	_playAudio
  5038                           
  5039                           ;Lab3_Main.c: 248:         } else if (hour == 8) {
  5040  0428  0008               	return
  5041  0429                     l2108:	
  5042  0429  3008               	movlw	8
  5043  042A  063E               	xorwf	playHour@hour,w
  5044  042B  043F               	iorwf	playHour@hour+1,w
  5045  042C  1D03               	btfss	3,2
  5046  042D  2C41               	goto	l2112
  5047                           
  5048                           ;Lab3_Main.c: 249:             playAudio(G_au16startAddresses[1], G_au16endAddresses[1])
      +                          ;
  5049  042E  0021               	movlb	1	; select bank1
  5050  042F  0823               	movf	((_G_au16startAddresses+1)^(0+128)+2),w
  5051  0430  0020               	movlb	0	; select bank0
  5052  0431  00BB               	movwf	playAudio@startAddress+1
  5053  0432  0021               	movlb	1	; select bank1
  5054  0433  0822               	movf	(_G_au16startAddresses^(0+128)+2),w
  5055  0434  0020               	movlb	0	; select bank0
  5056  0435  00BA               	movwf	playAudio@startAddress
  5057  0436  0022               	movlb	2	; select bank2
  5058  0437  0823               	movf	((_G_au16endAddresses+1)^(0+256)+2),w
  5059  0438  0020               	movlb	0	; select bank0
  5060  0439  00BD               	movwf	playAudio@endAddress+1
  5061  043A  0022               	movlb	2	; select bank2
  5062  043B  0822               	movf	(_G_au16endAddresses^(0+256)+2),w
  5063  043C  0020               	movlb	0	; select bank0
  5064  043D  00BC               	movwf	playAudio@endAddress
  5065  043E  318C  24D3         	fcall	_playAudio
  5066                           
  5067                           ;Lab3_Main.c: 250:         } else if (hour == 7) {
  5068  0440  0008               	return
  5069  0441                     l2112:	
  5070  0441  3007               	movlw	7
  5071  0442  063E               	xorwf	playHour@hour,w
  5072  0443  043F               	iorwf	playHour@hour+1,w
  5073  0444  1D03               	btfss	3,2
  5074  0445  2C59               	goto	l2116
  5075                           
  5076                           ;Lab3_Main.c: 251:             playAudio(G_au16startAddresses[23], G_au16endAddresses[23
      +                          ]);
  5077  0446  0021               	movlb	1	; select bank1
  5078  0447  084F               	movf	((_G_au16startAddresses+1)^(0+128)+46),w
  5079  0448  0020               	movlb	0	; select bank0
  5080  0449  00BB               	movwf	playAudio@startAddress+1
  5081  044A  0021               	movlb	1	; select bank1
  5082  044B  084E               	movf	(_G_au16startAddresses^(0+128)+46),w
  5083  044C  0020               	movlb	0	; select bank0
  5084  044D  00BA               	movwf	playAudio@startAddress
  5085  044E  0022               	movlb	2	; select bank2
  5086  044F  084F               	movf	((_G_au16endAddresses+1)^(0+256)+46),w
  5087  0450  0020               	movlb	0	; select bank0
  5088  0451  00BD               	movwf	playAudio@endAddress+1
  5089  0452  0022               	movlb	2	; select bank2
  5090  0453  084E               	movf	(_G_au16endAddresses^(0+256)+46),w
  5091  0454  0020               	movlb	0	; select bank0
  5092  0455  00BC               	movwf	playAudio@endAddress
  5093  0456  318C  24D3         	fcall	_playAudio
  5094                           
  5095                           ;Lab3_Main.c: 252:         } else if (hour == 6) {
  5096  0458  0008               	return
  5097  0459                     l2116:	
  5098  0459  3006               	movlw	6
  5099  045A  063E               	xorwf	playHour@hour,w
  5100  045B  043F               	iorwf	playHour@hour+1,w
  5101  045C  1D03               	btfss	3,2
  5102  045D  2C71               	goto	l2120
  5103                           
  5104                           ;Lab3_Main.c: 253:             playAudio(G_au16startAddresses[25], G_au16endAddresses[25
      +                          ]);
  5105  045E  0021               	movlb	1	; select bank1
  5106  045F  0853               	movf	((_G_au16startAddresses+1)^(0+128)+50),w
  5107  0460  0020               	movlb	0	; select bank0
  5108  0461  00BB               	movwf	playAudio@startAddress+1
  5109  0462  0021               	movlb	1	; select bank1
  5110  0463  0852               	movf	(_G_au16startAddresses^(0+128)+50),w
  5111  0464  0020               	movlb	0	; select bank0
  5112  0465  00BA               	movwf	playAudio@startAddress
  5113  0466  0022               	movlb	2	; select bank2
  5114  0467  0853               	movf	((_G_au16endAddresses+1)^(0+256)+50),w
  5115  0468  0020               	movlb	0	; select bank0
  5116  0469  00BD               	movwf	playAudio@endAddress+1
  5117  046A  0022               	movlb	2	; select bank2
  5118  046B  0852               	movf	(_G_au16endAddresses^(0+256)+50),w
  5119  046C  0020               	movlb	0	; select bank0
  5120  046D  00BC               	movwf	playAudio@endAddress
  5121  046E  318C  24D3         	fcall	_playAudio
  5122                           
  5123                           ;Lab3_Main.c: 254:         } else if (hour == 5) {
  5124  0470  0008               	return
  5125  0471                     l2120:	
  5126  0471  3005               	movlw	5
  5127  0472  063E               	xorwf	playHour@hour,w
  5128  0473  043F               	iorwf	playHour@hour+1,w
  5129  0474  1D03               	btfss	3,2
  5130  0475  2C89               	goto	l2124
  5131                           
  5132                           ;Lab3_Main.c: 255:             playAudio(G_au16startAddresses[6], G_au16endAddresses[6])
      +                          ;
  5133  0476  0021               	movlb	1	; select bank1
  5134  0477  082D               	movf	((_G_au16startAddresses+1)^(0+128)+12),w
  5135  0478  0020               	movlb	0	; select bank0
  5136  0479  00BB               	movwf	playAudio@startAddress+1
  5137  047A  0021               	movlb	1	; select bank1
  5138  047B  082C               	movf	(_G_au16startAddresses^(0+128)+12),w
  5139  047C  0020               	movlb	0	; select bank0
  5140  047D  00BA               	movwf	playAudio@startAddress
  5141  047E  0022               	movlb	2	; select bank2
  5142  047F  082D               	movf	((_G_au16endAddresses+1)^(0+256)+12),w
  5143  0480  0020               	movlb	0	; select bank0
  5144  0481  00BD               	movwf	playAudio@endAddress+1
  5145  0482  0022               	movlb	2	; select bank2
  5146  0483  082C               	movf	(_G_au16endAddresses^(0+256)+12),w
  5147  0484  0020               	movlb	0	; select bank0
  5148  0485  00BC               	movwf	playAudio@endAddress
  5149  0486  318C  24D3         	fcall	_playAudio
  5150                           
  5151                           ;Lab3_Main.c: 256:         } else if (hour == 4) {
  5152  0488  0008               	return
  5153  0489                     l2124:	
  5154  0489  3004               	movlw	4
  5155  048A  063E               	xorwf	playHour@hour,w
  5156  048B  043F               	iorwf	playHour@hour+1,w
  5157  048C  1D03               	btfss	3,2
  5158  048D  2CA1               	goto	l2128
  5159                           
  5160                           ;Lab3_Main.c: 257:             playAudio(G_au16startAddresses[7], G_au16endAddresses[7])
      +                          ;
  5161  048E  0021               	movlb	1	; select bank1
  5162  048F  082F               	movf	((_G_au16startAddresses+1)^(0+128)+14),w
  5163  0490  0020               	movlb	0	; select bank0
  5164  0491  00BB               	movwf	playAudio@startAddress+1
  5165  0492  0021               	movlb	1	; select bank1
  5166  0493  082E               	movf	(_G_au16startAddresses^(0+128)+14),w
  5167  0494  0020               	movlb	0	; select bank0
  5168  0495  00BA               	movwf	playAudio@startAddress
  5169  0496  0022               	movlb	2	; select bank2
  5170  0497  082F               	movf	((_G_au16endAddresses+1)^(0+256)+14),w
  5171  0498  0020               	movlb	0	; select bank0
  5172  0499  00BD               	movwf	playAudio@endAddress+1
  5173  049A  0022               	movlb	2	; select bank2
  5174  049B  082E               	movf	(_G_au16endAddresses^(0+256)+14),w
  5175  049C  0020               	movlb	0	; select bank0
  5176  049D  00BC               	movwf	playAudio@endAddress
  5177  049E  318C  24D3         	fcall	_playAudio
  5178                           
  5179                           ;Lab3_Main.c: 258:         } else if (hour == 3) {
  5180  04A0  0008               	return
  5181  04A1                     l2128:	
  5182  04A1  3003               	movlw	3
  5183  04A2  063E               	xorwf	playHour@hour,w
  5184  04A3  043F               	iorwf	playHour@hour+1,w
  5185  04A4  1D03               	btfss	3,2
  5186  04A5  2CB9               	goto	l2132
  5187                           
  5188                           ;Lab3_Main.c: 259:             playAudio(G_au16startAddresses[30], G_au16endAddresses[30
      +                          ]);
  5189  04A6  0021               	movlb	1	; select bank1
  5190  04A7  085D               	movf	((_G_au16startAddresses+1)^(0+128)+60),w
  5191  04A8  0020               	movlb	0	; select bank0
  5192  04A9  00BB               	movwf	playAudio@startAddress+1
  5193  04AA  0021               	movlb	1	; select bank1
  5194  04AB  085C               	movf	(_G_au16startAddresses^(0+128)+60),w
  5195  04AC  0020               	movlb	0	; select bank0
  5196  04AD  00BA               	movwf	playAudio@startAddress
  5197  04AE  0022               	movlb	2	; select bank2
  5198  04AF  085D               	movf	((_G_au16endAddresses+1)^(0+256)+60),w
  5199  04B0  0020               	movlb	0	; select bank0
  5200  04B1  00BD               	movwf	playAudio@endAddress+1
  5201  04B2  0022               	movlb	2	; select bank2
  5202  04B3  085C               	movf	(_G_au16endAddresses^(0+256)+60),w
  5203  04B4  0020               	movlb	0	; select bank0
  5204  04B5  00BC               	movwf	playAudio@endAddress
  5205  04B6  318C  24D3         	fcall	_playAudio
  5206                           
  5207                           ;Lab3_Main.c: 260:         } else if (hour == 2) {
  5208  04B8  0008               	return
  5209  04B9                     l2132:	
  5210  04B9  3002               	movlw	2
  5211  04BA  063E               	xorwf	playHour@hour,w
  5212  04BB  043F               	iorwf	playHour@hour+1,w
  5213  04BC  1D03               	btfss	3,2
  5214  04BD  2CD1               	goto	l2136
  5215                           
  5216                           ;Lab3_Main.c: 261:             playAudio(G_au16startAddresses[33], G_au16endAddresses[33
      +                          ]);
  5217  04BE  0021               	movlb	1	; select bank1
  5218  04BF  0863               	movf	((_G_au16startAddresses+1)^(0+128)+66),w
  5219  04C0  0020               	movlb	0	; select bank0
  5220  04C1  00BB               	movwf	playAudio@startAddress+1
  5221  04C2  0021               	movlb	1	; select bank1
  5222  04C3  0862               	movf	(_G_au16startAddresses^(0+128)+66),w
  5223  04C4  0020               	movlb	0	; select bank0
  5224  04C5  00BA               	movwf	playAudio@startAddress
  5225  04C6  0022               	movlb	2	; select bank2
  5226  04C7  0863               	movf	((_G_au16endAddresses+1)^(0+256)+66),w
  5227  04C8  0020               	movlb	0	; select bank0
  5228  04C9  00BD               	movwf	playAudio@endAddress+1
  5229  04CA  0022               	movlb	2	; select bank2
  5230  04CB  0862               	movf	(_G_au16endAddresses^(0+256)+66),w
  5231  04CC  0020               	movlb	0	; select bank0
  5232  04CD  00BC               	movwf	playAudio@endAddress
  5233  04CE  318C  24D3         	fcall	_playAudio
  5234                           
  5235                           ;Lab3_Main.c: 262:         } else if (hour == 1) {
  5236  04D0  0008               	return
  5237  04D1                     l2136:	
  5238  04D1  033E               	decf	playHour@hour,w
  5239  04D2  043F               	iorwf	playHour@hour+1,w
  5240  04D3  1D03               	btfss	3,2
  5241  04D4  0008               	return
  5242                           
  5243                           ;Lab3_Main.c: 263:             playAudio(G_au16startAddresses[15], G_au16endAddresses[15
      +                          ]);
  5244  04D5  0021               	movlb	1	; select bank1
  5245  04D6  083F               	movf	((_G_au16startAddresses+1)^(0+128)+30),w
  5246  04D7  0020               	movlb	0	; select bank0
  5247  04D8  00BB               	movwf	playAudio@startAddress+1
  5248  04D9  0021               	movlb	1	; select bank1
  5249  04DA  083E               	movf	(_G_au16startAddresses^(0+128)+30),w
  5250  04DB  0020               	movlb	0	; select bank0
  5251  04DC  00BA               	movwf	playAudio@startAddress
  5252  04DD  0022               	movlb	2	; select bank2
  5253  04DE  083F               	movf	((_G_au16endAddresses+1)^(0+256)+30),w
  5254  04DF  0020               	movlb	0	; select bank0
  5255  04E0  00BD               	movwf	playAudio@endAddress+1
  5256  04E1  0022               	movlb	2	; select bank2
  5257  04E2  083E               	movf	(_G_au16endAddresses^(0+256)+30),w
  5258  04E3  0020               	movlb	0	; select bank0
  5259  04E4  00BC               	movwf	playAudio@endAddress
  5260  04E5  318C  24D3         	fcall	_playAudio
  5261  04E7  0008               	return
  5262  04E8                     __end_of_playHour:	
  5263                           
  5264                           	psect	text9
  5265  0CD3                     __ptext9:	
  5266 ;; *************** function _playAudio *****************
  5267 ;; Defined at:
  5268 ;;		line 349 in file "Lab3_Main.c"
  5269 ;; Parameters:    Size  Location     Type
  5270 ;;  startAddress    2    0[BANK0 ] short 
  5271 ;;  endAddress      2    2[BANK0 ] short 
  5272 ;; Auto vars:     Size  Location     Type
  5273 ;;		None
  5274 ;; Return value:  Size  Location     Type
  5275 ;;                  1    wreg      void 
  5276 ;; Registers used:
  5277 ;;		wreg, fsr0l, fsr0h, fsr1l, fsr1h, status,2, status,0, pclath, cstack
  5278 ;; Tracked objects:
  5279 ;;		On entry : 0/0
  5280 ;;		On exit  : 0/0
  5281 ;;		Unchanged: 0/0
  5282 ;; Data sizes:     COMMON   BANK0   BANK1   BANK2   BANK3   BANK4   BANK5   BANK6   BANK7   BANK8   BANK9  BANK10  BANK1
      +1  BANK12  BANK13  BANK14  BANK15  BANK16  BANK17  BANK18  BANK19  BANK20  BANK21  BANK22  BANK23  BANK24  BANK25
  5283 ;;      Params:         0       4       0       0       0       0       0       0       0       0       0       0       
      +0       0       0       0       0       0       0       0       0       0       0       0       0       0       0
  5284 ;;      Locals:         0       0       0       0       0       0       0       0       0       0       0       0       
      +0       0       0       0       0       0       0       0       0       0       0       0       0       0       0
  5285 ;;      Temps:          1       0       0       0       0       0       0       0       0       0       0       0       
      +0       0       0       0       0       0       0       0       0       0       0       0       0       0       0
  5286 ;;      Totals:         1       4       0       0       0       0       0       0       0       0       0       0       
      +0       0       0       0       0       0       0       0       0       0       0       0       0       0       0
  5287 ;;Total ram usage:        5 bytes
  5288 ;; Hardware stack levels used:    1
  5289 ;; Hardware stack levels required when called:    4
  5290 ;; This function calls:
  5291 ;;		_active
  5292 ;; This function is called by:
  5293 ;;		_checkButtonPress
  5294 ;;		_readTime
  5295 ;;		_playAlarm
  5296 ;;		_playHour
  5297 ;;		_playMinute10
  5298 ;;		_playMinute
  5299 ;; This function uses a non-reentrant model
  5300 ;;
  5301                           
  5302                           
  5303                           ;psect for function _playAudio
  5304  0CD3                     _playAudio:	
  5305                           
  5306                           ;Lab3_Main.c: 349: void playAudio(short startAddress, short endAddress);Lab3_Main.c: 350
      +                          : {;Lab3_Main.c: 351:     if (G_8hasAddress == 0 && timeSaid)
  5307                           
  5308                           ;incstack = 0
  5309                           ; Regs used in _playAudio: [wreg-fsr1h+status,2+status,0+pclath+cstack]
  5310  0CD3  0020               	movlb	0	; select bank0
  5311  0CD4  0835               	movf	_G_8hasAddress,w
  5312  0CD5  1D03               	btfss	3,2
  5313  0CD6  0008               	return
  5314  0CD7  0834               	movf	_timeSaid,w
  5315  0CD8  1903               	btfsc	3,2
  5316  0CD9  0008               	return
  5317                           
  5318                           ;Lab3_Main.c: 352:     {;Lab3_Main.c: 353:     G_u16Address = startAddress;
  5319  0CDA  083B               	movf	playAudio@startAddress+1,w
  5320  0CDB  00B9               	movwf	_G_u16Address+1
  5321  0CDC  083A               	movf	playAudio@startAddress,w
  5322  0CDD  00B8               	movwf	_G_u16Address
  5323                           
  5324                           ;Lab3_Main.c: 354:     G_u8charPointer = (unsigned char *) &G_u16Address;
  5325  0CDE  3038               	movlw	(low (_G_u16Address| 0))& (0+255)
  5326  0CDF  00FB               	movwf	??_playAudio
  5327  0CE0  087B               	movf	??_playAudio,w
  5328  0CE1  00FD               	movwf	_G_u8charPointer
  5329                           
  5330                           ;Lab3_Main.c: 355:     G_u16EndAddress = endAddress;
  5331  0CE2  083D               	movf	playAudio@endAddress+1,w
  5332  0CE3  00AB               	movwf	_G_u16EndAddress+1
  5333  0CE4  083C               	movf	playAudio@endAddress,w
  5334  0CE5  00AA               	movwf	_G_u16EndAddress
  5335                           
  5336                           ;Lab3_Main.c: 356:     G_8hasAddress = 1;
  5337  0CE6  01B5               	clrf	_G_8hasAddress
  5338  0CE7  0AB5               	incf	_G_8hasAddress,f
  5339                           
  5340                           ;Lab3_Main.c: 357:     active();
  5341  0CE8  318F  270D         	fcall	_active
  5342  0CEA  0008               	return
  5343  0CEB                     __end_of_playAudio:	
  5344                           
  5345                           	psect	text10
  5346  0F0D                     __ptext10:	
  5347 ;; *************** function _active *****************
  5348 ;; Defined at:
  5349 ;;		line 362 in file "Lab3_Main.c"
  5350 ;; Parameters:    Size  Location     Type
  5351 ;;		None
  5352 ;; Auto vars:     Size  Location     Type
  5353 ;;  readMessage     1   10[COMMON] unsigned char 
  5354 ;; Return value:  Size  Location     Type
  5355 ;;                  1    wreg      void 
  5356 ;; Registers used:
  5357 ;;		wreg, fsr0l, fsr0h, fsr1l, fsr1h, status,2, status,0, pclath, cstack
  5358 ;; Tracked objects:
  5359 ;;		On entry : 0/0
  5360 ;;		On exit  : 0/0
  5361 ;;		Unchanged: 0/0
  5362 ;; Data sizes:     COMMON   BANK0   BANK1   BANK2   BANK3   BANK4   BANK5   BANK6   BANK7   BANK8   BANK9  BANK10  BANK1
      +1  BANK12  BANK13  BANK14  BANK15  BANK16  BANK17  BANK18  BANK19  BANK20  BANK21  BANK22  BANK23  BANK24  BANK25
  5363 ;;      Params:         0       0       0       0       0       0       0       0       0       0       0       0       
      +0       0       0       0       0       0       0       0       0       0       0       0       0       0       0
  5364 ;;      Locals:         1       0       0       0       0       0       0       0       0       0       0       0       
      +0       0       0       0       0       0       0       0       0       0       0       0       0       0       0
  5365 ;;      Temps:          1       0       0       0       0       0       0       0       0       0       0       0       
      +0       0       0       0       0       0       0       0       0       0       0       0       0       0       0
  5366 ;;      Totals:         2       0       0       0       0       0       0       0       0       0       0       0       
      +0       0       0       0       0       0       0       0       0       0       0       0       0       0       0
  5367 ;;Total ram usage:        2 bytes
  5368 ;; Hardware stack levels used:    1
  5369 ;; Hardware stack levels required when called:    3
  5370 ;; This function calls:
  5371 ;;		_SD_Read8bitResponse
  5372 ;;		_SD_SendCommand
  5373 ;;		_SPI_Read
  5374 ;;		_writeDAQ
  5375 ;; This function is called by:
  5376 ;;		_playAudio
  5377 ;; This function uses a non-reentrant model
  5378 ;;
  5379                           
  5380                           
  5381                           ;psect for function _active
  5382  0F0D                     _active:	
  5383  0F0D                     l1860:	
  5384                           ;Lab3_Main.c: 364:     while (G_u16Address != G_u16EndAddress) {
  5385                           
  5386                           ;incstack = 0
  5387                           ; Regs used in _active: [wreg-fsr1h+status,2+status,0+pclath+cstack]
  5388                           
  5389                           
  5390                           ;Lab3_Main.c: 364:     while (G_u16Address != G_u16EndAddress) {
  5391  0F0D  0020               	movlb	0	; select bank0
  5392  0F0E  082B               	movf	_G_u16EndAddress+1,w
  5393  0F0F  0639               	xorwf	_G_u16Address+1,w
  5394  0F10  1D03               	skipz
  5395  0F11  2F14               	goto	u1595
  5396  0F12  082A               	movf	_G_u16EndAddress,w
  5397  0F13  0638               	xorwf	_G_u16Address,w
  5398  0F14                     u1595:	
  5399  0F14  1903               	btfsc	3,2
  5400  0F15  2F72               	goto	l1862
  5401                           
  5402                           ;Lab3_Main.c: 365:         if (G_8counter == 0) {
  5403  0F16  082C               	movf	_G_8counter,w
  5404  0F17  042D               	iorwf	_G_8counter+1,w
  5405  0F18  1D03               	btfss	3,2
  5406  0F19  2F38               	goto	l1832
  5407                           
  5408                           ;Lab3_Main.c: 367:             SD_SendCommand(17, 0x00, 0x00, G_u8charPointer[1], G_u8ch
      +                          arPointer[0]);
  5409  0F1A  01F1               	clrf	SD_SendCommand@ARG3
  5410  0F1B  01F2               	clrf	SD_SendCommand@ARG2
  5411  0F1C  087D               	movf	_G_u8charPointer,w
  5412  0F1D  0086               	movwf	6
  5413  0F1E  0187               	clrf	7
  5414  0F1F  3F41               	moviw [1]fsr1
  5415  0F20  00F3               	movwf	SD_SendCommand@ARG1
  5416  0F21  087D               	movf	_G_u8charPointer,w
  5417  0F22  0086               	movwf	6
  5418  0F23  0187               	clrf	7
  5419  0F24  0801               	movf	1,w
  5420  0F25  00F9               	movwf	??_active
  5421  0F26  0879               	movf	??_active,w
  5422  0F27  00F4               	movwf	SD_SendCommand@ARG0
  5423  0F28  3011               	movlw	17
  5424  0F29  3186  26DB  318F   	fcall	_SD_SendCommand
  5425                           
  5426                           ;Lab3_Main.c: 368:             SD_Read8bitResponse();
  5427  0F2C  318C  24C2  318F   	fcall	_SD_Read8bitResponse
  5428  0F2F                     l1828:	
  5429  0F2F  318C  247A  318F   	fcall	_SPI_Read
  5430  0F32  00F9               	movwf	??_active
  5431  0F33  0879               	movf	??_active,w
  5432  0F34  00FA               	movwf	active@readMessage
  5433  0F35  0A7A               	incf	active@readMessage,w
  5434  0F36  1903               	btfsc	3,2
  5435  0F37  2F2F               	goto	l1828
  5436  0F38                     l1832:	
  5437                           
  5438                           ;Lab3_Main.c: 373:         G_8sendbyte = SPI_Read();
  5439  0F38  318C  247A  318F   	fcall	_SPI_Read
  5440  0F3B  00F9               	movwf	??_active
  5441  0F3C  0879               	movf	??_active,w
  5442  0F3D  0020               	movlb	0	; select bank0
  5443  0F3E  00B6               	movwf	_G_8sendbyte
  5444                           
  5445                           ;Lab3_Main.c: 374:         writeDAQ(G_8sendbyte);
  5446  0F3F  0836               	movf	_G_8sendbyte,w
  5447  0F40  318C  2492  318F   	fcall	_writeDAQ
  5448                           
  5449                           ;Lab3_Main.c: 375:         G_8counter++;
  5450  0F43  3001               	movlw	1
  5451  0F44  0020               	movlb	0	; select bank0
  5452  0F45  07AC               	addwf	_G_8counter,f
  5453  0F46  3000               	movlw	0
  5454  0F47  3DAD               	addwfc	_G_8counter+1,f
  5455                           
  5456                           ;Lab3_Main.c: 377:         if (G_8counter==512) {
  5457  0F48  3002               	movlw	2
  5458  0F49  062D               	xorwf	_G_8counter+1,w
  5459  0F4A  042C               	iorwf	_G_8counter,w
  5460  0F4B  1D03               	btfss	3,2
  5461  0F4C  2F5C               	goto	l412
  5462                           
  5463                           ;Lab3_Main.c: 378:          G_u16Address++;
  5464  0F4D  3001               	movlw	1
  5465  0F4E  07B8               	addwf	_G_u16Address,f
  5466  0F4F  3000               	movlw	0
  5467  0F50  3DB9               	addwfc	_G_u16Address+1,f
  5468                           
  5469                           ;Lab3_Main.c: 379:          G_8counter = 0;
  5470  0F51  01AC               	clrf	_G_8counter
  5471  0F52  01AD               	clrf	_G_8counter+1
  5472                           
  5473                           ;Lab3_Main.c: 380:          SPI_Read();
  5474  0F53  318C  247A  318F   	fcall	_SPI_Read
  5475                           
  5476                           ;Lab3_Main.c: 381:          SPI_Read();
  5477  0F56  318C  247A  318F   	fcall	_SPI_Read
  5478                           
  5479                           ;Lab3_Main.c: 382:          SPI_Read();
  5480  0F59  318C  247A  318F   	fcall	_SPI_Read
  5481  0F5C                     l412:	
  5482  0F5C  0020               	movlb	0	; select bank0
  5483  0F5D  1C91               	btfss	17,1	;volatile
  5484  0F5E  2F5C               	goto	l412
  5485                           
  5486                           ;Lab3_Main.c: 385:         PIR1bits.TMR2IF = 0;
  5487  0F5F  1091               	bcf	17,1	;volatile
  5488                           
  5489                           ;Lab3_Main.c: 387:         if (PORTBbits.RB0 == 1 && !pressedSnooze)
  5490  0F60  1C0D               	btfss	13,0	;volatile
  5491  0F61  2F67               	goto	l415
  5492  0F62  082F               	movf	_pressedSnooze,w
  5493  0F63  1D03               	btfss	3,2
  5494  0F64  2F67               	goto	l415
  5495                           
  5496                           ;Lab3_Main.c: 388:         {;Lab3_Main.c: 389:             pressedSnooze = 1;
  5497  0F65  01AF               	clrf	_pressedSnooze
  5498  0F66  0AAF               	incf	_pressedSnooze,f
  5499  0F67                     l415:	
  5500                           ;Lab3_Main.c: 390:         }
  5501                           
  5502                           
  5503                           ;Lab3_Main.c: 391:         if (PORTBbits.RB0 == 0 && pressedSnooze)
  5504  0F67  180D               	btfsc	13,0	;volatile
  5505  0F68  2F0D               	goto	l1860
  5506  0F69  082F               	movf	_pressedSnooze,w
  5507  0F6A  1903               	btfsc	3,2
  5508  0F6B  2F0D               	goto	l1860
  5509                           
  5510                           ;Lab3_Main.c: 392:         {;Lab3_Main.c: 393:                 pressedSnooze = 0;
  5511  0F6C  01AF               	clrf	_pressedSnooze
  5512                           
  5513                           ;Lab3_Main.c: 394:                 timeSaid = 0;
  5514  0F6D  01B4               	clrf	_timeSaid
  5515                           
  5516                           ;Lab3_Main.c: 395:                 G_8hasAddress = 0;
  5517  0F6E  01B5               	clrf	_G_8hasAddress
  5518                           
  5519                           ;Lab3_Main.c: 396:                 snooze = 1;
  5520  0F6F  01AE               	clrf	_snooze
  5521  0F70  0AAE               	incf	_snooze,f
  5522  0F71  0008               	return
  5523  0F72                     l1862:	
  5524                           
  5525                           ;Lab3_Main.c: 401:     G_8hasAddress = 0;
  5526  0F72  01B5               	clrf	_G_8hasAddress
  5527  0F73  0008               	return
  5528  0F74                     __end_of_active:	
  5529                           
  5530                           	psect	text11
  5531  0C92                     __ptext11:	
  5532 ;; *************** function _writeDAQ *****************
  5533 ;; Defined at:
  5534 ;;		line 405 in file "Lab3_Main.c"
  5535 ;; Parameters:    Size  Location     Type
  5536 ;;  writevalue      1    wreg     unsigned char 
  5537 ;; Auto vars:     Size  Location     Type
  5538 ;;  writevalue      1    2[COMMON] unsigned char 
  5539 ;; Return value:  Size  Location     Type
  5540 ;;                  1    wreg      void 
  5541 ;; Registers used:
  5542 ;;		wreg
  5543 ;; Tracked objects:
  5544 ;;		On entry : 0/0
  5545 ;;		On exit  : 0/0
  5546 ;;		Unchanged: 0/0
  5547 ;; Data sizes:     COMMON   BANK0   BANK1   BANK2   BANK3   BANK4   BANK5   BANK6   BANK7   BANK8   BANK9  BANK10  BANK1
      +1  BANK12  BANK13  BANK14  BANK15  BANK16  BANK17  BANK18  BANK19  BANK20  BANK21  BANK22  BANK23  BANK24  BANK25
  5548 ;;      Params:         0       0       0       0       0       0       0       0       0       0       0       0       
      +0       0       0       0       0       0       0       0       0       0       0       0       0       0       0
  5549 ;;      Locals:         1       0       0       0       0       0       0       0       0       0       0       0       
      +0       0       0       0       0       0       0       0       0       0       0       0       0       0       0
  5550 ;;      Temps:          2       0       0       0       0       0       0       0       0       0       0       0       
      +0       0       0       0       0       0       0       0       0       0       0       0       0       0       0
  5551 ;;      Totals:         3       0       0       0       0       0       0       0       0       0       0       0       
      +0       0       0       0       0       0       0       0       0       0       0       0       0       0       0
  5552 ;;Total ram usage:        3 bytes
  5553 ;; Hardware stack levels used:    1
  5554 ;; Hardware stack levels required when called:    1
  5555 ;; This function calls:
  5556 ;;		Nothing
  5557 ;; This function is called by:
  5558 ;;		_active
  5559 ;; This function uses a non-reentrant model
  5560 ;;
  5561                           
  5562                           
  5563                           ;psect for function _writeDAQ
  5564  0C92                     _writeDAQ:	
  5565                           
  5566                           ;incstack = 0
  5567                           ; Regs used in _writeDAQ: [wreg]
  5568                           ;writeDAQ@writevalue stored from wreg
  5569  0C92  00F2               	movwf	writeDAQ@writevalue
  5570                           
  5571                           ;Lab3_Main.c: 406:   DAC1REF= writevalue;
  5572  0C93  0872               	movf	writeDAQ@writevalue,w
  5573  0C94  00F0               	movwf	??_writeDAQ
  5574  0C95  01F1               	clrf	??_writeDAQ+1
  5575  0C96  0870               	movf	??_writeDAQ,w
  5576  0C97  002B               	movlb	11	; select bank11
  5577  0C98  008F               	movwf	15	;volatile
  5578  0C99  0871               	movf	??_writeDAQ+1,w
  5579  0C9A  0090               	movwf	16	;volatile
  5580                           
  5581                           ;Lab3_Main.c: 407:   DAC1LD = 1;
  5582  0C9B  140D               	bsf	13,0	;volatile
  5583  0C9C  0008               	return
  5584  0C9D                     __end_of_writeDAQ:	
  5585                           
  5586                           	psect	text12
  5587  0D1E                     __ptext12:	
  5588 ;; *************** function _SPI_Init *****************
  5589 ;; Defined at:
  5590 ;;		line 7 in file "Lab3_SPI.c"
  5591 ;; Parameters:    Size  Location     Type
  5592 ;;		None
  5593 ;; Auto vars:     Size  Location     Type
  5594 ;;		None
  5595 ;; Return value:  Size  Location     Type
  5596 ;;                  1    wreg      void 
  5597 ;; Registers used:
  5598 ;;		wreg, status,2
  5599 ;; Tracked objects:
  5600 ;;		On entry : 0/0
  5601 ;;		On exit  : 0/0
  5602 ;;		Unchanged: 0/0
  5603 ;; Data sizes:     COMMON   BANK0   BANK1   BANK2   BANK3   BANK4   BANK5   BANK6   BANK7   BANK8   BANK9  BANK10  BANK1
      +1  BANK12  BANK13  BANK14  BANK15  BANK16  BANK17  BANK18  BANK19  BANK20  BANK21  BANK22  BANK23  BANK24  BANK25
  5604 ;;      Params:         0       0       0       0       0       0       0       0       0       0       0       0       
      +0       0       0       0       0       0       0       0       0       0       0       0       0       0       0
  5605 ;;      Locals:         0       0       0       0       0       0       0       0       0       0       0       0       
      +0       0       0       0       0       0       0       0       0       0       0       0       0       0       0
  5606 ;;      Temps:          0       0       0       0       0       0       0       0       0       0       0       0       
      +0       0       0       0       0       0       0       0       0       0       0       0       0       0       0
  5607 ;;      Totals:         0       0       0       0       0       0       0       0       0       0       0       0       
      +0       0       0       0       0       0       0       0       0       0       0       0       0       0       0
  5608 ;;Total ram usage:        0 bytes
  5609 ;; Hardware stack levels used:    1
  5610 ;; Hardware stack levels required when called:    1
  5611 ;; This function calls:
  5612 ;;		Nothing
  5613 ;; This function is called by:
  5614 ;;		_main
  5615 ;; This function uses a non-reentrant model
  5616 ;;
  5617                           
  5618                           
  5619                           ;psect for function _SPI_Init
  5620  0D1E                     _SPI_Init:	
  5621                           
  5622                           ;Lab3_SPI.c: 10:     TRISC2 = 0;
  5623                           
  5624                           ;incstack = 0
  5625                           ; Regs used in _SPI_Init: [wreg+status,2]
  5626  0D1E  0021               	movlb	1	; select bank1
  5627  0D1F  110E               	bcf	14,2	;volatile
  5628                           
  5629                           ;Lab3_SPI.c: 11:     RC2PPS = 0x21;
  5630  0D20  3021               	movlw	33
  5631  0D21  003D               	movlb	29	; select bank29
  5632  0D22  00A2               	movwf	34	;volatile
  5633                           
  5634                           ;Lab3_SPI.c: 12:     SSPCLKPPS = 0x12;
  5635  0D23  3012               	movlw	18
  5636  0D24  003C               	movlb	28	; select bank28
  5637  0D25  00BA               	movwf	58	;volatile
  5638                           
  5639                           ;Lab3_SPI.c: 15:     TRISC3 = 1;
  5640  0D26  0021               	movlb	1	; select bank1
  5641  0D27  158E               	bsf	14,3	;volatile
  5642                           
  5643                           ;Lab3_SPI.c: 16:     ANSC3 = 0;
  5644  0D28  0023               	movlb	3	; select bank3
  5645  0D29  118E               	bcf	14,3	;volatile
  5646                           
  5647                           ;Lab3_SPI.c: 17:     SSPDATPPS = 0x13;
  5648  0D2A  3013               	movlw	19
  5649  0D2B  003C               	movlb	28	; select bank28
  5650  0D2C  00BB               	movwf	59	;volatile
  5651                           
  5652                           ;Lab3_SPI.c: 20:     TRISC4 = 0;
  5653  0D2D  0021               	movlb	1	; select bank1
  5654  0D2E  120E               	bcf	14,4	;volatile
  5655                           
  5656                           ;Lab3_SPI.c: 21:     RC4PPS = 0x23;
  5657  0D2F  3023               	movlw	35
  5658  0D30  003D               	movlb	29	; select bank29
  5659  0D31  00A4               	movwf	36	;volatile
  5660                           
  5661                           ;Lab3_SPI.c: 24:     TRISC7 = 0;
  5662  0D32  0021               	movlb	1	; select bank1
  5663  0D33  138E               	bcf	14,7	;volatile
  5664                           
  5665                           ;Lab3_SPI.c: 27:     SSP1STAT = 0x80;
  5666  0D34  3080               	movlw	128
  5667  0D35  0024               	movlb	4	; select bank4
  5668  0D36  0094               	movwf	20	;volatile
  5669                           
  5670                           ;Lab3_SPI.c: 30:     SSP1CON1 = 0x30;
  5671  0D37  3030               	movlw	48
  5672  0D38  0095               	movwf	21	;volatile
  5673                           
  5674                           ;Lab3_SPI.c: 33:     SSP1ADD = 0x00;
  5675  0D39  0192               	clrf	18	;volatile
  5676  0D3A  0008               	return
  5677  0D3B                     __end_of_SPI_Init:	
  5678                           
  5679                           	psect	text13
  5680  0F74                     __ptext13:	
  5681 ;; *************** function _SD_Init *****************
  5682 ;; Defined at:
  5683 ;;		line 11 in file "Lab3_SD.c"
  5684 ;; Parameters:    Size  Location     Type
  5685 ;;		None
  5686 ;; Auto vars:     Size  Location     Type
  5687 ;;		None
  5688 ;; Return value:  Size  Location     Type
  5689 ;;                  1    wreg      void 
  5690 ;; Registers used:
  5691 ;;		wreg, fsr0l, fsr0h, status,2, status,0, pclath, cstack
  5692 ;; Tracked objects:
  5693 ;;		On entry : 0/0
  5694 ;;		On exit  : 0/0
  5695 ;;		Unchanged: 0/0
  5696 ;; Data sizes:     COMMON   BANK0   BANK1   BANK2   BANK3   BANK4   BANK5   BANK6   BANK7   BANK8   BANK9  BANK10  BANK1
      +1  BANK12  BANK13  BANK14  BANK15  BANK16  BANK17  BANK18  BANK19  BANK20  BANK21  BANK22  BANK23  BANK24  BANK25
  5697 ;;      Params:         0       0       0       0       0       0       0       0       0       0       0       0       
      +0       0       0       0       0       0       0       0       0       0       0       0       0       0       0
  5698 ;;      Locals:         0       0       0       0       0       0       0       0       0       0       0       0       
      +0       0       0       0       0       0       0       0       0       0       0       0       0       0       0
  5699 ;;      Temps:          1       0       0       0       0       0       0       0       0       0       0       0       
      +0       0       0       0       0       0       0       0       0       0       0       0       0       0       0
  5700 ;;      Totals:         1       0       0       0       0       0       0       0       0       0       0       0       
      +0       0       0       0       0       0       0       0       0       0       0       0       0       0       0
  5701 ;;Total ram usage:        1 bytes
  5702 ;; Hardware stack levels used:    1
  5703 ;; Hardware stack levels required when called:    3
  5704 ;; This function calls:
  5705 ;;		_SD_Check40bitResponse
  5706 ;;		_SD_Check8bitResponse
  5707 ;;		_SD_Read40bitResponse
  5708 ;;		_SD_Read8bitResponse
  5709 ;;		_SD_SendCommand
  5710 ;;		_SPI_Write
  5711 ;; This function is called by:
  5712 ;;		_main
  5713 ;; This function uses a non-reentrant model
  5714 ;;
  5715                           
  5716                           
  5717                           ;psect for function _SD_Init
  5718  0F74                     _SD_Init:	
  5719                           
  5720                           ;Lab3_SD.c: 15:     { PORTCbits.RC7 = 1; SSP1CON1bits.WCOL = 0; };
  5721                           
  5722                           ;incstack = 0
  5723                           ; Regs used in _SD_Init: [wreg-fsr0h+status,2+status,0+pclath+cstack]
  5724  0F74  0020               	movlb	0	; select bank0
  5725  0F75  178E               	bsf	14,7	;volatile
  5726  0F76  0024               	movlb	4	; select bank4
  5727  0F77  1395               	bcf	21,7	;volatile
  5728                           
  5729                           ;Lab3_SD.c: 17:     SPI_Write(0xFF);
  5730  0F78  30FF               	movlw	255
  5731  0F79  318C  2481  318F   	fcall	_SPI_Write
  5732                           
  5733                           ;Lab3_SD.c: 18:     SPI_Write(0xFF);
  5734  0F7C  30FF               	movlw	255
  5735  0F7D  318C  2481  318F   	fcall	_SPI_Write
  5736                           
  5737                           ;Lab3_SD.c: 19:     SPI_Write(0xFF);
  5738  0F80  30FF               	movlw	255
  5739  0F81  318C  2481  318F   	fcall	_SPI_Write
  5740                           
  5741                           ;Lab3_SD.c: 20:     SPI_Write(0xFF);
  5742  0F84  30FF               	movlw	255
  5743  0F85  318C  2481  318F   	fcall	_SPI_Write
  5744                           
  5745                           ;Lab3_SD.c: 21:     SPI_Write(0xFF);
  5746  0F88  30FF               	movlw	255
  5747  0F89  318C  2481  318F   	fcall	_SPI_Write
  5748                           
  5749                           ;Lab3_SD.c: 22:     SPI_Write(0xFF);
  5750  0F8C  30FF               	movlw	255
  5751  0F8D  318C  2481  318F   	fcall	_SPI_Write
  5752                           
  5753                           ;Lab3_SD.c: 23:     SPI_Write(0xFF);
  5754  0F90  30FF               	movlw	255
  5755  0F91  318C  2481  318F   	fcall	_SPI_Write
  5756                           
  5757                           ;Lab3_SD.c: 24:     SPI_Write(0xFF);
  5758  0F94  30FF               	movlw	255
  5759  0F95  318C  2481  318F   	fcall	_SPI_Write
  5760                           
  5761                           ;Lab3_SD.c: 25:     SPI_Write(0xFF);
  5762  0F98  30FF               	movlw	255
  5763  0F99  318C  2481  318F   	fcall	_SPI_Write
  5764                           
  5765                           ;Lab3_SD.c: 26:     SPI_Write(0xFF);
  5766  0F9C  30FF               	movlw	255
  5767  0F9D  318C  2481  318F   	fcall	_SPI_Write
  5768                           
  5769                           ;Lab3_SD.c: 28:     { PORTCbits.RC7 = 0; SSP1CON1bits.WCOL = 0; };
  5770  0FA0  0020               	movlb	0	; select bank0
  5771  0FA1  138E               	bcf	14,7	;volatile
  5772  0FA2  0024               	movlb	4	; select bank4
  5773  0FA3  1395               	bcf	21,7	;volatile
  5774  0FA4                     l2242:	
  5775                           
  5776                           ;Lab3_SD.c: 35:         SD_SendCommand(0, 0x00, 0x00, 0x00, 0x00);
  5777  0FA4  01F1               	clrf	SD_SendCommand@ARG3
  5778  0FA5  01F2               	clrf	SD_SendCommand@ARG2
  5779  0FA6  01F3               	clrf	SD_SendCommand@ARG1
  5780  0FA7  01F4               	clrf	SD_SendCommand@ARG0
  5781  0FA8  3000               	movlw	0
  5782  0FA9  3186  26DB  318F   	fcall	_SD_SendCommand
  5783                           
  5784                           ;Lab3_SD.c: 36:         SD_Read8bitResponse();
  5785  0FAC  318C  24C2  318F   	fcall	_SD_Read8bitResponse
  5786  0FAF  0000               	nop	;# 
  5787                           
  5788                           ;Lab3_SD.c: 38:     } while (SD_Check8bitResponse(0x01) == 0);
  5789  0FB0  3001               	movlw	1
  5790  0FB1  318C  2488  318F   	fcall	_SD_Check8bitResponse
  5791  0FB4  3A00               	xorlw	0
  5792  0FB5  1903               	skipnz
  5793  0FB6  2FA4               	goto	l2242
  5794  0FB7                     l2248:	
  5795                           
  5796                           ;Lab3_SD.c: 45:         SD_SendCommand(8, 0x00, 0x00, 0x01, 0xAA);
  5797  0FB7  01F1               	clrf	SD_SendCommand@ARG3
  5798  0FB8  01F2               	clrf	SD_SendCommand@ARG2
  5799  0FB9  01F3               	clrf	SD_SendCommand@ARG1
  5800  0FBA  0AF3               	incf	SD_SendCommand@ARG1,f
  5801  0FBB  30AA               	movlw	170
  5802  0FBC  00F9               	movwf	??_SD_Init
  5803  0FBD  0879               	movf	??_SD_Init,w
  5804  0FBE  00F4               	movwf	SD_SendCommand@ARG0
  5805  0FBF  3008               	movlw	8
  5806  0FC0  3186  26DB  318F   	fcall	_SD_SendCommand
  5807                           
  5808                           ;Lab3_SD.c: 46:         SD_Read40bitResponse();
  5809  0FC3  318D  2566  318F   	fcall	_SD_Read40bitResponse
  5810  0FC6  0000               	nop	;# 
  5811                           
  5812                           ;Lab3_SD.c: 48:     } while (SD_Check40bitResponse(0x01, 0x00, 0x00, 0x01, 0xAA) == 0);
  5813  0FC7  01F0               	clrf	SD_Check40bitResponse@Byte3
  5814  0FC8  01F1               	clrf	SD_Check40bitResponse@Byte2
  5815  0FC9  01F2               	clrf	SD_Check40bitResponse@Byte1
  5816  0FCA  0AF2               	incf	SD_Check40bitResponse@Byte1,f
  5817  0FCB  30AA               	movlw	170
  5818  0FCC  00F9               	movwf	??_SD_Init
  5819  0FCD  0879               	movf	??_SD_Init,w
  5820  0FCE  00F3               	movwf	SD_Check40bitResponse@Byte0
  5821  0FCF  3001               	movlw	1
  5822  0FD0  318D  2504  318F   	fcall	_SD_Check40bitResponse
  5823  0FD3  3A00               	xorlw	0
  5824  0FD4  1903               	skipnz
  5825  0FD5  2FB7               	goto	l2248
  5826  0FD6                     l2254:	
  5827                           
  5828                           ;Lab3_SD.c: 56:             SD_SendCommand(55, 0x00, 0x00, 0x00, 0x00);
  5829  0FD6  01F1               	clrf	SD_SendCommand@ARG3
  5830  0FD7  01F2               	clrf	SD_SendCommand@ARG2
  5831  0FD8  01F3               	clrf	SD_SendCommand@ARG1
  5832  0FD9  01F4               	clrf	SD_SendCommand@ARG0
  5833  0FDA  3037               	movlw	55
  5834  0FDB  3186  26DB  318F   	fcall	_SD_SendCommand
  5835                           
  5836                           ;Lab3_SD.c: 57:             SD_Read8bitResponse();
  5837  0FDE  318C  24C2  318F   	fcall	_SD_Read8bitResponse
  5838  0FE1  0000               	nop	;# 
  5839                           
  5840                           ;Lab3_SD.c: 59:         } while (SD_Check8bitResponse(0x01) == 0);
  5841  0FE2  3001               	movlw	1
  5842  0FE3  318C  2488  318F   	fcall	_SD_Check8bitResponse
  5843  0FE6  3A00               	xorlw	0
  5844  0FE7  1903               	skipnz
  5845  0FE8  2FD6               	goto	l2254
  5846                           
  5847                           ;Lab3_SD.c: 66:         SD_SendCommand(41, 0x40, 0x00, 0x00, 0x00);
  5848  0FE9  3040               	movlw	64
  5849  0FEA  00F9               	movwf	??_SD_Init
  5850  0FEB  0879               	movf	??_SD_Init,w
  5851  0FEC  00F1               	movwf	SD_SendCommand@ARG3
  5852  0FED  01F2               	clrf	SD_SendCommand@ARG2
  5853  0FEE  01F3               	clrf	SD_SendCommand@ARG1
  5854  0FEF  01F4               	clrf	SD_SendCommand@ARG0
  5855  0FF0  3029               	movlw	41
  5856  0FF1  3186  26DB  318F   	fcall	_SD_SendCommand
  5857                           
  5858                           ;Lab3_SD.c: 67:         SD_Read8bitResponse();
  5859  0FF4  318C  24C2  318F   	fcall	_SD_Read8bitResponse
  5860  0FF7  0000               	nop	;# 
  5861                           
  5862                           ;Lab3_SD.c: 69:     } while (SD_Check8bitResponse(0x00) == 0);
  5863  0FF8  3000               	movlw	0
  5864  0FF9  318C  2488  318F   	fcall	_SD_Check8bitResponse
  5865  0FFC  3A00               	xorlw	0
  5866  0FFD  1D03               	btfss	3,2
  5867  0FFE  0008               	return
  5868  0FFF  2FD6               	goto	l2254
  5869  1000                     __end_of_SD_Init:	
  5870                           
  5871                           	psect	text14
  5872  06DB                     __ptext14:	
  5873 ;; *************** function _SD_SendCommand *****************
  5874 ;; Defined at:
  5875 ;;		line 78 in file "Lab3_SD.c"
  5876 ;; Parameters:    Size  Location     Type
  5877 ;;  CMD_6bit        1    wreg     unsigned char 
  5878 ;;  ARG3            1    1[COMMON] unsigned char 
  5879 ;;  ARG2            1    2[COMMON] unsigned char 
  5880 ;;  ARG1            1    3[COMMON] unsigned char 
  5881 ;;  ARG0            1    4[COMMON] unsigned char 
  5882 ;; Auto vars:     Size  Location     Type
  5883 ;;  CMD_6bit        1    6[COMMON] unsigned char 
  5884 ;;  Checksum        1    8[COMMON] unsigned char 
  5885 ;;  ByteToSend      1    7[COMMON] unsigned char 
  5886 ;; Return value:  Size  Location     Type
  5887 ;;                  1    wreg      void 
  5888 ;; Registers used:
  5889 ;;		wreg, fsr0l, fsr0h, status,2, status,0, pclath, cstack
  5890 ;; Tracked objects:
  5891 ;;		On entry : 0/0
  5892 ;;		On exit  : 0/0
  5893 ;;		Unchanged: 0/0
  5894 ;; Data sizes:     COMMON   BANK0   BANK1   BANK2   BANK3   BANK4   BANK5   BANK6   BANK7   BANK8   BANK9  BANK10  BANK1
      +1  BANK12  BANK13  BANK14  BANK15  BANK16  BANK17  BANK18  BANK19  BANK20  BANK21  BANK22  BANK23  BANK24  BANK25
  5895 ;;      Params:         4       0       0       0       0       0       0       0       0       0       0       0       
      +0       0       0       0       0       0       0       0       0       0       0       0       0       0       0
  5896 ;;      Locals:         3       0       0       0       0       0       0       0       0       0       0       0       
      +0       0       0       0       0       0       0       0       0       0       0       0       0       0       0
  5897 ;;      Temps:          1       0       0       0       0       0       0       0       0       0       0       0       
      +0       0       0       0       0       0       0       0       0       0       0       0       0       0       0
  5898 ;;      Totals:         8       0       0       0       0       0       0       0       0       0       0       0       
      +0       0       0       0       0       0       0       0       0       0       0       0       0       0       0
  5899 ;;Total ram usage:        8 bytes
  5900 ;; Hardware stack levels used:    1
  5901 ;; Hardware stack levels required when called:    2
  5902 ;; This function calls:
  5903 ;;		_SPI_Write
  5904 ;; This function is called by:
  5905 ;;		_SD_Init
  5906 ;;		_active
  5907 ;;		_SD_WriteBlock
  5908 ;;		_SD_ReadBlock
  5909 ;; This function uses a non-reentrant model
  5910 ;;
  5911                           
  5912                           
  5913                           ;psect for function _SD_SendCommand
  5914  06DB                     _SD_SendCommand:	
  5915                           
  5916                           ;incstack = 0
  5917                           ; Regs used in _SD_SendCommand: [wreg-fsr0h+status,2+status,0+pclath+cstack]
  5918                           ;SD_SendCommand@CMD_6bit stored from wreg
  5919  06DB  00F6               	movwf	SD_SendCommand@CMD_6bit
  5920                           
  5921                           ;Lab3_SD.c: 81:     char Checksum = 0x00;
  5922  06DC  01F8               	clrf	SD_SendCommand@Checksum
  5923                           
  5924                           ;Lab3_SD.c: 84:     ByteToSend = (CMD_6bit & 0x3F) | 0x40;
  5925  06DD  0876               	movf	SD_SendCommand@CMD_6bit,w
  5926  06DE  393F               	andlw	63
  5927  06DF  3840               	iorlw	64
  5928  06E0  00F5               	movwf	??_SD_SendCommand
  5929  06E1  0875               	movf	??_SD_SendCommand,w
  5930  06E2  00F7               	movwf	SD_SendCommand@ByteToSend
  5931                           
  5932                           ;Lab3_SD.c: 85:     SPI_Write(ByteToSend);
  5933  06E3  0877               	movf	SD_SendCommand@ByteToSend,w
  5934  06E4  318C  2481  3186   	fcall	_SPI_Write
  5935                           
  5936                           ;Lab3_SD.c: 86:     { Checksum = Checksum << 1; Checksum = Checksum ^ ByteToSend; Checks
      +                          um = CRCTable[Checksum]; };
  5937  06E7  3578               	lslf	SD_SendCommand@Checksum,w
  5938  06E8  00F5               	movwf	??_SD_SendCommand
  5939  06E9  0875               	movf	??_SD_SendCommand,w
  5940  06EA  00F8               	movwf	SD_SendCommand@Checksum
  5941  06EB  0878               	movf	SD_SendCommand@Checksum,w
  5942  06EC  0677               	xorwf	SD_SendCommand@ByteToSend,w
  5943  06ED  00F5               	movwf	??_SD_SendCommand
  5944  06EE  0875               	movf	??_SD_SendCommand,w
  5945  06EF  00F8               	movwf	SD_SendCommand@Checksum
  5946  06F0  0878               	movf	SD_SendCommand@Checksum,w
  5947  06F1  3EE8               	addlw	low (_CRCTable| (0+32768))
  5948  06F2  0084               	movwf	4
  5949  06F3  3084               	movlw	high (_CRCTable| (0+32768))
  5950  06F4  1803               	skipnc
  5951  06F5  3E01               	addlw	1
  5952  06F6  0085               	movwf	5
  5953  06F7  0800               	movf	0,w	;code access
  5954  06F8  00F5               	movwf	??_SD_SendCommand
  5955  06F9  0875               	movf	??_SD_SendCommand,w
  5956  06FA  00F8               	movwf	SD_SendCommand@Checksum
  5957                           
  5958                           ;Lab3_SD.c: 89:     ByteToSend = ARG3;
  5959  06FB  0871               	movf	SD_SendCommand@ARG3,w
  5960  06FC  00F5               	movwf	??_SD_SendCommand
  5961  06FD  0875               	movf	??_SD_SendCommand,w
  5962  06FE  00F7               	movwf	SD_SendCommand@ByteToSend
  5963                           
  5964                           ;Lab3_SD.c: 90:     SPI_Write(ByteToSend);
  5965  06FF  0877               	movf	SD_SendCommand@ByteToSend,w
  5966  0700  318C  2481  3186   	fcall	_SPI_Write
  5967                           
  5968                           ;Lab3_SD.c: 91:     { Checksum = Checksum << 1; Checksum = Checksum ^ ByteToSend; Checks
      +                          um = CRCTable[Checksum]; };
  5969  0703  3578               	lslf	SD_SendCommand@Checksum,w
  5970  0704  00F5               	movwf	??_SD_SendCommand
  5971  0705  0875               	movf	??_SD_SendCommand,w
  5972  0706  00F8               	movwf	SD_SendCommand@Checksum
  5973  0707  0878               	movf	SD_SendCommand@Checksum,w
  5974  0708  0677               	xorwf	SD_SendCommand@ByteToSend,w
  5975  0709  00F5               	movwf	??_SD_SendCommand
  5976  070A  0875               	movf	??_SD_SendCommand,w
  5977  070B  00F8               	movwf	SD_SendCommand@Checksum
  5978  070C  0878               	movf	SD_SendCommand@Checksum,w
  5979  070D  3EE8               	addlw	low (_CRCTable| (0+32768))
  5980  070E  0084               	movwf	4
  5981  070F  3084               	movlw	high (_CRCTable| (0+32768))
  5982  0710  1803               	skipnc
  5983  0711  3E01               	addlw	1
  5984  0712  0085               	movwf	5
  5985  0713  0800               	movf	0,w	;code access
  5986  0714  00F5               	movwf	??_SD_SendCommand
  5987  0715  0875               	movf	??_SD_SendCommand,w
  5988  0716  00F8               	movwf	SD_SendCommand@Checksum
  5989                           
  5990                           ;Lab3_SD.c: 93:     ByteToSend = ARG2;
  5991  0717  0872               	movf	SD_SendCommand@ARG2,w
  5992  0718  00F5               	movwf	??_SD_SendCommand
  5993  0719  0875               	movf	??_SD_SendCommand,w
  5994  071A  00F7               	movwf	SD_SendCommand@ByteToSend
  5995                           
  5996                           ;Lab3_SD.c: 94:     SPI_Write(ByteToSend);
  5997  071B  0877               	movf	SD_SendCommand@ByteToSend,w
  5998  071C  318C  2481  3186   	fcall	_SPI_Write
  5999                           
  6000                           ;Lab3_SD.c: 95:     { Checksum = Checksum << 1; Checksum = Checksum ^ ByteToSend; Checks
      +                          um = CRCTable[Checksum]; };
  6001  071F  3578               	lslf	SD_SendCommand@Checksum,w
  6002  0720  00F5               	movwf	??_SD_SendCommand
  6003  0721  0875               	movf	??_SD_SendCommand,w
  6004  0722  00F8               	movwf	SD_SendCommand@Checksum
  6005  0723  0878               	movf	SD_SendCommand@Checksum,w
  6006  0724  0677               	xorwf	SD_SendCommand@ByteToSend,w
  6007  0725  00F5               	movwf	??_SD_SendCommand
  6008  0726  0875               	movf	??_SD_SendCommand,w
  6009  0727  00F8               	movwf	SD_SendCommand@Checksum
  6010  0728  0878               	movf	SD_SendCommand@Checksum,w
  6011  0729  3EE8               	addlw	low (_CRCTable| (0+32768))
  6012  072A  0084               	movwf	4
  6013  072B  3084               	movlw	high (_CRCTable| (0+32768))
  6014  072C  1803               	skipnc
  6015  072D  3E01               	addlw	1
  6016  072E  0085               	movwf	5
  6017  072F  0800               	movf	0,w	;code access
  6018  0730  00F5               	movwf	??_SD_SendCommand
  6019  0731  0875               	movf	??_SD_SendCommand,w
  6020  0732  00F8               	movwf	SD_SendCommand@Checksum
  6021                           
  6022                           ;Lab3_SD.c: 97:     ByteToSend = ARG1;
  6023  0733  0873               	movf	SD_SendCommand@ARG1,w
  6024  0734  00F5               	movwf	??_SD_SendCommand
  6025  0735  0875               	movf	??_SD_SendCommand,w
  6026  0736  00F7               	movwf	SD_SendCommand@ByteToSend
  6027                           
  6028                           ;Lab3_SD.c: 98:     SPI_Write(ByteToSend);
  6029  0737  0877               	movf	SD_SendCommand@ByteToSend,w
  6030  0738  318C  2481  3186   	fcall	_SPI_Write
  6031                           
  6032                           ;Lab3_SD.c: 99:     { Checksum = Checksum << 1; Checksum = Checksum ^ ByteToSend; Checks
      +                          um = CRCTable[Checksum]; };
  6033  073B  3578               	lslf	SD_SendCommand@Checksum,w
  6034  073C  00F5               	movwf	??_SD_SendCommand
  6035  073D  0875               	movf	??_SD_SendCommand,w
  6036  073E  00F8               	movwf	SD_SendCommand@Checksum
  6037  073F  0878               	movf	SD_SendCommand@Checksum,w
  6038  0740  0677               	xorwf	SD_SendCommand@ByteToSend,w
  6039  0741  00F5               	movwf	??_SD_SendCommand
  6040  0742  0875               	movf	??_SD_SendCommand,w
  6041  0743  00F8               	movwf	SD_SendCommand@Checksum
  6042  0744  0878               	movf	SD_SendCommand@Checksum,w
  6043  0745  3EE8               	addlw	low (_CRCTable| (0+32768))
  6044  0746  0084               	movwf	4
  6045  0747  3084               	movlw	high (_CRCTable| (0+32768))
  6046  0748  1803               	skipnc
  6047  0749  3E01               	addlw	1
  6048  074A  0085               	movwf	5
  6049  074B  0800               	movf	0,w	;code access
  6050  074C  00F5               	movwf	??_SD_SendCommand
  6051  074D  0875               	movf	??_SD_SendCommand,w
  6052  074E  00F8               	movwf	SD_SendCommand@Checksum
  6053                           
  6054                           ;Lab3_SD.c: 101:     ByteToSend = ARG0;
  6055  074F  0874               	movf	SD_SendCommand@ARG0,w
  6056  0750  00F5               	movwf	??_SD_SendCommand
  6057  0751  0875               	movf	??_SD_SendCommand,w
  6058  0752  00F7               	movwf	SD_SendCommand@ByteToSend
  6059                           
  6060                           ;Lab3_SD.c: 102:     SPI_Write(ByteToSend);
  6061  0753  0877               	movf	SD_SendCommand@ByteToSend,w
  6062  0754  318C  2481  3186   	fcall	_SPI_Write
  6063                           
  6064                           ;Lab3_SD.c: 103:     { Checksum = Checksum << 1; Checksum = Checksum ^ ByteToSend; Check
      +                          sum = CRCTable[Checksum]; };
  6065  0757  3578               	lslf	SD_SendCommand@Checksum,w
  6066  0758  00F5               	movwf	??_SD_SendCommand
  6067  0759  0875               	movf	??_SD_SendCommand,w
  6068  075A  00F8               	movwf	SD_SendCommand@Checksum
  6069  075B  0878               	movf	SD_SendCommand@Checksum,w
  6070  075C  0677               	xorwf	SD_SendCommand@ByteToSend,w
  6071  075D  00F5               	movwf	??_SD_SendCommand
  6072  075E  0875               	movf	??_SD_SendCommand,w
  6073  075F  00F8               	movwf	SD_SendCommand@Checksum
  6074  0760  0878               	movf	SD_SendCommand@Checksum,w
  6075  0761  3EE8               	addlw	low (_CRCTable| (0+32768))
  6076  0762  0084               	movwf	4
  6077  0763  3084               	movlw	high (_CRCTable| (0+32768))
  6078  0764  1803               	skipnc
  6079  0765  3E01               	addlw	1
  6080  0766  0085               	movwf	5
  6081  0767  0800               	movf	0,w	;code access
  6082  0768  00F5               	movwf	??_SD_SendCommand
  6083  0769  0875               	movf	??_SD_SendCommand,w
  6084  076A  00F8               	movwf	SD_SendCommand@Checksum
  6085                           
  6086                           ;Lab3_SD.c: 106:     ByteToSend = (Checksum << 1) | 0x01;
  6087  076B  1403               	setc
  6088  076C  0D78               	rlf	SD_SendCommand@Checksum,w
  6089  076D  00F5               	movwf	??_SD_SendCommand
  6090  076E  0875               	movf	??_SD_SendCommand,w
  6091  076F  00F7               	movwf	SD_SendCommand@ByteToSend
  6092                           
  6093                           ;Lab3_SD.c: 107:     SPI_Write(ByteToSend);
  6094  0770  0877               	movf	SD_SendCommand@ByteToSend,w
  6095  0771  318C  2481         	fcall	_SPI_Write
  6096  0773  0008               	return
  6097  0774                     __end_of_SD_SendCommand:	
  6098                           
  6099                           	psect	text15
  6100  0C81                     __ptext15:	
  6101 ;; *************** function _SPI_Write *****************
  6102 ;; Defined at:
  6103 ;;		line 39 in file "Lab3_SPI.c"
  6104 ;; Parameters:    Size  Location     Type
  6105 ;;  Data_8bit       1    wreg     unsigned char 
  6106 ;; Auto vars:     Size  Location     Type
  6107 ;;  Data_8bit       1    0[COMMON] unsigned char 
  6108 ;; Return value:  Size  Location     Type
  6109 ;;                  1    wreg      void 
  6110 ;; Registers used:
  6111 ;;		wreg
  6112 ;; Tracked objects:
  6113 ;;		On entry : 0/0
  6114 ;;		On exit  : 0/0
  6115 ;;		Unchanged: 0/0
  6116 ;; Data sizes:     COMMON   BANK0   BANK1   BANK2   BANK3   BANK4   BANK5   BANK6   BANK7   BANK8   BANK9  BANK10  BANK1
      +1  BANK12  BANK13  BANK14  BANK15  BANK16  BANK17  BANK18  BANK19  BANK20  BANK21  BANK22  BANK23  BANK24  BANK25
  6117 ;;      Params:         0       0       0       0       0       0       0       0       0       0       0       0       
      +0       0       0       0       0       0       0       0       0       0       0       0       0       0       0
  6118 ;;      Locals:         1       0       0       0       0       0       0       0       0       0       0       0       
      +0       0       0       0       0       0       0       0       0       0       0       0       0       0       0
  6119 ;;      Temps:          0       0       0       0       0       0       0       0       0       0       0       0       
      +0       0       0       0       0       0       0       0       0       0       0       0       0       0       0
  6120 ;;      Totals:         1       0       0       0       0       0       0       0       0       0       0       0       
      +0       0       0       0       0       0       0       0       0       0       0       0       0       0       0
  6121 ;;Total ram usage:        1 bytes
  6122 ;; Hardware stack levels used:    1
  6123 ;; Hardware stack levels required when called:    1
  6124 ;; This function calls:
  6125 ;;		Nothing
  6126 ;; This function is called by:
  6127 ;;		_SD_Init
  6128 ;;		_SD_SendCommand
  6129 ;;		_SD_WriteBlock
  6130 ;; This function uses a non-reentrant model
  6131 ;;
  6132                           
  6133                           
  6134                           ;psect for function _SPI_Write
  6135  0C81                     _SPI_Write:	
  6136                           
  6137                           ;incstack = 0
  6138                           ; Regs used in _SPI_Write: [wreg]
  6139                           ;SPI_Write@Data_8bit stored from wreg
  6140  0C81  00F0               	movwf	SPI_Write@Data_8bit
  6141                           
  6142                           ;Lab3_SPI.c: 39: void SPI_Write(char Data_8bit);Lab3_SPI.c: 40: {;Lab3_SPI.c: 41:     SS
      +                          P1BUF = Data_8bit;
  6143  0C82  0870               	movf	SPI_Write@Data_8bit,w
  6144  0C83  0024               	movlb	4	; select bank4
  6145  0C84  0091               	movwf	17	;volatile
  6146  0C85                     l114:	
  6147                           ;Lab3_SPI.c: 42:     while(SSP1STATbits.BF == 0);
  6148                           
  6149  0C85  1814               	btfsc	20,0	;volatile
  6150  0C86  0008               	return
  6151  0C87  2C85               	goto	l114
  6152  0C88                     __end_of_SPI_Write:	
  6153                           
  6154                           	psect	text16
  6155  0CC2                     __ptext16:	
  6156 ;; *************** function _SD_Read8bitResponse *****************
  6157 ;; Defined at:
  6158 ;;		line 114 in file "Lab3_SD.c"
  6159 ;; Parameters:    Size  Location     Type
  6160 ;;		None
  6161 ;; Auto vars:     Size  Location     Type
  6162 ;;  readMessage     1    1[COMMON] unsigned char 
  6163 ;; Return value:  Size  Location     Type
  6164 ;;                  1    wreg      void 
  6165 ;; Registers used:
  6166 ;;		wreg, status,2, status,0, pclath, cstack
  6167 ;; Tracked objects:
  6168 ;;		On entry : 0/0
  6169 ;;		On exit  : 0/0
  6170 ;;		Unchanged: 0/0
  6171 ;; Data sizes:     COMMON   BANK0   BANK1   BANK2   BANK3   BANK4   BANK5   BANK6   BANK7   BANK8   BANK9  BANK10  BANK1
      +1  BANK12  BANK13  BANK14  BANK15  BANK16  BANK17  BANK18  BANK19  BANK20  BANK21  BANK22  BANK23  BANK24  BANK25
  6172 ;;      Params:         0       0       0       0       0       0       0       0       0       0       0       0       
      +0       0       0       0       0       0       0       0       0       0       0       0       0       0       0
  6173 ;;      Locals:         1       0       0       0       0       0       0       0       0       0       0       0       
      +0       0       0       0       0       0       0       0       0       0       0       0       0       0       0
  6174 ;;      Temps:          1       0       0       0       0       0       0       0       0       0       0       0       
      +0       0       0       0       0       0       0       0       0       0       0       0       0       0       0
  6175 ;;      Totals:         2       0       0       0       0       0       0       0       0       0       0       0       
      +0       0       0       0       0       0       0       0       0       0       0       0       0       0       0
  6176 ;;Total ram usage:        2 bytes
  6177 ;; Hardware stack levels used:    1
  6178 ;; Hardware stack levels required when called:    2
  6179 ;; This function calls:
  6180 ;;		_SPI_Read
  6181 ;; This function is called by:
  6182 ;;		_SD_Init
  6183 ;;		_active
  6184 ;;		_SD_WriteBlock
  6185 ;;		_SD_ReadBlock
  6186 ;; This function uses a non-reentrant model
  6187 ;;
  6188                           
  6189                           
  6190                           ;psect for function _SD_Read8bitResponse
  6191  0CC2                     _SD_Read8bitResponse:	
  6192  0CC2                     l1804:	
  6193                           ;incstack = 0
  6194                           ; Regs used in _SD_Read8bitResponse: [wreg+status,2+status,0+pclath+cstack]
  6195                           
  6196  0CC2  318C  247A  318C   	fcall	_SPI_Read
  6197  0CC5  00F0               	movwf	??_SD_Read8bitResponse
  6198  0CC6  0870               	movf	??_SD_Read8bitResponse,w
  6199  0CC7  00F1               	movwf	SD_Read8bitResponse@readMessage
  6200  0CC8  0A71               	incf	SD_Read8bitResponse@readMessage,w
  6201  0CC9  1903               	btfsc	3,2
  6202  0CCA  2CC2               	goto	l1804
  6203                           
  6204                           ;Lab3_SD.c: 124:     GLBL_Resp8 = readMessage;
  6205  0CCB  0871               	movf	SD_Read8bitResponse@readMessage,w
  6206  0CCC  00F0               	movwf	??_SD_Read8bitResponse
  6207  0CCD  0870               	movf	??_SD_Read8bitResponse,w
  6208  0CCE  0020               	movlb	0	; select bank0
  6209  0CCF  00D4               	movwf	_GLBL_Resp8
  6210                           
  6211                           ;Lab3_SD.c: 127:     SPI_Read();
  6212  0CD0  318C  247A         	fcall	_SPI_Read
  6213  0CD2  0008               	return
  6214  0CD3                     __end_of_SD_Read8bitResponse:	
  6215                           
  6216                           	psect	text17
  6217  0D66                     __ptext17:	
  6218 ;; *************** function _SD_Read40bitResponse *****************
  6219 ;; Defined at:
  6220 ;;		line 145 in file "Lab3_SD.c"
  6221 ;; Parameters:    Size  Location     Type
  6222 ;;		None
  6223 ;; Auto vars:     Size  Location     Type
  6224 ;;  readMessage     1    1[COMMON] unsigned char 
  6225 ;; Return value:  Size  Location     Type
  6226 ;;                  1    wreg      void 
  6227 ;; Registers used:
  6228 ;;		wreg, status,2, status,0, pclath, cstack
  6229 ;; Tracked objects:
  6230 ;;		On entry : 0/0
  6231 ;;		On exit  : 0/0
  6232 ;;		Unchanged: 0/0
  6233 ;; Data sizes:     COMMON   BANK0   BANK1   BANK2   BANK3   BANK4   BANK5   BANK6   BANK7   BANK8   BANK9  BANK10  BANK1
      +1  BANK12  BANK13  BANK14  BANK15  BANK16  BANK17  BANK18  BANK19  BANK20  BANK21  BANK22  BANK23  BANK24  BANK25
  6234 ;;      Params:         0       0       0       0       0       0       0       0       0       0       0       0       
      +0       0       0       0       0       0       0       0       0       0       0       0       0       0       0
  6235 ;;      Locals:         1       0       0       0       0       0       0       0       0       0       0       0       
      +0       0       0       0       0       0       0       0       0       0       0       0       0       0       0
  6236 ;;      Temps:          1       0       0       0       0       0       0       0       0       0       0       0       
      +0       0       0       0       0       0       0       0       0       0       0       0       0       0       0
  6237 ;;      Totals:         2       0       0       0       0       0       0       0       0       0       0       0       
      +0       0       0       0       0       0       0       0       0       0       0       0       0       0       0
  6238 ;;Total ram usage:        2 bytes
  6239 ;; Hardware stack levels used:    1
  6240 ;; Hardware stack levels required when called:    2
  6241 ;; This function calls:
  6242 ;;		_SPI_Read
  6243 ;; This function is called by:
  6244 ;;		_SD_Init
  6245 ;; This function uses a non-reentrant model
  6246 ;;
  6247                           
  6248                           
  6249                           ;psect for function _SD_Read40bitResponse
  6250  0D66                     _SD_Read40bitResponse:	
  6251  0D66                     l2172:	
  6252                           ;incstack = 0
  6253                           ; Regs used in _SD_Read40bitResponse: [wreg+status,2+status,0+pclath+cstack]
  6254                           
  6255  0D66  318C  247A  318D   	fcall	_SPI_Read
  6256  0D69  00F0               	movwf	??_SD_Read40bitResponse
  6257  0D6A  0870               	movf	??_SD_Read40bitResponse,w
  6258  0D6B  00F1               	movwf	SD_Read40bitResponse@readMessage
  6259  0D6C  0A71               	incf	SD_Read40bitResponse@readMessage,w
  6260  0D6D  1903               	btfsc	3,2
  6261  0D6E  2D66               	goto	l2172
  6262                           
  6263                           ;Lab3_SD.c: 155:     GLBL_Resp40[0] = readMessage;
  6264  0D6F  0871               	movf	SD_Read40bitResponse@readMessage,w
  6265  0D70  00F0               	movwf	??_SD_Read40bitResponse
  6266  0D71  0870               	movf	??_SD_Read40bitResponse,w
  6267  0D72  0020               	movlb	0	; select bank0
  6268  0D73  00C8               	movwf	_GLBL_Resp40
  6269                           
  6270                           ;Lab3_SD.c: 156:     GLBL_Resp40[1] = SPI_Read();
  6271  0D74  318C  247A  318D   	fcall	_SPI_Read
  6272  0D77  00F0               	movwf	??_SD_Read40bitResponse
  6273  0D78  0870               	movf	??_SD_Read40bitResponse,w
  6274  0D79  0020               	movlb	0	; select bank0
  6275  0D7A  00C9               	movwf	_GLBL_Resp40+1
  6276                           
  6277                           ;Lab3_SD.c: 157:     GLBL_Resp40[2] = SPI_Read();
  6278  0D7B  318C  247A  318D   	fcall	_SPI_Read
  6279  0D7E  00F0               	movwf	??_SD_Read40bitResponse
  6280  0D7F  0870               	movf	??_SD_Read40bitResponse,w
  6281  0D80  0020               	movlb	0	; select bank0
  6282  0D81  00CA               	movwf	_GLBL_Resp40+2
  6283                           
  6284                           ;Lab3_SD.c: 158:     GLBL_Resp40[3] = SPI_Read();
  6285  0D82  318C  247A  318D   	fcall	_SPI_Read
  6286  0D85  00F0               	movwf	??_SD_Read40bitResponse
  6287  0D86  0870               	movf	??_SD_Read40bitResponse,w
  6288  0D87  0020               	movlb	0	; select bank0
  6289  0D88  00CB               	movwf	_GLBL_Resp40+3
  6290                           
  6291                           ;Lab3_SD.c: 159:     GLBL_Resp40[4] = SPI_Read();
  6292  0D89  318C  247A  318D   	fcall	_SPI_Read
  6293  0D8C  00F0               	movwf	??_SD_Read40bitResponse
  6294  0D8D  0870               	movf	??_SD_Read40bitResponse,w
  6295  0D8E  0020               	movlb	0	; select bank0
  6296  0D8F  00CC               	movwf	_GLBL_Resp40+4
  6297                           
  6298                           ;Lab3_SD.c: 162:     SPI_Read();
  6299  0D90  318C  247A         	fcall	_SPI_Read
  6300  0D92  0008               	return
  6301  0D93                     __end_of_SD_Read40bitResponse:	
  6302                           
  6303                           	psect	text18
  6304  0C7A                     __ptext18:	
  6305 ;; *************** function _SPI_Read *****************
  6306 ;; Defined at:
  6307 ;;		line 48 in file "Lab3_SPI.c"
  6308 ;; Parameters:    Size  Location     Type
  6309 ;;		None
  6310 ;; Auto vars:     Size  Location     Type
  6311 ;;		None
  6312 ;; Return value:  Size  Location     Type
  6313 ;;                  1    wreg      unsigned char 
  6314 ;; Registers used:
  6315 ;;		wreg
  6316 ;; Tracked objects:
  6317 ;;		On entry : 0/0
  6318 ;;		On exit  : 0/0
  6319 ;;		Unchanged: 0/0
  6320 ;; Data sizes:     COMMON   BANK0   BANK1   BANK2   BANK3   BANK4   BANK5   BANK6   BANK7   BANK8   BANK9  BANK10  BANK1
      +1  BANK12  BANK13  BANK14  BANK15  BANK16  BANK17  BANK18  BANK19  BANK20  BANK21  BANK22  BANK23  BANK24  BANK25
  6321 ;;      Params:         0       0       0       0       0       0       0       0       0       0       0       0       
      +0       0       0       0       0       0       0       0       0       0       0       0       0       0       0
  6322 ;;      Locals:         0       0       0       0       0       0       0       0       0       0       0       0       
      +0       0       0       0       0       0       0       0       0       0       0       0       0       0       0
  6323 ;;      Temps:          0       0       0       0       0       0       0       0       0       0       0       0       
      +0       0       0       0       0       0       0       0       0       0       0       0       0       0       0
  6324 ;;      Totals:         0       0       0       0       0       0       0       0       0       0       0       0       
      +0       0       0       0       0       0       0       0       0       0       0       0       0       0       0
  6325 ;;Total ram usage:        0 bytes
  6326 ;; Hardware stack levels used:    1
  6327 ;; Hardware stack levels required when called:    1
  6328 ;; This function calls:
  6329 ;;		Nothing
  6330 ;; This function is called by:
  6331 ;;		_SD_Read8bitResponse
  6332 ;;		_SD_Read40bitResponse
  6333 ;;		_active
  6334 ;;		_SD_ReadBlock
  6335 ;; This function uses a non-reentrant model
  6336 ;;
  6337                           
  6338                           
  6339                           ;psect for function _SPI_Read
  6340  0C7A                     _SPI_Read:	
  6341                           
  6342                           ;Lab3_SPI.c: 50:     SSP1BUF = 0xFF;
  6343                           
  6344                           ;incstack = 0
  6345                           ; Regs used in _SPI_Read: [wreg]
  6346  0C7A  30FF               	movlw	255
  6347  0C7B  0024               	movlb	4	; select bank4
  6348  0C7C  0091               	movwf	17	;volatile
  6349  0C7D                     l120:	
  6350                           ;Lab3_SPI.c: 51:     while(SSP1STATbits.BF == 0);
  6351                           
  6352  0C7D  1C14               	btfss	20,0	;volatile
  6353  0C7E  2C7D               	goto	l120
  6354                           
  6355                           ;Lab3_SPI.c: 52:     return SSP1BUF;
  6356  0C7F  0811               	movf	17,w	;volatile
  6357  0C80  0008               	return
  6358  0C81                     __end_of_SPI_Read:	
  6359                           
  6360                           	psect	text19
  6361  0C88                     __ptext19:	
  6362 ;; *************** function _SD_Check8bitResponse *****************
  6363 ;; Defined at:
  6364 ;;		line 135 in file "Lab3_SD.c"
  6365 ;; Parameters:    Size  Location     Type
  6366 ;;  Byte            1    wreg     unsigned char 
  6367 ;; Auto vars:     Size  Location     Type
  6368 ;;  Byte            1    0[COMMON] unsigned char 
  6369 ;;  match           1    1[COMMON] _Bool 
  6370 ;; Return value:  Size  Location     Type
  6371 ;;                  1    wreg      _Bool 
  6372 ;; Registers used:
  6373 ;;		wreg, status,2
  6374 ;; Tracked objects:
  6375 ;;		On entry : 0/0
  6376 ;;		On exit  : 0/0
  6377 ;;		Unchanged: 0/0
  6378 ;; Data sizes:     COMMON   BANK0   BANK1   BANK2   BANK3   BANK4   BANK5   BANK6   BANK7   BANK8   BANK9  BANK10  BANK1
      +1  BANK12  BANK13  BANK14  BANK15  BANK16  BANK17  BANK18  BANK19  BANK20  BANK21  BANK22  BANK23  BANK24  BANK25
  6379 ;;      Params:         0       0       0       0       0       0       0       0       0       0       0       0       
      +0       0       0       0       0       0       0       0       0       0       0       0       0       0       0
  6380 ;;      Locals:         2       0       0       0       0       0       0       0       0       0       0       0       
      +0       0       0       0       0       0       0       0       0       0       0       0       0       0       0
  6381 ;;      Temps:          0       0       0       0       0       0       0       0       0       0       0       0       
      +0       0       0       0       0       0       0       0       0       0       0       0       0       0       0
  6382 ;;      Totals:         2       0       0       0       0       0       0       0       0       0       0       0       
      +0       0       0       0       0       0       0       0       0       0       0       0       0       0       0
  6383 ;;Total ram usage:        2 bytes
  6384 ;; Hardware stack levels used:    1
  6385 ;; Hardware stack levels required when called:    1
  6386 ;; This function calls:
  6387 ;;		Nothing
  6388 ;; This function is called by:
  6389 ;;		_SD_Init
  6390 ;;		_SD_WriteBlock
  6391 ;;		_SD_ReadBlock
  6392 ;; This function uses a non-reentrant model
  6393 ;;
  6394                           
  6395                           
  6396                           ;psect for function _SD_Check8bitResponse
  6397  0C88                     _SD_Check8bitResponse:	
  6398                           
  6399                           ;incstack = 0
  6400                           ; Regs used in _SD_Check8bitResponse: [wreg+status,2]
  6401                           ;SD_Check8bitResponse@Byte stored from wreg
  6402  0C88  00F0               	movwf	SD_Check8bitResponse@Byte
  6403                           
  6404                           ;Lab3_SD.c: 135: _Bool SD_Check8bitResponse(char Byte);Lab3_SD.c: 136: {;Lab3_SD.c: 137:
      +                               _Bool match = 1;
  6405  0C89  01F1               	clrf	SD_Check8bitResponse@match
  6406  0C8A  0AF1               	incf	SD_Check8bitResponse@match,f
  6407                           
  6408                           ;Lab3_SD.c: 138:     if (Byte != GLBL_Resp8) match = 0;
  6409  0C8B  0870               	movf	SD_Check8bitResponse@Byte,w
  6410  0C8C  0020               	movlb	0	; select bank0
  6411  0C8D  0654               	xorwf	_GLBL_Resp8,w
  6412  0C8E  1D03               	btfss	3,2
  6413  0C8F  01F1               	clrf	SD_Check8bitResponse@match
  6414                           
  6415                           ;Lab3_SD.c: 139:     return match;
  6416  0C90  0871               	movf	SD_Check8bitResponse@match,w
  6417  0C91  0008               	return
  6418  0C92                     __end_of_SD_Check8bitResponse:	
  6419                           
  6420                           	psect	text20
  6421  0D04                     __ptext20:	
  6422 ;; *************** function _SD_Check40bitResponse *****************
  6423 ;; Defined at:
  6424 ;;		line 171 in file "Lab3_SD.c"
  6425 ;; Parameters:    Size  Location     Type
  6426 ;;  Byte4           1    wreg     unsigned char 
  6427 ;;  Byte3           1    0[COMMON] unsigned char 
  6428 ;;  Byte2           1    1[COMMON] unsigned char 
  6429 ;;  Byte1           1    2[COMMON] unsigned char 
  6430 ;;  Byte0           1    3[COMMON] unsigned char 
  6431 ;; Auto vars:     Size  Location     Type
  6432 ;;  Byte4           1    4[COMMON] unsigned char 
  6433 ;;  match           1    5[COMMON] _Bool 
  6434 ;; Return value:  Size  Location     Type
  6435 ;;                  1    wreg      _Bool 
  6436 ;; Registers used:
  6437 ;;		wreg, status,2
  6438 ;; Tracked objects:
  6439 ;;		On entry : 0/0
  6440 ;;		On exit  : 0/0
  6441 ;;		Unchanged: 0/0
  6442 ;; Data sizes:     COMMON   BANK0   BANK1   BANK2   BANK3   BANK4   BANK5   BANK6   BANK7   BANK8   BANK9  BANK10  BANK1
      +1  BANK12  BANK13  BANK14  BANK15  BANK16  BANK17  BANK18  BANK19  BANK20  BANK21  BANK22  BANK23  BANK24  BANK25
  6443 ;;      Params:         4       0       0       0       0       0       0       0       0       0       0       0       
      +0       0       0       0       0       0       0       0       0       0       0       0       0       0       0
  6444 ;;      Locals:         2       0       0       0       0       0       0       0       0       0       0       0       
      +0       0       0       0       0       0       0       0       0       0       0       0       0       0       0
  6445 ;;      Temps:          0       0       0       0       0       0       0       0       0       0       0       0       
      +0       0       0       0       0       0       0       0       0       0       0       0       0       0       0
  6446 ;;      Totals:         6       0       0       0       0       0       0       0       0       0       0       0       
      +0       0       0       0       0       0       0       0       0       0       0       0       0       0       0
  6447 ;;Total ram usage:        6 bytes
  6448 ;; Hardware stack levels used:    1
  6449 ;; Hardware stack levels required when called:    1
  6450 ;; This function calls:
  6451 ;;		Nothing
  6452 ;; This function is called by:
  6453 ;;		_SD_Init
  6454 ;; This function uses a non-reentrant model
  6455 ;;
  6456                           
  6457                           
  6458                           ;psect for function _SD_Check40bitResponse
  6459  0D04                     _SD_Check40bitResponse:	
  6460                           
  6461                           ;incstack = 0
  6462                           ; Regs used in _SD_Check40bitResponse: [wreg+status,2]
  6463                           ;SD_Check40bitResponse@Byte4 stored from wreg
  6464  0D04  00F4               	movwf	SD_Check40bitResponse@Byte4
  6465                           
  6466                           ;Lab3_SD.c: 171: _Bool SD_Check40bitResponse(char Byte4, char Byte3, char Byte2, char By
      +                          te1, char Byte0);Lab3_SD.c: 172: {;Lab3_SD.c: 173:     _Bool match = 1;
  6467  0D05  01F5               	clrf	SD_Check40bitResponse@match
  6468  0D06  0AF5               	incf	SD_Check40bitResponse@match,f
  6469                           
  6470                           ;Lab3_SD.c: 174:     if (Byte4 != GLBL_Resp40[0]) match = 0;
  6471  0D07  0020               	movlb	0	; select bank0
  6472  0D08  0848               	movf	_GLBL_Resp40,w
  6473  0D09  0674               	xorwf	SD_Check40bitResponse@Byte4,w
  6474  0D0A  1D03               	btfss	3,2
  6475  0D0B  01F5               	clrf	SD_Check40bitResponse@match
  6476                           
  6477                           ;Lab3_SD.c: 175:     if (Byte3 != GLBL_Resp40[1]) match = 0;
  6478  0D0C  0849               	movf	_GLBL_Resp40+1,w
  6479  0D0D  0670               	xorwf	SD_Check40bitResponse@Byte3,w
  6480  0D0E  1D03               	btfss	3,2
  6481  0D0F  01F5               	clrf	SD_Check40bitResponse@match
  6482                           
  6483                           ;Lab3_SD.c: 176:     if (Byte2 != GLBL_Resp40[2]) match = 0;
  6484  0D10  084A               	movf	_GLBL_Resp40+2,w
  6485  0D11  0671               	xorwf	SD_Check40bitResponse@Byte2,w
  6486  0D12  1D03               	btfss	3,2
  6487  0D13  01F5               	clrf	SD_Check40bitResponse@match
  6488                           
  6489                           ;Lab3_SD.c: 177:     if (Byte1 != GLBL_Resp40[3]) match = 0;
  6490  0D14  084B               	movf	_GLBL_Resp40+3,w
  6491  0D15  0672               	xorwf	SD_Check40bitResponse@Byte1,w
  6492  0D16  1D03               	btfss	3,2
  6493  0D17  01F5               	clrf	SD_Check40bitResponse@match
  6494                           
  6495                           ;Lab3_SD.c: 178:     if (Byte0 != GLBL_Resp40[4]) match = 0;
  6496  0D18  084C               	movf	_GLBL_Resp40+4,w
  6497  0D19  0673               	xorwf	SD_Check40bitResponse@Byte0,w
  6498  0D1A  1D03               	btfss	3,2
  6499  0D1B  01F5               	clrf	SD_Check40bitResponse@match
  6500                           
  6501                           ;Lab3_SD.c: 179:     return match;
  6502  0D1C  0875               	movf	SD_Check40bitResponse@match,w
  6503  0D1D  0008               	return
  6504  0D1E                     __end_of_SD_Check40bitResponse:	
  6505                           
  6506                           	psect	intentry
  6507  0004                     __pintentry:	
  6508 ;; *************** function _timeInterrupt *****************
  6509 ;; Defined at:
  6510 ;;		line 410 in file "Lab3_Main.c"
  6511 ;; Parameters:    Size  Location     Type
  6512 ;;		None
  6513 ;; Auto vars:     Size  Location     Type
  6514 ;;		None
  6515 ;; Return value:  Size  Location     Type
  6516 ;;                  1    wreg      void 
  6517 ;; Registers used:
  6518 ;;		wreg, status,2, status,0
  6519 ;; Tracked objects:
  6520 ;;		On entry : 0/0
  6521 ;;		On exit  : 0/0
  6522 ;;		Unchanged: 0/0
  6523 ;; Data sizes:     COMMON   BANK0   BANK1   BANK2   BANK3   BANK4   BANK5   BANK6   BANK7   BANK8   BANK9  BANK10  BANK1
      +1  BANK12  BANK13  BANK14  BANK15  BANK16  BANK17  BANK18  BANK19  BANK20  BANK21  BANK22  BANK23  BANK24  BANK25
  6524 ;;      Params:         0       0       0       0       0       0       0       0       0       0       0       0       
      +0       0       0       0       0       0       0       0       0       0       0       0       0       0       0
  6525 ;;      Locals:         0       0       0       0       0       0       0       0       0       0       0       0       
      +0       0       0       0       0       0       0       0       0       0       0       0       0       0       0
  6526 ;;      Temps:          0       0       0       0       0       0       0       0       0       0       0       0       
      +0       0       0       0       0       0       0       0       0       0       0       0       0       0       0
  6527 ;;      Totals:         0       0       0       0       0       0       0       0       0       0       0       0       
      +0       0       0       0       0       0       0       0       0       0       0       0       0       0       0
  6528 ;;Total ram usage:        0 bytes
  6529 ;; Hardware stack levels used:    1
  6530 ;; This function calls:
  6531 ;;		Nothing
  6532 ;; This function is called by:
  6533 ;;		Interrupt level 1
  6534 ;; This function uses a non-reentrant model
  6535 ;;
  6536                           
  6537  0004                     _timeInterrupt:	
  6538                           
  6539                           ;incstack = 0
  6540  0004  147E               	bsf	126,0	;set compiler interrupt flag (level 1)
  6541                           
  6542                           ; Regs used in _timeInterrupt: [wreg+status,2+status,0]
  6543  0005  3180               	pagesel	$
  6544                           
  6545                           ;Lab3_Main.c: 412:     static unsigned short G_u16secCheck = 0;;Lab3_Main.c: 414:     G_
      +                          u16sec += 2;
  6546  0006  3002               	movlw	2
  6547  0007  0020               	movlb	0	; select bank0
  6548  0008  07A6               	addwf	_G_u16sec,f
  6549  0009  3000               	movlw	0
  6550  000A  3DA7               	addwfc	_G_u16sec+1,f
  6551                           
  6552                           ;Lab3_Main.c: 415:     G_u16secCheck += 2;
  6553  000B  3002               	movlw	2
  6554  000C  07A4               	addwf	timeInterrupt@G_u16secCheck,f
  6555  000D  3000               	movlw	0
  6556  000E  3DA5               	addwfc	timeInterrupt@G_u16secCheck+1,f
  6557                           
  6558                           ;Lab3_Main.c: 416:     if (G_u16secCheck == 100)
  6559  000F  3064               	movlw	100
  6560  0010  0624               	xorwf	timeInterrupt@G_u16secCheck,w
  6561  0011  0425               	iorwf	timeInterrupt@G_u16secCheck+1,w
  6562  0012  1D03               	btfss	3,2
  6563  0013  281A               	goto	i1l2496
  6564                           
  6565                           ;Lab3_Main.c: 417:     {;Lab3_Main.c: 418:         G_u16sec -= 1;
  6566  0014  3001               	movlw	1
  6567  0015  02A6               	subwf	_G_u16sec,f
  6568  0016  3000               	movlw	0
  6569  0017  3BA7               	subwfb	_G_u16sec+1,f
  6570                           
  6571                           ;Lab3_Main.c: 419:         G_u16secCheck = 0;
  6572  0018  01A4               	clrf	timeInterrupt@G_u16secCheck
  6573  0019  01A5               	clrf	timeInterrupt@G_u16secCheck+1
  6574  001A                     i1l2496:	
  6575                           
  6576                           ;Lab3_Main.c: 422:     if (G_u16sec == 60 || G_u16sec == 59)
  6577  001A  303C               	movlw	60
  6578  001B  0626               	xorwf	_G_u16sec,w
  6579  001C  0427               	iorwf	_G_u16sec+1,w
  6580  001D  1903               	btfsc	3,2
  6581  001E  2824               	goto	i1l2500
  6582  001F  303B               	movlw	59
  6583  0020  0626               	xorwf	_G_u16sec,w
  6584  0021  0427               	iorwf	_G_u16sec+1,w
  6585  0022  1D03               	btfss	3,2
  6586  0023  283D               	goto	i1l2514
  6587  0024                     i1l2500:	
  6588                           
  6589                           ;Lab3_Main.c: 423:      {;Lab3_Main.c: 424:          G_u16min++;
  6590  0024  3001               	movlw	1
  6591  0025  07A8               	addwf	_G_u16min,f
  6592  0026  3000               	movlw	0
  6593  0027  3DA9               	addwfc	_G_u16min+1,f
  6594                           
  6595                           ;Lab3_Main.c: 425:          snooze = 0;
  6596  0028  01AE               	clrf	_snooze
  6597                           
  6598                           ;Lab3_Main.c: 426:          if (G_u16min == 60)
  6599  0029  303C               	movlw	60
  6600  002A  0628               	xorwf	_G_u16min,w
  6601  002B  0429               	iorwf	_G_u16min+1,w
  6602  002C  1D03               	btfss	3,2
  6603  002D  283B               	goto	i1l432
  6604                           
  6605                           ;Lab3_Main.c: 427:          {;Lab3_Main.c: 428:              G_u16min = 0;
  6606  002E  01A8               	clrf	_G_u16min
  6607  002F  01A9               	clrf	_G_u16min+1
  6608                           
  6609                           ;Lab3_Main.c: 429:              G_u16hour++;
  6610  0030  3001               	movlw	1
  6611  0031  07D1               	addwf	_G_u16hour,f
  6612  0032  3000               	movlw	0
  6613  0033  3DD2               	addwfc	_G_u16hour+1,f
  6614                           
  6615                           ;Lab3_Main.c: 430:              if (G_u16hour == 24)
  6616  0034  3018               	movlw	24
  6617  0035  0651               	xorwf	_G_u16hour,w
  6618  0036  0452               	iorwf	_G_u16hour+1,w
  6619  0037  1D03               	btfss	3,2
  6620  0038  283B               	goto	i1l432
  6621                           
  6622                           ;Lab3_Main.c: 431:              {;Lab3_Main.c: 432:              G_u16hour = 0;
  6623  0039  01D1               	clrf	_G_u16hour
  6624  003A  01D2               	clrf	_G_u16hour+1
  6625  003B                     i1l432:	
  6626                           ;Lab3_Main.c: 434:          }
  6627                           
  6628                           
  6629                           ;Lab3_Main.c: 435:          G_u16sec = 0;
  6630  003B  01A6               	clrf	_G_u16sec
  6631  003C  01A7               	clrf	_G_u16sec+1
  6632  003D                     i1l2514:	
  6633                           
  6634                           ;Lab3_Main.c: 437:     TMR1IF = 0;
  6635  003D  1011               	bcf	17,0	;volatile
  6636  003E  107E               	bcf	126,0	;clear compiler interrupt flag (level 1)
  6637  003F  0009               	retfie
  6638  0040                     __end_of_timeInterrupt:	
  6639  007E                     btemp	set	126	;btemp
  6640  007E                     int$flags	set	126
  6641  007E                     wtemp0	set	126


Data Sizes:
    Strings     0
    Constant    256
    Data        169
    BSS         27
    Persistent  32
    Stack       0

Auto Spaces:
    Space          Size  Autos    Used
    COMMON           14     13      14
    BANK0            80     14      53
    BANK1            80      0      78
    BANK2            80      0      78
    BANK3            80      0       0
    BANK4            80      0       0
    BANK5            80      0       0
    BANK6            16      0       0
    BANK7             0      0       0
    BANK8             0      0       0
    BANK9             0      0       0
    BANK10            0      0       0
    BANK11            0      0       0
    BANK12            0      0       0
    BANK13           80      0       0
    BANK14           80      0       0
    BANK15           80      0       0
    BANK16           80      0       0
    BANK17           80      0       0
    BANK18           80      0       0
    BANK19            0      0       0
    BANK20            0      0       0
    BANK21            0      0       0
    BANK22            0      0       0
    BANK23            0      0       0
    BANK24            0      0       0
    BANK25            0      0       0

Pointer List with Targets:

    G_u8charPointer	PTR unsigned char  size(1) Largest target is 2
		 -> NULL(NULL[0]), G_u16Address(BANK0[2]), 


Critical Paths under _main in COMMON

    _main->_readTime
    _playAlarm->_playAudio
    _checkButtonPress->_readTime
    _readTime->_playAudio
    _playMinute10->_playAudio
    _playMinute->_playAudio
    _playHour->_playAudio
    _playAudio->_active
    _active->_SD_SendCommand
    _SD_Init->_SD_SendCommand
    _SD_SendCommand->_SPI_Write

Critical Paths under _timeInterrupt in COMMON

    None.

Critical Paths under _main in BANK0

    _main->_readTime
    _playAlarm->_playAudio
    _checkButtonPress->_readTime
    _readTime->_playMinute10
    _playMinute10->_playMinute
    _playMinute->_playAudio
    _playHour->_playAudio

Critical Paths under _timeInterrupt in BANK0

    None.

Critical Paths under _main in BANK1

    None.

Critical Paths under _timeInterrupt in BANK1

    None.

Critical Paths under _main in BANK2

    None.

Critical Paths under _timeInterrupt in BANK2

    None.

Critical Paths under _main in BANK3

    None.

Critical Paths under _timeInterrupt in BANK3

    None.

Critical Paths under _main in BANK4

    None.

Critical Paths under _timeInterrupt in BANK4

    None.

Critical Paths under _main in BANK5

    None.

Critical Paths under _timeInterrupt in BANK5

    None.

Critical Paths under _main in BANK6

    None.

Critical Paths under _timeInterrupt in BANK6

    None.

Critical Paths under _main in BANK7

    None.

Critical Paths under _timeInterrupt in BANK7

    None.

Critical Paths under _main in BANK8

    None.

Critical Paths under _timeInterrupt in BANK8

    None.

Critical Paths under _main in BANK9

    None.

Critical Paths under _timeInterrupt in BANK9

    None.

Critical Paths under _main in BANK10

    None.

Critical Paths under _timeInterrupt in BANK10

    None.

Critical Paths under _main in BANK11

    None.

Critical Paths under _timeInterrupt in BANK11

    None.

Critical Paths under _main in BANK12

    None.

Critical Paths under _timeInterrupt in BANK12

    None.

Critical Paths under _main in BANK13

    None.

Critical Paths under _timeInterrupt in BANK13

    None.

Critical Paths under _main in BANK14

    None.

Critical Paths under _timeInterrupt in BANK14

    None.

Critical Paths under _main in BANK15

    None.

Critical Paths under _timeInterrupt in BANK15

    None.

Critical Paths under _main in BANK16

    None.

Critical Paths under _timeInterrupt in BANK16

    None.

Critical Paths under _main in BANK17

    None.

Critical Paths under _timeInterrupt in BANK17

    None.

Critical Paths under _main in BANK18

    None.

Critical Paths under _timeInterrupt in BANK18

    None.

Critical Paths under _main in BANK19

    None.

Critical Paths under _timeInterrupt in BANK19

    None.

Critical Paths under _main in BANK20

    None.

Critical Paths under _timeInterrupt in BANK20

    None.

Critical Paths under _main in BANK21

    None.

Critical Paths under _timeInterrupt in BANK21

    None.

Critical Paths under _main in BANK22

    None.

Critical Paths under _timeInterrupt in BANK22

    None.

Critical Paths under _main in BANK23

    None.

Critical Paths under _timeInterrupt in BANK23

    None.

Critical Paths under _main in BANK24

    None.

Critical Paths under _timeInterrupt in BANK24

    None.

Critical Paths under _main in BANK25

    None.

Critical Paths under _timeInterrupt in BANK25

    None.

Call Graph Tables:

 ---------------------------------------------------------------------------------
 (Depth) Function   	        Calls       Base Space   Used Autos Params    Refs
 ---------------------------------------------------------------------------------
 (0) _main                                                 0     0      0  121127
                            _SD_Init
                           _SPI_Init
                   _checkButtonPress
                      _configButtons
                          _playAlarm
                           _readTime
 ---------------------------------------------------------------------------------
 (1) _playAlarm                                            0     0      0   10765
                          _playAudio
 ---------------------------------------------------------------------------------
 (1) _configButtons                                        0     0      0       0
 ---------------------------------------------------------------------------------
 (1) _checkButtonPress                                     0     0      0   58824
                          _playAudio
                           _readTime
 ---------------------------------------------------------------------------------
 (1) _readTime                                             7     3      4   48059
                                             12 COMMON     1     1      0
                                              8 BANK0      6     2      4
                          _playAudio
                           _playHour
                       _playMinute10
 ---------------------------------------------------------------------------------
 (2) _playMinute10                                         2     0      2   25220
                                              6 BANK0      2     0      2
                            ___awdiv
                          _playAudio
                         _playMinute
 ---------------------------------------------------------------------------------
 (3) _playMinute                                           2     0      2   13133
                                              4 BANK0      2     0      2
                            ___awdiv
                          _playAudio
 ---------------------------------------------------------------------------------
 (4) ___awdiv                                              9     5      4    1060
                                              0 COMMON     9     5      4
 ---------------------------------------------------------------------------------
 (2) _playHour                                             2     0      2   11181
                                              4 BANK0      2     0      2
                          _playAudio
 ---------------------------------------------------------------------------------
 (4) _playAudio                                            5     1      4   10765
                                             11 COMMON     1     1      0
                                              0 BANK0      4     0      4
                             _active
 ---------------------------------------------------------------------------------
 (5) _active                                               2     2      0    2969
                                              9 COMMON     2     2      0
                _SD_Read8bitResponse
                     _SD_SendCommand
                           _SPI_Read
                           _writeDAQ
 ---------------------------------------------------------------------------------
 (6) _writeDAQ                                             3     3      0      22
                                              0 COMMON     3     3      0
 ---------------------------------------------------------------------------------
 (1) _SPI_Init                                             0     0      0       0
 ---------------------------------------------------------------------------------
 (1) _SD_Init                                              1     1      0    3479
                                              9 COMMON     1     1      0
              _SD_Check40bitResponse
               _SD_Check8bitResponse
               _SD_Read40bitResponse
                _SD_Read8bitResponse
                     _SD_SendCommand
                          _SPI_Write
 ---------------------------------------------------------------------------------
 (6) _SD_SendCommand                                       8     4      4    2877
                                              1 COMMON     8     4      4
                          _SPI_Write
 ---------------------------------------------------------------------------------
 (7) _SPI_Write                                            1     1      0      22
                                              0 COMMON     1     1      0
 ---------------------------------------------------------------------------------
 (6) _SD_Read8bitResponse                                  2     2      0      46
                                              0 COMMON     2     2      0
                           _SPI_Read
 ---------------------------------------------------------------------------------
 (2) _SD_Read40bitResponse                                 2     2      0      46
                                              0 COMMON     2     2      0
                           _SPI_Read
 ---------------------------------------------------------------------------------
 (6) _SPI_Read                                             0     0      0       0
 ---------------------------------------------------------------------------------
 (2) _SD_Check8bitResponse                                 2     2      0      46
                                              0 COMMON     2     2      0
 ---------------------------------------------------------------------------------
 (2) _SD_Check40bitResponse                                6     2      4     442
                                              0 COMMON     6     2      4
 ---------------------------------------------------------------------------------
 Estimated maximum stack depth 7
 ---------------------------------------------------------------------------------
 (Depth) Function   	        Calls       Base Space   Used Autos Params    Refs
 ---------------------------------------------------------------------------------
 (9) _timeInterrupt                                        0     0      0       0
 ---------------------------------------------------------------------------------
 Estimated maximum stack depth 9
 ---------------------------------------------------------------------------------

 Call Graph Graphs:

 _main (ROOT)
   _SD_Init
     _SD_Check40bitResponse
     _SD_Check8bitResponse
     _SD_Read40bitResponse
       _SPI_Read
     _SD_Read8bitResponse
       _SPI_Read
     _SD_SendCommand
       _SPI_Write
     _SPI_Write
   _SPI_Init
   _checkButtonPress
     _playAudio
       _active
         _SD_Read8bitResponse
           _SPI_Read
         _SD_SendCommand
           _SPI_Write
         _SPI_Read
         _writeDAQ
     _readTime
       _playAudio
         _active
           _SD_Read8bitResponse
             _SPI_Read
           _SD_SendCommand
             _SPI_Write
           _SPI_Read
           _writeDAQ
       _playHour
         _playAudio
           _active
             _SD_Read8bitResponse
               _SPI_Read
             _SD_SendCommand
               _SPI_Write
             _SPI_Read
             _writeDAQ
       _playMinute10
         ___awdiv
         _playAudio
           _active
             _SD_Read8bitResponse
               _SPI_Read
             _SD_SendCommand
               _SPI_Write
             _SPI_Read
             _writeDAQ
         _playMinute
           ___awdiv
           _playAudio
             _active
               _SD_Read8bitResponse
                 _SPI_Read
               _SD_SendCommand
                 _SPI_Write
               _SPI_Read
               _writeDAQ
   _configButtons
   _playAlarm
     _playAudio
       _active
         _SD_Read8bitResponse
           _SPI_Read
         _SD_SendCommand
           _SPI_Write
         _SPI_Read
         _writeDAQ
   _readTime
     _playAudio
       _active
         _SD_Read8bitResponse
           _SPI_Read
         _SD_SendCommand
           _SPI_Write
         _SPI_Read
         _writeDAQ
     _playHour
       _playAudio
         _active
           _SD_Read8bitResponse
             _SPI_Read
           _SD_SendCommand
             _SPI_Write
           _SPI_Read
           _writeDAQ
     _playMinute10
       ___awdiv
       _playAudio
         _active
           _SD_Read8bitResponse
             _SPI_Read
           _SD_SendCommand
             _SPI_Write
           _SPI_Read
           _writeDAQ
       _playMinute
         ___awdiv
         _playAudio
           _active
             _SD_Read8bitResponse
               _SPI_Read
             _SD_SendCommand
               _SPI_Write
             _SPI_Read
             _writeDAQ

 _timeInterrupt (ROOT)

 Address spaces:
Name               Size   Autos  Total    Cost      Usage
BIGRAM_1           3E0      0       0       0        0.0%
NULL                 0      0       0       0        0.0%
CODE                 0      0       0       0        0.0%
BIGRAM             3F0      0       0       1        0.0%
BITSFR0              0      0       0       1        0.0%
SFR0                 0      0       0       1        0.0%
BITCOMMON            E      0       0       2        0.0%
BITSFR1              0      0       0       2        0.0%
SFR1                 0      0       0       2        0.0%
COMMON               E      D       E       3      100.0%
BITSFR2              0      0       0       3        0.0%
SFR2                 0      0       0       3        0.0%
BITSFR3              0      0       0       4        0.0%
SFR3                 0      0       0       4        0.0%
STACK                0      0       0       4        0.0%
BANK0               50      E      35       5       66.3%
BITSFR4              0      0       0       5        0.0%
SFR4                 0      0       0       5        0.0%
BITBANK0            50      0       0       6        0.0%
BITSFR5              0      0       0       6        0.0%
SFR5                 0      0       0       6        0.0%
BITBANK1            50      0       0       7        0.0%
BITSFR6              0      0       0       7        0.0%
SFR6                 0      0       0       7        0.0%
BANK1               50      0      4E       8       97.5%
BITSFR7              0      0       0       8        0.0%
SFR7                 0      0       0       8        0.0%
BITBANK2            50      0       0       9        0.0%
BITSFR8              0      0       0       9        0.0%
SFR8                 0      0       0       9        0.0%
BANK2               50      0      4E      10       97.5%
BITSFR9              0      0       0      10        0.0%
SFR9                 0      0       0      10        0.0%
BITBANK3            50      0       0      11        0.0%
BITSFR10             0      0       0      11        0.0%
SFR10                0      0       0      11        0.0%
BANK3               50      0       0      12        0.0%
BITSFR11             0      0       0      12        0.0%
SFR11                0      0       0      12        0.0%
BITSFR12             0      0       0      13        0.0%
SFR12                0      0       0      13        0.0%
ABS                  0      0      DF      13        0.0%
BITBANK4            50      0       0      14        0.0%
BITSFR13             0      0       0      14        0.0%
SFR13                0      0       0      14        0.0%
BANK4               50      0       0      15        0.0%
BITSFR14             0      0       0      15        0.0%
SFR14                0      0       0      15        0.0%
BITBANK5            50      0       0      16        0.0%
BITSFR15             0      0       0      16        0.0%
SFR15                0      0       0      16        0.0%
BANK5               50      0       0      17        0.0%
BITSFR16             0      0       0      17        0.0%
SFR16                0      0       0      17        0.0%
BITBANK6            50      0       0      18        0.0%
BITSFR17             0      0       0      18        0.0%
SFR17                0      0       0      18        0.0%
BANK6               10      0       0      19        0.0%
BITSFR18             0      0       0      19        0.0%
SFR18                0      0       0      19        0.0%
BITBANK7            50      0       0      20        0.0%
BITSFR19             0      0       0      20        0.0%
SFR19                0      0       0      20        0.0%
BITSFR20             0      0       0      21        0.0%
SFR20                0      0       0      21        0.0%
BANK7                0      0       0      21        0.0%
BITBANK8            50      0       0      22        0.0%
BITSFR21             0      0       0      22        0.0%
SFR21                0      0       0      22        0.0%
BITSFR22             0      0       0      23        0.0%
SFR22                0      0       0      23        0.0%
BANK8                0      0       0      23        0.0%
BITBANK9            50      0       0      24        0.0%
BITSFR23             0      0       0      24        0.0%
SFR23                0      0       0      24        0.0%
BITSFR24             0      0       0      25        0.0%
SFR24                0      0       0      25        0.0%
BANK9                0      0       0      25        0.0%
BITBANK10           50      0       0      26        0.0%
BITSFR25             0      0       0      26        0.0%
SFR25                0      0       0      26        0.0%
BITSFR26             0      0       0      27        0.0%
SFR26                0      0       0      27        0.0%
BANK10               0      0       0      27        0.0%
BITBANK11           50      0       0      28        0.0%
BITSFR27             0      0       0      28        0.0%
SFR27                0      0       0      28        0.0%
BITSFR28             0      0       0      29        0.0%
SFR28                0      0       0      29        0.0%
BANK11               0      0       0      29        0.0%
BITSFR29             0      0       0      30        0.0%
SFR29                0      0       0      30        0.0%
DATA                 0      0      DF      30        0.0%
BITBANK12           30      0       0      31        0.0%
BITSFR30             0      0       0      31        0.0%
SFR30                0      0       0      31        0.0%
BITSFR31             0      0       0      32        0.0%
SFR31                0      0       0      32        0.0%
BANK12               0      0       0      32        0.0%
BITBANK13           50      0       0      33        0.0%
BANK13              50      0       0      34        0.0%
BITBANK14           50      0       0      35        0.0%
BANK14              50      0       0      36        0.0%
BITBANK15           50      0       0      37        0.0%
BANK15              50      0       0      38        0.0%
BITBANK16           50      0       0      39        0.0%
BANK16              50      0       0      40        0.0%
BITBANK17           50      0       0      41        0.0%
BANK17              50      0       0      42        0.0%
BITBANK18           50      0       0      43        0.0%
BANK18              50      0       0      44        0.0%
BITBANK19           50      0       0      45        0.0%
BANK19               0      0       0      46        0.0%
BITBANK20           50      0       0      47        0.0%
BANK20               0      0       0      48        0.0%
BITBANK21           50      0       0      49        0.0%
BANK21               0      0       0      50        0.0%
BITBANK22           50      0       0      51        0.0%
BANK22               0      0       0      52        0.0%
BITBANK23           50      0       0      53        0.0%
BANK23               0      0       0      54        0.0%
BITBANK24           50      0       0      55        0.0%
BANK24               0      0       0      56        0.0%
BITBANK25           20      0       0      57        0.0%
BANK25               0      0       0      58        0.0%


Microchip Technology PIC Macro Assembler V2.05 build -831301201 
Symbol Table                                                                                   Wed Apr 17 16:54:38 2019

               playMinute@minute 003E                     ___awdiv@sign 0076               writeDAQ@writevalue 0072  
          playAudio@startAddress 003A         __end_of_checkButtonPress 06DB                              l120 0C7D  
                            l114 0C85                              l412 0F5C                              l316 07F8  
                            l260 05FF                              l246 0D96                              l415 0F67  
                            l272 067B                              l274 06AF                              l266 063D  
                            l258 05F0                              wreg 0009           ??_SD_Check8bitResponse 0070  
                ?_SD_SendCommand 0071                             l2002 021C                             l2100 03F9  
                           l2012 0243                             l2004 022F                             l2022 026A  
                           l2014 0256                             l2120 0471                             l2112 0441  
                           l2104 0411                             l2032 0291                             l2024 027D  
                           l2042 02B8                             l2034 02A4                             l2132 04B9  
                           l2124 0489                             l2116 0459                             l2108 0429  
                           l2052 02DF                             l2044 02CB                             l2070 0352  
                           l2062 0322                             l2054 02F2                             l2150 07B4  
                           l2222 0EE2                             l2136 04D1                             l2128 04A1  
                           l2312 0613                             l2242 0FA4                             l2082 039A  
                           l2074 036A                             l2066 033A                             l2058 030A  
                           l2154 07D4                             l2146 0794                             l2322 0628  
                           l2172 0D66                             l2316 061D                             l2254 0FD6  
                           l2086 03B2                             l2078 0382                             l2326 0635  
                           l2248 0FB7                             l2096 03E1                             l2344 0651  
                           l2354 0666                             l1804 0CC2                             l2348 065B  
                           l1910 0E9E                             l1902 0E80                             l2358 0673  
                           l2294 05F8                             l1832 0F38                             l1904 0E8C  
                           l1914 0EA7                             l2482 0DB4                             l1828 0F2F  
                           l1860 0F0D                             l1940 0102                             l1932 00D2  
                           l1862 0F72                             l1918 0EAF                             l1960 017A  
                           l1952 014A                             l1944 011A                             l1936 00EA  
                           l1928 00BA                             l1892 0E78                             l1972 01A7  
                           l1956 0162                             l1948 0132                             l1964 0192  
                           l1886 0E6D                             l1982 01CE                             l1974 01BA  
                           l1992 01F5                             l1984 01E1                             l1994 0208  
                           _T2PR 0494                             u2525 0EC1                             u1655 0E83  
                           _PIE1 0091                             u1595 0F14                             u1675 0E8D  
                           u1685 0E97                             u2805 0D42                             u1695 0E9F  
                           u2815 0D4A                             _main 0D93                  __end_of_SD_Init 1000  
                           fsr0h 0005                             fsr1h 0007                             indf0 0000  
                           fsr0l 0004                             indf1 0001                             fsr1l 0006  
                           btemp 007E                             start 0040    __size_of_SD_Read40bitResponse 002D  
            playAudio@endAddress 003C     __size_of_SD_Read8bitResponse 0011                 __end_of_CRCTable 05E8  
                  __CFG_PLLEN$ON 0000                            ?_main 0070                  __end_of___awdiv 0EB4  
                  __CFG_WDTE$OFF 0000                            _ANSC3 0C73                  ___awdiv@divisor 0070  
                          _T1CON 001A                            _T2CON 0495                            i1l432 003B  
                ___awdiv@counter 0075                  ??_configButtons 0070                 __end_of_SPI_Init 0D3B  
               __end_of_SPI_Read 0C81                            status 0003                            wtemp0 007E  
             __size_of_SPI_Write 0007                  __initialization 0042                     __end_of_main 0DC7  
                         ??_main 007D                  _GLBL_ReadBuffer 21F0         SD_Check8bitResponse@Byte 0070  
                         _DAC1LD 2C68             _G_au16startAddresses 00A0                        ??_SD_Init 0079  
               ___awdiv@dividend 0072                           _RC2PPS 0EA2                           _RC4PPS 0EA4  
                         i1l2500 0024                           i1l2514 003D                           i1l2496 001A  
                         _INTCON 000B                           _OSCCON 009B                           _TMR1IF 0088  
                         _TRISC2 0472                           _TRISC3 0473                           _TRISC4 0474  
                         _TRISC7 0477                        ??___awdiv 0074                           _active 0F0D  
               __end_of_readTime 0F0D         SD_SendCommand@ByteToSend 0077                 ___awdiv@quotient 0077  
                         _snooze 002E                 __end_of_playHour 04E8                __end_of_SPI_Write 0C88  
               __end_of_writeDAQ 0C9D          __end_of__initialization 008D   __size_of_SD_Check40bitResponse 001A  
  __end_of_SD_Check40bitResponse 0D1E                   __pcstackCOMMON 0070                     __pidataBANK0 0CB5  
                   __pidataBANK1 0E15                     __pidataBANK2 0DC7            __end_of_timeInterrupt 0040  
                      ?_SPI_Init 0070                        ?_SPI_Read 0070                active@readMessage 007A  
              ?_checkButtonPress 0070                 ??_SD_SendCommand 0075               ??_checkButtonPress 007D  
            _SD_Read8bitResponse 0CC2                    ?_playMinute10 0040                       __pbssBANK0 0020  
                     __pmaintext 0D93               __size_of_playAlarm 002B             ?_SD_Read8bitResponse 0070  
             __size_of_playAudio 0018                          ?_active 0070                          _DAC1REF 058F  
                     __pintentry 0004                       ??_SPI_Init 0070                       ??_SPI_Read 0070  
   __end_of_SD_Read40bitResponse 0D93                   ??_playMinute10 007C                          _SSP1ADD 0212  
                        _SSP1BUF 0211                          _SD_Init 0F74    __size_of_SD_Check8bitResponse 000A  
                      ?_readTime 0042                        ?_playHour 003E            ??_SD_Read8bitResponse 0070  
                        ___awdiv 0E63                  __size_of_active 0067                        ?_writeDAQ 0070  
                   readTime@hour 0042                          __ptext1 0D3B                          __ptext2 0CEB  
                        __ptext3 05E8                          __ptext4 0EB4                          __ptext5 0774  
                        __ptext6 0091                          __ptext7 0E63                          __ptext8 03C9  
                        __ptext9 0CD3            __end_of_configButtons 0D04                __end_of_playAlarm 0D66  
              __end_of_playAudio 0CEB                          clrloop0 0C9E             end_of_initialization 008D  
                     _playMinute 0091       SD_Check40bitResponse@Byte0 0073       SD_Check40bitResponse@Byte1 0072  
     SD_Check40bitResponse@Byte2 0071       SD_Check40bitResponse@Byte3 0070       SD_Check40bitResponse@Byte4 0074  
                        init_ram 0CA9                       ??_readTime 007C                          initloop 0CAA  
     SD_Check40bitResponse@match 0075                       ??_playHour 007C                       ??_writeDAQ 0070  
                      _PORTBbits 000D                        _PORTCbits 000E                       _pressedMin 0031  
                _G_u16EndAddress 002A                        _SSPDATPPS 0E3B                        _SSPCLKPPS 0E3A  
               __CFG_FOSC$INTOSC 0000                        _G_u16hour 0051       timeInterrupt@G_u16secCheck 0024  
                      _TRISBbits 008D                    __pbssBIGRAM_1 25F0                        _SPI_Write 0C81  
SD_Read40bitResponse@readMessage 0071             _SD_Read40bitResponse 0D66             __end_of_playMinute10 0800  
                 __end_of_active 0F74                    _G_8hasAddress 0035                __size_of_SPI_Init 001D  
              __size_of_SPI_Read 0007              start_initialization 0042               SPI_Write@Data_8bit 0070  
                     ?_SPI_Write 0070                      ?_playMinute 003E        __size_of_checkButtonPress 00F3  
               _GLBL_WriteBuffer 25F0            ?_SD_Read40bitResponse 0070            _SD_Check40bitResponse 0D04  
                       ??_active 0079                      __pdataBANK0 0048                      __pdataBANK1 00A0  
                    __pdataBANK2 0120                      __pbssBIGRAM 21F0                      __pbssCOMMON 007D  
                      ___latbits 0003                    __pcstackBANK0 003A                         ?_SD_Init 0070  
         __size_of_timeInterrupt 003C                __size_of_readTime 0059                __size_of_playHour 011F  
                       ?___awdiv 0070     __end_of_SD_Check8bitResponse 0C92                   readTime@minute 0044  
                   playHour@hour 003E              __size_of_playMinute 0338                         _DAC1CON0 058E  
              __size_of_writeDAQ 000B                      _GLBL_Resp40 0048                      ??_SPI_Write 0070  
                       _T2CLKCON 0497                 readTime@temphour 0046                         _CRCTable 04E8  
        __size_of_SD_SendCommand 0099                        _playAlarm 0D3B           ??_SD_Read40bitResponse 0070  
                      _playAudio 0CD3      __end_of_SD_Read8bitResponse 0CD3                        clear_ram0 0C9D  
          __size_of_playMinute10 008C           SD_SendCommand@CMD_6bit 0076                         _PIR1bits 0011  
         ?_SD_Check40bitResponse 0070                         _SSP1CON1 0215                         _SSP1STAT 0214  
                       _G_u16min 0028                         _G_u16sec 0026                         _SPI_Init 0D1E  
                       _SPI_Read 0C7A                    _timeInterrupt 0004                         _G_u8play 0037  
                   _playMinute10 0774               playMinute10@minute 0040                 __size_of_SD_Init 008C  
                _G_u8charPointer 007D           SD_SendCommand@Checksum 0078                       ?_playAlarm 0070  
                     ?_playAudio 003A                 _checkButtonPress 05E8               _G_au16endAddresses 0120  
         __size_of_configButtons 0019                 __size_of___awdiv 0051                   ?_timeInterrupt 0070  
                     _ANSELBbits 018D                         __ptext10 0F0D                         __ptext11 0C92  
                       __ptext20 0D04                         __ptext12 0D1E                         __ptext13 0F74  
                       __ptext14 06DB                         __ptext15 0C81                         __ptext16 0CC2  
                       __ptext17 0D66                         __ptext18 0C7A                         __ptext19 0C88  
                   _SSP1CON1bits 0215                     ??_playMinute 007C             _SD_Check8bitResponse 0C88  
                     _GLBL_Resp8 0054                         _readTime 0EB4                    __size_of_main 0034  
             SD_SendCommand@ARG0 0074               SD_SendCommand@ARG1 0073               SD_SendCommand@ARG2 0072  
             SD_SendCommand@ARG3 0071                         _setAlarm 0053                         _playHour 03C9  
                       _timeSaid 0034                         int$flags 007E                   _G_u16alarmHour 004F  
                   _SSP1STATbits 0214                         _writeDAQ 0C92               __end_of_playMinute 03C9  
                    _OSCSTATbits 009C   SD_Read8bitResponse@readMessage 0071                    _pressedToggle 0030  
                  _pressedSnooze 002F                    _configButtons 0CEB            ?_SD_Check8bitResponse 0070  
                       intlevel1 0000                   _SD_SendCommand 06DB        SD_Check8bitResponse@match 0071  
                    ??_playAlarm 007C                      ??_playAudio 007B                      _G_8sendbyte 0036  
                   _G_u16Address 0038                    _G_u16alarmMin 004D                  ??_timeInterrupt 0070  
                  __pstringtext1 04E8                       _G_8counter 002C                   _G_u32timeTrack 0020  
                 ?_configButtons 0070           __end_of_SD_SendCommand 0774                      _pressedHour 0032  
                    _pressedTalk 0033          ??_SD_Check40bitResponse 0074  
