

Microchip MPLAB XC8 Assembler V2.05 build -831301201 
                                                                                               Thu Apr 11 09:20:52 2019

Microchip MPLAB XC8 C Compiler v2.05 (Free license) build 20181220022703 Og1 
     1                           	processor	16F1778
     2                           	opt	pw 120
     3                           	opt	flic
     4                           	psect	idataBANK0,global,class=CODE,delta=2
     5                           	psect	idataBANK1,global,class=CODE,delta=2
     6                           	psect	idataBANK2,global,class=CODE,delta=2
     7                           	psect	stringtext1,global,class=STRCODE,delta=2
     8                           	psect	cinit,global,class=CODE,merge=1,delta=2
     9                           	psect	bssCOMMON,global,class=COMMON,space=1,delta=1
    10                           	psect	bssBANK0,global,class=BANK0,space=1,delta=1
    11                           	psect	dataBANK0,global,class=BANK0,space=1,delta=1
    12                           	psect	dataBANK1,global,class=BANK1,space=1,delta=1
    13                           	psect	dataBANK2,global,class=BANK2,space=1,delta=1
    14                           	psect	inittext,global,class=CODE,delta=2
    15                           	psect	clrtext,global,class=CODE,delta=2
    16                           	psect	cstackCOMMON,global,class=COMMON,space=1,delta=1
    17                           	psect	cstackBANK0,global,class=BANK0,space=1,delta=1
    18                           	psect	maintext,global,class=CODE,merge=1,split=1,delta=2
    19                           	psect	text1,local,class=CODE,merge=1,delta=2
    20                           	psect	text2,local,class=CODE,merge=1,delta=2
    21                           	psect	text3,local,class=CODE,merge=1,delta=2
    22                           	psect	text4,local,class=CODE,merge=1,delta=2
    23                           	psect	text5,local,class=CODE,merge=1,delta=2
    24                           	psect	text6,local,class=CODE,merge=1,delta=2
    25                           	psect	text7,local,class=CODE,merge=1,delta=2,group=1
    26                           	psect	text8,local,class=CODE,merge=1,delta=2
    27                           	psect	text9,local,class=CODE,merge=1,delta=2
    28                           	psect	text10,local,class=CODE,merge=1,delta=2
    29                           	psect	text11,local,class=CODE,merge=1,delta=2
    30                           	psect	text12,local,class=CODE,merge=1,delta=2
    31                           	psect	text13,local,class=CODE,merge=1,delta=2
    32                           	psect	text14,local,class=CODE,merge=1,delta=2
    33                           	psect	text15,local,class=CODE,merge=1,delta=2
    34                           	psect	text16,local,class=CODE,merge=1,delta=2
    35                           	psect	text17,local,class=CODE,merge=1,delta=2
    36                           	psect	text18,local,class=CODE,merge=1,delta=2
    37                           	psect	text19,local,class=CODE,merge=1,delta=2
    38                           	psect	text20,local,class=CODE,merge=1,delta=2
    39                           	dabs	1,0xCA0,32
    40                           	dabs	1,0xC20,80
    41                           	dabs	1,0xBA0,80
    42                           	dabs	1,0xB20,80
    43                           	dabs	1,0xAA0,80
    44                           	dabs	1,0xA20,80
    45                           	dabs	1,0x9A0,80
    46                           	dabs	1,0x620,48
    47                           	dabs	1,0x5A0,80
    48                           	dabs	1,0x520,80
    49                           	dabs	1,0x4A0,80
    50                           	dabs	1,0x420,80
    51                           	dabs	1,0x3A0,80
    52                           	dabs	1,0x330,64
    53                           	dabs	1,0x25F0,0,_GLBL_WriteBuffer
    54                           	dabs	1,0x21F0,0,_GLBL_ReadBuffer
    55                           	dabs	1,0x7E,2
    56  0000                     
    57                           ; Version 2.05
    58                           ; Generated 20/12/2018 GMT
    59                           ; 
    60                           ; Copyright © 2018, Microchip Technology Inc. and its subsidiaries ("Microchip")
    61                           ; All rights reserved.
    62                           ; 
    63                           ; This software is developed by Microchip Technology Inc. and its subsidiaries ("Microch
      +                          ip").
    64                           ; 
    65                           ; Redistribution and use in source and binary forms, with or without modification, are
    66                           ; permitted provided that the following conditions are met:
    67                           ; 
    68                           ;     1. Redistributions of source code must retain the above copyright notice, this lis
      +                          t of
    69                           ;        conditions and the following disclaimer.
    70                           ; 
    71                           ;     2. Redistributions in binary form must reproduce the above copyright notice, this 
      +                          list
    72                           ;        of conditions and the following disclaimer in the documentation and/or other
    73                           ;        materials provided with the distribution.
    74                           ; 
    75                           ;     3. Microchip's name may not be used to endorse or promote products derived from th
      +                          is
    76                           ;        software without specific prior written permission.
    77                           ; 
    78                           ; THIS SOFTWARE IS PROVIDED BY MICROCHIP "AS IS" AND ANY EXPRESS OR IMPLIED WARRANTIES,
    79                           ; INCLUDING, BUT NOT LIMITED TO, THE IMPLIED WARRANTIES OF MERCHANTABILITY AND FITNESS F
      +                          OR
    80                           ; PURPOSE ARE DISCLAIMED.  IN NO EVENT SHALL MICROCHIP BE LIABLE FOR ANY DIRECT, INDIREC
      +                          T,
    81                           ; INCIDENTAL, SPECIAL, EXEMPLARY, OR CONSEQUENTIAL DAMAGES (INCLUDING BUT NOT LIMITED TO
    82                           ; PROCUREMENT OF SUBSTITUTE GOODS OR SERVICES; LOSS OF USE, DATA OR PROFITS; OR BUSINESS
    83                           ; INTERRUPTION) HOWSOEVER CAUSED AND ON ANY THEORY OF LIABILITY, WHETHER IN CONTRACT, ST
      +                          RICT
    84                           ; LIABILITY, OR TORT (INCLUDING NEGLIGENCE OR OTHERWISE) ARISING IN ANY WAY OUT OF THE U
      +                          SE OF
    85                           ; THIS SOFTWARE, EVEN IF ADVISED OF THE POSSIBILITY OF SUCH DAMAGE.
    86                           ; 
    87                           ; 
    88                           ; Code-generator required, PIC16F1778 Definitions
    89                           ; 
    90                           ; SFR Addresses
    91  0000                     	;# 
    92  0001                     	;# 
    93  0002                     	;# 
    94  0003                     	;# 
    95  0004                     	;# 
    96  0005                     	;# 
    97  0006                     	;# 
    98  0007                     	;# 
    99  0008                     	;# 
   100  0009                     	;# 
   101  000A                     	;# 
   102  000B                     	;# 
   103  000C                     	;# 
   104  000D                     	;# 
   105  000E                     	;# 
   106  0010                     	;# 
   107  0011                     	;# 
   108  0012                     	;# 
   109  0013                     	;# 
   110  0014                     	;# 
   111  0015                     	;# 
   112  0016                     	;# 
   113  0017                     	;# 
   114  0018                     	;# 
   115  0018                     	;# 
   116  0019                     	;# 
   117  001A                     	;# 
   118  001B                     	;# 
   119  001C                     	;# 
   120  001C                     	;# 
   121  001D                     	;# 
   122  001E                     	;# 
   123  001F                     	;# 
   124  008C                     	;# 
   125  008D                     	;# 
   126  008E                     	;# 
   127  0090                     	;# 
   128  0091                     	;# 
   129  0092                     	;# 
   130  0093                     	;# 
   131  0094                     	;# 
   132  0095                     	;# 
   133  0096                     	;# 
   134  0097                     	;# 
   135  0098                     	;# 
   136  0099                     	;# 
   137  009A                     	;# 
   138  009B                     	;# 
   139  009C                     	;# 
   140  009D                     	;# 
   141  009E                     	;# 
   142  009F                     	;# 
   143  010C                     	;# 
   144  010D                     	;# 
   145  010E                     	;# 
   146  0111                     	;# 
   147  0112                     	;# 
   148  0113                     	;# 
   149  0114                     	;# 
   150  0115                     	;# 
   151  0116                     	;# 
   152  0117                     	;# 
   153  0118                     	;# 
   154  0119                     	;# 
   155  011A                     	;# 
   156  011B                     	;# 
   157  011C                     	;# 
   158  011D                     	;# 
   159  018C                     	;# 
   160  018D                     	;# 
   161  018E                     	;# 
   162  0191                     	;# 
   163  0191                     	;# 
   164  0192                     	;# 
   165  0193                     	;# 
   166  0193                     	;# 
   167  0194                     	;# 
   168  0195                     	;# 
   169  0196                     	;# 
   170  0197                     	;# 
   171  0199                     	;# 
   172  0199                     	;# 
   173  0199                     	;# 
   174  019A                     	;# 
   175  019A                     	;# 
   176  019A                     	;# 
   177  019B                     	;# 
   178  019B                     	;# 
   179  019B                     	;# 
   180  019B                     	;# 
   181  019B                     	;# 
   182  019C                     	;# 
   183  019C                     	;# 
   184  019C                     	;# 
   185  019D                     	;# 
   186  019D                     	;# 
   187  019D                     	;# 
   188  019E                     	;# 
   189  019E                     	;# 
   190  019E                     	;# 
   191  019F                     	;# 
   192  019F                     	;# 
   193  019F                     	;# 
   194  019F                     	;# 
   195  019F                     	;# 
   196  020C                     	;# 
   197  020D                     	;# 
   198  020E                     	;# 
   199  0210                     	;# 
   200  0211                     	;# 
   201  0211                     	;# 
   202  0212                     	;# 
   203  0212                     	;# 
   204  0213                     	;# 
   205  0213                     	;# 
   206  0214                     	;# 
   207  0214                     	;# 
   208  0215                     	;# 
   209  0215                     	;# 
   210  0215                     	;# 
   211  0215                     	;# 
   212  0216                     	;# 
   213  0216                     	;# 
   214  0217                     	;# 
   215  0217                     	;# 
   216  021B                     	;# 
   217  021C                     	;# 
   218  021D                     	;# 
   219  021E                     	;# 
   220  021F                     	;# 
   221  028C                     	;# 
   222  028D                     	;# 
   223  028E                     	;# 
   224  0291                     	;# 
   225  0291                     	;# 
   226  0292                     	;# 
   227  0293                     	;# 
   228  0294                     	;# 
   229  0295                     	;# 
   230  0295                     	;# 
   231  0296                     	;# 
   232  0297                     	;# 
   233  0298                     	;# 
   234  0299                     	;# 
   235  0299                     	;# 
   236  029A                     	;# 
   237  029B                     	;# 
   238  029C                     	;# 
   239  029E                     	;# 
   240  029F                     	;# 
   241  030C                     	;# 
   242  030D                     	;# 
   243  030E                     	;# 
   244  0315                     	;# 
   245  0316                     	;# 
   246  0317                     	;# 
   247  0318                     	;# 
   248  0319                     	;# 
   249  031B                     	;# 
   250  031C                     	;# 
   251  031D                     	;# 
   252  031E                     	;# 
   253  031F                     	;# 
   254  038C                     	;# 
   255  038D                     	;# 
   256  038E                     	;# 
   257  0390                     	;# 
   258  0391                     	;# 
   259  0392                     	;# 
   260  0393                     	;# 
   261  0394                     	;# 
   262  0395                     	;# 
   263  0396                     	;# 
   264  0397                     	;# 
   265  0398                     	;# 
   266  0399                     	;# 
   267  039D                     	;# 
   268  039E                     	;# 
   269  039F                     	;# 
   270  040D                     	;# 
   271  040F                     	;# 
   272  040F                     	;# 
   273  0410                     	;# 
   274  0411                     	;# 
   275  0412                     	;# 
   276  0413                     	;# 
   277  0413                     	;# 
   278  0414                     	;# 
   279  0414                     	;# 
   280  0415                     	;# 
   281  0416                     	;# 
   282  0417                     	;# 
   283  0418                     	;# 
   284  041A                     	;# 
   285  041A                     	;# 
   286  041B                     	;# 
   287  041B                     	;# 
   288  041C                     	;# 
   289  041D                     	;# 
   290  041E                     	;# 
   291  041F                     	;# 
   292  048E                     	;# 
   293  048E                     	;# 
   294  048F                     	;# 
   295  0490                     	;# 
   296  0491                     	;# 
   297  0492                     	;# 
   298  0493                     	;# 
   299  0493                     	;# 
   300  0494                     	;# 
   301  0494                     	;# 
   302  0495                     	;# 
   303  0496                     	;# 
   304  0497                     	;# 
   305  0498                     	;# 
   306  049A                     	;# 
   307  049A                     	;# 
   308  049B                     	;# 
   309  049B                     	;# 
   310  049C                     	;# 
   311  049D                     	;# 
   312  049E                     	;# 
   313  049F                     	;# 
   314  050F                     	;# 
   315  0510                     	;# 
   316  0511                     	;# 
   317  0512                     	;# 
   318  0513                     	;# 
   319  0514                     	;# 
   320  0515                     	;# 
   321  0516                     	;# 
   322  0517                     	;# 
   323  0518                     	;# 
   324  0519                     	;# 
   325  051A                     	;# 
   326  058D                     	;# 
   327  058E                     	;# 
   328  058F                     	;# 
   329  058F                     	;# 
   330  058F                     	;# 
   331  0590                     	;# 
   332  0590                     	;# 
   333  0591                     	;# 
   334  0592                     	;# 
   335  0592                     	;# 
   336  0592                     	;# 
   337  0593                     	;# 
   338  0593                     	;# 
   339  0594                     	;# 
   340  0595                     	;# 
   341  0595                     	;# 
   342  0596                     	;# 
   343  0597                     	;# 
   344  0597                     	;# 
   345  0598                     	;# 
   346  0599                     	;# 
   347  0599                     	;# 
   348  0599                     	;# 
   349  059A                     	;# 
   350  059A                     	;# 
   351  059E                     	;# 
   352  059F                     	;# 
   353  059F                     	;# 
   354  0614                     	;# 
   355  0614                     	;# 
   356  0615                     	;# 
   357  0616                     	;# 
   358  0617                     	;# 
   359  0617                     	;# 
   360  0618                     	;# 
   361  0619                     	;# 
   362  061A                     	;# 
   363  061A                     	;# 
   364  061B                     	;# 
   365  061C                     	;# 
   366  068D                     	;# 
   367  068E                     	;# 
   368  068F                     	;# 
   369  0690                     	;# 
   370  0691                     	;# 
   371  0692                     	;# 
   372  0693                     	;# 
   373  0694                     	;# 
   374  0695                     	;# 
   375  0696                     	;# 
   376  0697                     	;# 
   377  0698                     	;# 
   378  0699                     	;# 
   379  069A                     	;# 
   380  069B                     	;# 
   381  069C                     	;# 
   382  069D                     	;# 
   383  069E                     	;# 
   384  069F                     	;# 
   385  070D                     	;# 
   386  070E                     	;# 
   387  070F                     	;# 
   388  0710                     	;# 
   389  0711                     	;# 
   390  0712                     	;# 
   391  0713                     	;# 
   392  0714                     	;# 
   393  0715                     	;# 
   394  0716                     	;# 
   395  0717                     	;# 
   396  0718                     	;# 
   397  0719                     	;# 
   398  071A                     	;# 
   399  071B                     	;# 
   400  071C                     	;# 
   401  071D                     	;# 
   402  071E                     	;# 
   403  071F                     	;# 
   404  078E                     	;# 
   405  078F                     	;# 
   406  0790                     	;# 
   407  0791                     	;# 
   408  0792                     	;# 
   409  0793                     	;# 
   410  0794                     	;# 
   411  0795                     	;# 
   412  0796                     	;# 
   413  0797                     	;# 
   414  0798                     	;# 
   415  0799                     	;# 
   416  079A                     	;# 
   417  079B                     	;# 
   418  079C                     	;# 
   419  079D                     	;# 
   420  079E                     	;# 
   421  079F                     	;# 
   422  080D                     	;# 
   423  080E                     	;# 
   424  080F                     	;# 
   425  0810                     	;# 
   426  0811                     	;# 
   427  0812                     	;# 
   428  0813                     	;# 
   429  0814                     	;# 
   430  0815                     	;# 
   431  0816                     	;# 
   432  0817                     	;# 
   433  0818                     	;# 
   434  0819                     	;# 
   435  081A                     	;# 
   436  081B                     	;# 
   437  081C                     	;# 
   438  081D                     	;# 
   439  081E                     	;# 
   440  081F                     	;# 
   441  090C                     	;# 
   442  090D                     	;# 
   443  090E                     	;# 
   444  090F                     	;# 
   445  0910                     	;# 
   446  0911                     	;# 
   447  0912                     	;# 
   448  0913                     	;# 
   449  0914                     	;# 
   450  0915                     	;# 
   451  0916                     	;# 
   452  0917                     	;# 
   453  0D8E                     	;# 
   454  0D8F                     	;# 
   455  0D90                     	;# 
   456  0D91                     	;# 
   457  0D91                     	;# 
   458  0D92                     	;# 
   459  0D93                     	;# 
   460  0D93                     	;# 
   461  0D94                     	;# 
   462  0D95                     	;# 
   463  0D95                     	;# 
   464  0D96                     	;# 
   465  0D97                     	;# 
   466  0D97                     	;# 
   467  0D98                     	;# 
   468  0D99                     	;# 
   469  0D99                     	;# 
   470  0D9A                     	;# 
   471  0D9B                     	;# 
   472  0D9C                     	;# 
   473  0D9C                     	;# 
   474  0D9D                     	;# 
   475  0D9D                     	;# 
   476  0D9E                     	;# 
   477  0D9F                     	;# 
   478  0DA0                     	;# 
   479  0DA1                     	;# 
   480  0DA1                     	;# 
   481  0DA2                     	;# 
   482  0DA3                     	;# 
   483  0DA3                     	;# 
   484  0DA4                     	;# 
   485  0DA5                     	;# 
   486  0DA5                     	;# 
   487  0DA6                     	;# 
   488  0DA7                     	;# 
   489  0DA7                     	;# 
   490  0DA8                     	;# 
   491  0DA9                     	;# 
   492  0DA9                     	;# 
   493  0DAA                     	;# 
   494  0DAB                     	;# 
   495  0DAC                     	;# 
   496  0DAC                     	;# 
   497  0DAD                     	;# 
   498  0DAD                     	;# 
   499  0DAE                     	;# 
   500  0DAF                     	;# 
   501  0DB0                     	;# 
   502  0DB1                     	;# 
   503  0DB1                     	;# 
   504  0DB2                     	;# 
   505  0DB3                     	;# 
   506  0DB3                     	;# 
   507  0DB4                     	;# 
   508  0DB5                     	;# 
   509  0DB5                     	;# 
   510  0DB6                     	;# 
   511  0DB7                     	;# 
   512  0DB7                     	;# 
   513  0DB8                     	;# 
   514  0DB9                     	;# 
   515  0DB9                     	;# 
   516  0DBA                     	;# 
   517  0DBB                     	;# 
   518  0DBC                     	;# 
   519  0DBC                     	;# 
   520  0DBD                     	;# 
   521  0DBD                     	;# 
   522  0DBE                     	;# 
   523  0DBF                     	;# 
   524  0DC0                     	;# 
   525  0E0C                     	;# 
   526  0E0D                     	;# 
   527  0E0E                     	;# 
   528  0E0F                     	;# 
   529  0E10                     	;# 
   530  0E11                     	;# 
   531  0E12                     	;# 
   532  0E13                     	;# 
   533  0E14                     	;# 
   534  0E15                     	;# 
   535  0E15                     	;# 
   536  0E15                     	;# 
   537  0E16                     	;# 
   538  0E16                     	;# 
   539  0E16                     	;# 
   540  0E17                     	;# 
   541  0E17                     	;# 
   542  0E17                     	;# 
   543  0E18                     	;# 
   544  0E18                     	;# 
   545  0E18                     	;# 
   546  0E19                     	;# 
   547  0E1A                     	;# 
   548  0E1B                     	;# 
   549  0E1D                     	;# 
   550  0E1E                     	;# 
   551  0E1F                     	;# 
   552  0E21                     	;# 
   553  0E22                     	;# 
   554  0E23                     	;# 
   555  0E24                     	;# 
   556  0E25                     	;# 
   557  0E26                     	;# 
   558  0E27                     	;# 
   559  0E28                     	;# 
   560  0E29                     	;# 
   561  0E2D                     	;# 
   562  0E2E                     	;# 
   563  0E2F                     	;# 
   564  0E30                     	;# 
   565  0E31                     	;# 
   566  0E32                     	;# 
   567  0E35                     	;# 
   568  0E36                     	;# 
   569  0E37                     	;# 
   570  0E38                     	;# 
   571  0E39                     	;# 
   572  0E3A                     	;# 
   573  0E3B                     	;# 
   574  0E3C                     	;# 
   575  0E3D                     	;# 
   576  0E3E                     	;# 
   577  0E90                     	;# 
   578  0E91                     	;# 
   579  0E92                     	;# 
   580  0E93                     	;# 
   581  0E94                     	;# 
   582  0E95                     	;# 
   583  0E96                     	;# 
   584  0E97                     	;# 
   585  0E98                     	;# 
   586  0E99                     	;# 
   587  0E9A                     	;# 
   588  0E9B                     	;# 
   589  0E9C                     	;# 
   590  0E9D                     	;# 
   591  0E9E                     	;# 
   592  0E9F                     	;# 
   593  0EA0                     	;# 
   594  0EA1                     	;# 
   595  0EA2                     	;# 
   596  0EA3                     	;# 
   597  0EA4                     	;# 
   598  0EA5                     	;# 
   599  0EA6                     	;# 
   600  0EA7                     	;# 
   601  0F0F                     	;# 
   602  0F10                     	;# 
   603  0F11                     	;# 
   604  0F12                     	;# 
   605  0F13                     	;# 
   606  0F14                     	;# 
   607  0F15                     	;# 
   608  0F16                     	;# 
   609  0F17                     	;# 
   610  0F18                     	;# 
   611  0F19                     	;# 
   612  0F1A                     	;# 
   613  0F1B                     	;# 
   614  0F1C                     	;# 
   615  0F1D                     	;# 
   616  0F1E                     	;# 
   617  0F1F                     	;# 
   618  0F20                     	;# 
   619  0F21                     	;# 
   620  0F22                     	;# 
   621  0F23                     	;# 
   622  0F24                     	;# 
   623  0F25                     	;# 
   624  0F26                     	;# 
   625  0F27                     	;# 
   626  0F28                     	;# 
   627  0F29                     	;# 
   628  0F2A                     	;# 
   629  0F2B                     	;# 
   630  0F2C                     	;# 
   631  0F2D                     	;# 
   632  0F2E                     	;# 
   633  0F2F                     	;# 
   634  0F30                     	;# 
   635  0F31                     	;# 
   636  0F32                     	;# 
   637  0F33                     	;# 
   638  0F34                     	;# 
   639  0F35                     	;# 
   640  0F36                     	;# 
   641  0F37                     	;# 
   642  0FE4                     	;# 
   643  0FE5                     	;# 
   644  0FE6                     	;# 
   645  0FE7                     	;# 
   646  0FE8                     	;# 
   647  0FE9                     	;# 
   648  0FEA                     	;# 
   649  0FEB                     	;# 
   650  0FED                     	;# 
   651  0FEE                     	;# 
   652  0FEF                     	;# 
   653  0000                     	;# 
   654  0001                     	;# 
   655  0002                     	;# 
   656  0003                     	;# 
   657  0004                     	;# 
   658  0005                     	;# 
   659  0006                     	;# 
   660  0007                     	;# 
   661  0008                     	;# 
   662  0009                     	;# 
   663  000A                     	;# 
   664  000B                     	;# 
   665  000C                     	;# 
   666  000D                     	;# 
   667  000E                     	;# 
   668  0010                     	;# 
   669  0011                     	;# 
   670  0012                     	;# 
   671  0013                     	;# 
   672  0014                     	;# 
   673  0015                     	;# 
   674  0016                     	;# 
   675  0017                     	;# 
   676  0018                     	;# 
   677  0018                     	;# 
   678  0019                     	;# 
   679  001A                     	;# 
   680  001B                     	;# 
   681  001C                     	;# 
   682  001C                     	;# 
   683  001D                     	;# 
   684  001E                     	;# 
   685  001F                     	;# 
   686  008C                     	;# 
   687  008D                     	;# 
   688  008E                     	;# 
   689  0090                     	;# 
   690  0091                     	;# 
   691  0092                     	;# 
   692  0093                     	;# 
   693  0094                     	;# 
   694  0095                     	;# 
   695  0096                     	;# 
   696  0097                     	;# 
   697  0098                     	;# 
   698  0099                     	;# 
   699  009A                     	;# 
   700  009B                     	;# 
   701  009C                     	;# 
   702  009D                     	;# 
   703  009E                     	;# 
   704  009F                     	;# 
   705  010C                     	;# 
   706  010D                     	;# 
   707  010E                     	;# 
   708  0111                     	;# 
   709  0112                     	;# 
   710  0113                     	;# 
   711  0114                     	;# 
   712  0115                     	;# 
   713  0116                     	;# 
   714  0117                     	;# 
   715  0118                     	;# 
   716  0119                     	;# 
   717  011A                     	;# 
   718  011B                     	;# 
   719  011C                     	;# 
   720  011D                     	;# 
   721  018C                     	;# 
   722  018D                     	;# 
   723  018E                     	;# 
   724  0191                     	;# 
   725  0191                     	;# 
   726  0192                     	;# 
   727  0193                     	;# 
   728  0193                     	;# 
   729  0194                     	;# 
   730  0195                     	;# 
   731  0196                     	;# 
   732  0197                     	;# 
   733  0199                     	;# 
   734  0199                     	;# 
   735  0199                     	;# 
   736  019A                     	;# 
   737  019A                     	;# 
   738  019A                     	;# 
   739  019B                     	;# 
   740  019B                     	;# 
   741  019B                     	;# 
   742  019B                     	;# 
   743  019B                     	;# 
   744  019C                     	;# 
   745  019C                     	;# 
   746  019C                     	;# 
   747  019D                     	;# 
   748  019D                     	;# 
   749  019D                     	;# 
   750  019E                     	;# 
   751  019E                     	;# 
   752  019E                     	;# 
   753  019F                     	;# 
   754  019F                     	;# 
   755  019F                     	;# 
   756  019F                     	;# 
   757  019F                     	;# 
   758  020C                     	;# 
   759  020D                     	;# 
   760  020E                     	;# 
   761  0210                     	;# 
   762  0211                     	;# 
   763  0211                     	;# 
   764  0212                     	;# 
   765  0212                     	;# 
   766  0213                     	;# 
   767  0213                     	;# 
   768  0214                     	;# 
   769  0214                     	;# 
   770  0215                     	;# 
   771  0215                     	;# 
   772  0215                     	;# 
   773  0215                     	;# 
   774  0216                     	;# 
   775  0216                     	;# 
   776  0217                     	;# 
   777  0217                     	;# 
   778  021B                     	;# 
   779  021C                     	;# 
   780  021D                     	;# 
   781  021E                     	;# 
   782  021F                     	;# 
   783  028C                     	;# 
   784  028D                     	;# 
   785  028E                     	;# 
   786  0291                     	;# 
   787  0291                     	;# 
   788  0292                     	;# 
   789  0293                     	;# 
   790  0294                     	;# 
   791  0295                     	;# 
   792  0295                     	;# 
   793  0296                     	;# 
   794  0297                     	;# 
   795  0298                     	;# 
   796  0299                     	;# 
   797  0299                     	;# 
   798  029A                     	;# 
   799  029B                     	;# 
   800  029C                     	;# 
   801  029E                     	;# 
   802  029F                     	;# 
   803  030C                     	;# 
   804  030D                     	;# 
   805  030E                     	;# 
   806  0315                     	;# 
   807  0316                     	;# 
   808  0317                     	;# 
   809  0318                     	;# 
   810  0319                     	;# 
   811  031B                     	;# 
   812  031C                     	;# 
   813  031D                     	;# 
   814  031E                     	;# 
   815  031F                     	;# 
   816  038C                     	;# 
   817  038D                     	;# 
   818  038E                     	;# 
   819  0390                     	;# 
   820  0391                     	;# 
   821  0392                     	;# 
   822  0393                     	;# 
   823  0394                     	;# 
   824  0395                     	;# 
   825  0396                     	;# 
   826  0397                     	;# 
   827  0398                     	;# 
   828  0399                     	;# 
   829  039D                     	;# 
   830  039E                     	;# 
   831  039F                     	;# 
   832  040D                     	;# 
   833  040F                     	;# 
   834  040F                     	;# 
   835  0410                     	;# 
   836  0411                     	;# 
   837  0412                     	;# 
   838  0413                     	;# 
   839  0413                     	;# 
   840  0414                     	;# 
   841  0414                     	;# 
   842  0415                     	;# 
   843  0416                     	;# 
   844  0417                     	;# 
   845  0418                     	;# 
   846  041A                     	;# 
   847  041A                     	;# 
   848  041B                     	;# 
   849  041B                     	;# 
   850  041C                     	;# 
   851  041D                     	;# 
   852  041E                     	;# 
   853  041F                     	;# 
   854  048E                     	;# 
   855  048E                     	;# 
   856  048F                     	;# 
   857  0490                     	;# 
   858  0491                     	;# 
   859  0492                     	;# 
   860  0493                     	;# 
   861  0493                     	;# 
   862  0494                     	;# 
   863  0494                     	;# 
   864  0495                     	;# 
   865  0496                     	;# 
   866  0497                     	;# 
   867  0498                     	;# 
   868  049A                     	;# 
   869  049A                     	;# 
   870  049B                     	;# 
   871  049B                     	;# 
   872  049C                     	;# 
   873  049D                     	;# 
   874  049E                     	;# 
   875  049F                     	;# 
   876  050F                     	;# 
   877  0510                     	;# 
   878  0511                     	;# 
   879  0512                     	;# 
   880  0513                     	;# 
   881  0514                     	;# 
   882  0515                     	;# 
   883  0516                     	;# 
   884  0517                     	;# 
   885  0518                     	;# 
   886  0519                     	;# 
   887  051A                     	;# 
   888  058D                     	;# 
   889  058E                     	;# 
   890  058F                     	;# 
   891  058F                     	;# 
   892  058F                     	;# 
   893  0590                     	;# 
   894  0590                     	;# 
   895  0591                     	;# 
   896  0592                     	;# 
   897  0592                     	;# 
   898  0592                     	;# 
   899  0593                     	;# 
   900  0593                     	;# 
   901  0594                     	;# 
   902  0595                     	;# 
   903  0595                     	;# 
   904  0596                     	;# 
   905  0597                     	;# 
   906  0597                     	;# 
   907  0598                     	;# 
   908  0599                     	;# 
   909  0599                     	;# 
   910  0599                     	;# 
   911  059A                     	;# 
   912  059A                     	;# 
   913  059E                     	;# 
   914  059F                     	;# 
   915  059F                     	;# 
   916  0614                     	;# 
   917  0614                     	;# 
   918  0615                     	;# 
   919  0616                     	;# 
   920  0617                     	;# 
   921  0617                     	;# 
   922  0618                     	;# 
   923  0619                     	;# 
   924  061A                     	;# 
   925  061A                     	;# 
   926  061B                     	;# 
   927  061C                     	;# 
   928  068D                     	;# 
   929  068E                     	;# 
   930  068F                     	;# 
   931  0690                     	;# 
   932  0691                     	;# 
   933  0692                     	;# 
   934  0693                     	;# 
   935  0694                     	;# 
   936  0695                     	;# 
   937  0696                     	;# 
   938  0697                     	;# 
   939  0698                     	;# 
   940  0699                     	;# 
   941  069A                     	;# 
   942  069B                     	;# 
   943  069C                     	;# 
   944  069D                     	;# 
   945  069E                     	;# 
   946  069F                     	;# 
   947  070D                     	;# 
   948  070E                     	;# 
   949  070F                     	;# 
   950  0710                     	;# 
   951  0711                     	;# 
   952  0712                     	;# 
   953  0713                     	;# 
   954  0714                     	;# 
   955  0715                     	;# 
   956  0716                     	;# 
   957  0717                     	;# 
   958  0718                     	;# 
   959  0719                     	;# 
   960  071A                     	;# 
   961  071B                     	;# 
   962  071C                     	;# 
   963  071D                     	;# 
   964  071E                     	;# 
   965  071F                     	;# 
   966  078E                     	;# 
   967  078F                     	;# 
   968  0790                     	;# 
   969  0791                     	;# 
   970  0792                     	;# 
   971  0793                     	;# 
   972  0794                     	;# 
   973  0795                     	;# 
   974  0796                     	;# 
   975  0797                     	;# 
   976  0798                     	;# 
   977  0799                     	;# 
   978  079A                     	;# 
   979  079B                     	;# 
   980  079C                     	;# 
   981  079D                     	;# 
   982  079E                     	;# 
   983  079F                     	;# 
   984  080D                     	;# 
   985  080E                     	;# 
   986  080F                     	;# 
   987  0810                     	;# 
   988  0811                     	;# 
   989  0812                     	;# 
   990  0813                     	;# 
   991  0814                     	;# 
   992  0815                     	;# 
   993  0816                     	;# 
   994  0817                     	;# 
   995  0818                     	;# 
   996  0819                     	;# 
   997  081A                     	;# 
   998  081B                     	;# 
   999  081C                     	;# 
  1000  081D                     	;# 
  1001  081E                     	;# 
  1002  081F                     	;# 
  1003  090C                     	;# 
  1004  090D                     	;# 
  1005  090E                     	;# 
  1006  090F                     	;# 
  1007  0910                     	;# 
  1008  0911                     	;# 
  1009  0912                     	;# 
  1010  0913                     	;# 
  1011  0914                     	;# 
  1012  0915                     	;# 
  1013  0916                     	;# 
  1014  0917                     	;# 
  1015  0D8E                     	;# 
  1016  0D8F                     	;# 
  1017  0D90                     	;# 
  1018  0D91                     	;# 
  1019  0D91                     	;# 
  1020  0D92                     	;# 
  1021  0D93                     	;# 
  1022  0D93                     	;# 
  1023  0D94                     	;# 
  1024  0D95                     	;# 
  1025  0D95                     	;# 
  1026  0D96                     	;# 
  1027  0D97                     	;# 
  1028  0D97                     	;# 
  1029  0D98                     	;# 
  1030  0D99                     	;# 
  1031  0D99                     	;# 
  1032  0D9A                     	;# 
  1033  0D9B                     	;# 
  1034  0D9C                     	;# 
  1035  0D9C                     	;# 
  1036  0D9D                     	;# 
  1037  0D9D                     	;# 
  1038  0D9E                     	;# 
  1039  0D9F                     	;# 
  1040  0DA0                     	;# 
  1041  0DA1                     	;# 
  1042  0DA1                     	;# 
  1043  0DA2                     	;# 
  1044  0DA3                     	;# 
  1045  0DA3                     	;# 
  1046  0DA4                     	;# 
  1047  0DA5                     	;# 
  1048  0DA5                     	;# 
  1049  0DA6                     	;# 
  1050  0DA7                     	;# 
  1051  0DA7                     	;# 
  1052  0DA8                     	;# 
  1053  0DA9                     	;# 
  1054  0DA9                     	;# 
  1055  0DAA                     	;# 
  1056  0DAB                     	;# 
  1057  0DAC                     	;# 
  1058  0DAC                     	;# 
  1059  0DAD                     	;# 
  1060  0DAD                     	;# 
  1061  0DAE                     	;# 
  1062  0DAF                     	;# 
  1063  0DB0                     	;# 
  1064  0DB1                     	;# 
  1065  0DB1                     	;# 
  1066  0DB2                     	;# 
  1067  0DB3                     	;# 
  1068  0DB3                     	;# 
  1069  0DB4                     	;# 
  1070  0DB5                     	;# 
  1071  0DB5                     	;# 
  1072  0DB6                     	;# 
  1073  0DB7                     	;# 
  1074  0DB7                     	;# 
  1075  0DB8                     	;# 
  1076  0DB9                     	;# 
  1077  0DB9                     	;# 
  1078  0DBA                     	;# 
  1079  0DBB                     	;# 
  1080  0DBC                     	;# 
  1081  0DBC                     	;# 
  1082  0DBD                     	;# 
  1083  0DBD                     	;# 
  1084  0DBE                     	;# 
  1085  0DBF                     	;# 
  1086  0DC0                     	;# 
  1087  0E0C                     	;# 
  1088  0E0D                     	;# 
  1089  0E0E                     	;# 
  1090  0E0F                     	;# 
  1091  0E10                     	;# 
  1092  0E11                     	;# 
  1093  0E12                     	;# 
  1094  0E13                     	;# 
  1095  0E14                     	;# 
  1096  0E15                     	;# 
  1097  0E15                     	;# 
  1098  0E15                     	;# 
  1099  0E16                     	;# 
  1100  0E16                     	;# 
  1101  0E16                     	;# 
  1102  0E17                     	;# 
  1103  0E17                     	;# 
  1104  0E17                     	;# 
  1105  0E18                     	;# 
  1106  0E18                     	;# 
  1107  0E18                     	;# 
  1108  0E19                     	;# 
  1109  0E1A                     	;# 
  1110  0E1B                     	;# 
  1111  0E1D                     	;# 
  1112  0E1E                     	;# 
  1113  0E1F                     	;# 
  1114  0E21                     	;# 
  1115  0E22                     	;# 
  1116  0E23                     	;# 
  1117  0E24                     	;# 
  1118  0E25                     	;# 
  1119  0E26                     	;# 
  1120  0E27                     	;# 
  1121  0E28                     	;# 
  1122  0E29                     	;# 
  1123  0E2D                     	;# 
  1124  0E2E                     	;# 
  1125  0E2F                     	;# 
  1126  0E30                     	;# 
  1127  0E31                     	;# 
  1128  0E32                     	;# 
  1129  0E35                     	;# 
  1130  0E36                     	;# 
  1131  0E37                     	;# 
  1132  0E38                     	;# 
  1133  0E39                     	;# 
  1134  0E3A                     	;# 
  1135  0E3B                     	;# 
  1136  0E3C                     	;# 
  1137  0E3D                     	;# 
  1138  0E3E                     	;# 
  1139  0E90                     	;# 
  1140  0E91                     	;# 
  1141  0E92                     	;# 
  1142  0E93                     	;# 
  1143  0E94                     	;# 
  1144  0E95                     	;# 
  1145  0E96                     	;# 
  1146  0E97                     	;# 
  1147  0E98                     	;# 
  1148  0E99                     	;# 
  1149  0E9A                     	;# 
  1150  0E9B                     	;# 
  1151  0E9C                     	;# 
  1152  0E9D                     	;# 
  1153  0E9E                     	;# 
  1154  0E9F                     	;# 
  1155  0EA0                     	;# 
  1156  0EA1                     	;# 
  1157  0EA2                     	;# 
  1158  0EA3                     	;# 
  1159  0EA4                     	;# 
  1160  0EA5                     	;# 
  1161  0EA6                     	;# 
  1162  0EA7                     	;# 
  1163  0F0F                     	;# 
  1164  0F10                     	;# 
  1165  0F11                     	;# 
  1166  0F12                     	;# 
  1167  0F13                     	;# 
  1168  0F14                     	;# 
  1169  0F15                     	;# 
  1170  0F16                     	;# 
  1171  0F17                     	;# 
  1172  0F18                     	;# 
  1173  0F19                     	;# 
  1174  0F1A                     	;# 
  1175  0F1B                     	;# 
  1176  0F1C                     	;# 
  1177  0F1D                     	;# 
  1178  0F1E                     	;# 
  1179  0F1F                     	;# 
  1180  0F20                     	;# 
  1181  0F21                     	;# 
  1182  0F22                     	;# 
  1183  0F23                     	;# 
  1184  0F24                     	;# 
  1185  0F25                     	;# 
  1186  0F26                     	;# 
  1187  0F27                     	;# 
  1188  0F28                     	;# 
  1189  0F29                     	;# 
  1190  0F2A                     	;# 
  1191  0F2B                     	;# 
  1192  0F2C                     	;# 
  1193  0F2D                     	;# 
  1194  0F2E                     	;# 
  1195  0F2F                     	;# 
  1196  0F30                     	;# 
  1197  0F31                     	;# 
  1198  0F32                     	;# 
  1199  0F33                     	;# 
  1200  0F34                     	;# 
  1201  0F35                     	;# 
  1202  0F36                     	;# 
  1203  0F37                     	;# 
  1204  0FE4                     	;# 
  1205  0FE5                     	;# 
  1206  0FE6                     	;# 
  1207  0FE7                     	;# 
  1208  0FE8                     	;# 
  1209  0FE9                     	;# 
  1210  0FEA                     	;# 
  1211  0FEB                     	;# 
  1212  0FED                     	;# 
  1213  0FEE                     	;# 
  1214  0FEF                     	;# 
  1215  0000                     	;# 
  1216  0001                     	;# 
  1217  0002                     	;# 
  1218  0003                     	;# 
  1219  0004                     	;# 
  1220  0005                     	;# 
  1221  0006                     	;# 
  1222  0007                     	;# 
  1223  0008                     	;# 
  1224  0009                     	;# 
  1225  000A                     	;# 
  1226  000B                     	;# 
  1227  000C                     	;# 
  1228  000D                     	;# 
  1229  000E                     	;# 
  1230  0010                     	;# 
  1231  0011                     	;# 
  1232  0012                     	;# 
  1233  0013                     	;# 
  1234  0014                     	;# 
  1235  0015                     	;# 
  1236  0016                     	;# 
  1237  0017                     	;# 
  1238  0018                     	;# 
  1239  0018                     	;# 
  1240  0019                     	;# 
  1241  001A                     	;# 
  1242  001B                     	;# 
  1243  001C                     	;# 
  1244  001C                     	;# 
  1245  001D                     	;# 
  1246  001E                     	;# 
  1247  001F                     	;# 
  1248  008C                     	;# 
  1249  008D                     	;# 
  1250  008E                     	;# 
  1251  0090                     	;# 
  1252  0091                     	;# 
  1253  0092                     	;# 
  1254  0093                     	;# 
  1255  0094                     	;# 
  1256  0095                     	;# 
  1257  0096                     	;# 
  1258  0097                     	;# 
  1259  0098                     	;# 
  1260  0099                     	;# 
  1261  009A                     	;# 
  1262  009B                     	;# 
  1263  009C                     	;# 
  1264  009D                     	;# 
  1265  009E                     	;# 
  1266  009F                     	;# 
  1267  010C                     	;# 
  1268  010D                     	;# 
  1269  010E                     	;# 
  1270  0111                     	;# 
  1271  0112                     	;# 
  1272  0113                     	;# 
  1273  0114                     	;# 
  1274  0115                     	;# 
  1275  0116                     	;# 
  1276  0117                     	;# 
  1277  0118                     	;# 
  1278  0119                     	;# 
  1279  011A                     	;# 
  1280  011B                     	;# 
  1281  011C                     	;# 
  1282  011D                     	;# 
  1283  018C                     	;# 
  1284  018D                     	;# 
  1285  018E                     	;# 
  1286  0191                     	;# 
  1287  0191                     	;# 
  1288  0192                     	;# 
  1289  0193                     	;# 
  1290  0193                     	;# 
  1291  0194                     	;# 
  1292  0195                     	;# 
  1293  0196                     	;# 
  1294  0197                     	;# 
  1295  0199                     	;# 
  1296  0199                     	;# 
  1297  0199                     	;# 
  1298  019A                     	;# 
  1299  019A                     	;# 
  1300  019A                     	;# 
  1301  019B                     	;# 
  1302  019B                     	;# 
  1303  019B                     	;# 
  1304  019B                     	;# 
  1305  019B                     	;# 
  1306  019C                     	;# 
  1307  019C                     	;# 
  1308  019C                     	;# 
  1309  019D                     	;# 
  1310  019D                     	;# 
  1311  019D                     	;# 
  1312  019E                     	;# 
  1313  019E                     	;# 
  1314  019E                     	;# 
  1315  019F                     	;# 
  1316  019F                     	;# 
  1317  019F                     	;# 
  1318  019F                     	;# 
  1319  019F                     	;# 
  1320  020C                     	;# 
  1321  020D                     	;# 
  1322  020E                     	;# 
  1323  0210                     	;# 
  1324  0211                     	;# 
  1325  0211                     	;# 
  1326  0212                     	;# 
  1327  0212                     	;# 
  1328  0213                     	;# 
  1329  0213                     	;# 
  1330  0214                     	;# 
  1331  0214                     	;# 
  1332  0215                     	;# 
  1333  0215                     	;# 
  1334  0215                     	;# 
  1335  0215                     	;# 
  1336  0216                     	;# 
  1337  0216                     	;# 
  1338  0217                     	;# 
  1339  0217                     	;# 
  1340  021B                     	;# 
  1341  021C                     	;# 
  1342  021D                     	;# 
  1343  021E                     	;# 
  1344  021F                     	;# 
  1345  028C                     	;# 
  1346  028D                     	;# 
  1347  028E                     	;# 
  1348  0291                     	;# 
  1349  0291                     	;# 
  1350  0292                     	;# 
  1351  0293                     	;# 
  1352  0294                     	;# 
  1353  0295                     	;# 
  1354  0295                     	;# 
  1355  0296                     	;# 
  1356  0297                     	;# 
  1357  0298                     	;# 
  1358  0299                     	;# 
  1359  0299                     	;# 
  1360  029A                     	;# 
  1361  029B                     	;# 
  1362  029C                     	;# 
  1363  029E                     	;# 
  1364  029F                     	;# 
  1365  030C                     	;# 
  1366  030D                     	;# 
  1367  030E                     	;# 
  1368  0315                     	;# 
  1369  0316                     	;# 
  1370  0317                     	;# 
  1371  0318                     	;# 
  1372  0319                     	;# 
  1373  031B                     	;# 
  1374  031C                     	;# 
  1375  031D                     	;# 
  1376  031E                     	;# 
  1377  031F                     	;# 
  1378  038C                     	;# 
  1379  038D                     	;# 
  1380  038E                     	;# 
  1381  0390                     	;# 
  1382  0391                     	;# 
  1383  0392                     	;# 
  1384  0393                     	;# 
  1385  0394                     	;# 
  1386  0395                     	;# 
  1387  0396                     	;# 
  1388  0397                     	;# 
  1389  0398                     	;# 
  1390  0399                     	;# 
  1391  039D                     	;# 
  1392  039E                     	;# 
  1393  039F                     	;# 
  1394  040D                     	;# 
  1395  040F                     	;# 
  1396  040F                     	;# 
  1397  0410                     	;# 
  1398  0411                     	;# 
  1399  0412                     	;# 
  1400  0413                     	;# 
  1401  0413                     	;# 
  1402  0414                     	;# 
  1403  0414                     	;# 
  1404  0415                     	;# 
  1405  0416                     	;# 
  1406  0417                     	;# 
  1407  0418                     	;# 
  1408  041A                     	;# 
  1409  041A                     	;# 
  1410  041B                     	;# 
  1411  041B                     	;# 
  1412  041C                     	;# 
  1413  041D                     	;# 
  1414  041E                     	;# 
  1415  041F                     	;# 
  1416  048E                     	;# 
  1417  048E                     	;# 
  1418  048F                     	;# 
  1419  0490                     	;# 
  1420  0491                     	;# 
  1421  0492                     	;# 
  1422  0493                     	;# 
  1423  0493                     	;# 
  1424  0494                     	;# 
  1425  0494                     	;# 
  1426  0495                     	;# 
  1427  0496                     	;# 
  1428  0497                     	;# 
  1429  0498                     	;# 
  1430  049A                     	;# 
  1431  049A                     	;# 
  1432  049B                     	;# 
  1433  049B                     	;# 
  1434  049C                     	;# 
  1435  049D                     	;# 
  1436  049E                     	;# 
  1437  049F                     	;# 
  1438  050F                     	;# 
  1439  0510                     	;# 
  1440  0511                     	;# 
  1441  0512                     	;# 
  1442  0513                     	;# 
  1443  0514                     	;# 
  1444  0515                     	;# 
  1445  0516                     	;# 
  1446  0517                     	;# 
  1447  0518                     	;# 
  1448  0519                     	;# 
  1449  051A                     	;# 
  1450  058D                     	;# 
  1451  058E                     	;# 
  1452  058F                     	;# 
  1453  058F                     	;# 
  1454  058F                     	;# 
  1455  0590                     	;# 
  1456  0590                     	;# 
  1457  0591                     	;# 
  1458  0592                     	;# 
  1459  0592                     	;# 
  1460  0592                     	;# 
  1461  0593                     	;# 
  1462  0593                     	;# 
  1463  0594                     	;# 
  1464  0595                     	;# 
  1465  0595                     	;# 
  1466  0596                     	;# 
  1467  0597                     	;# 
  1468  0597                     	;# 
  1469  0598                     	;# 
  1470  0599                     	;# 
  1471  0599                     	;# 
  1472  0599                     	;# 
  1473  059A                     	;# 
  1474  059A                     	;# 
  1475  059E                     	;# 
  1476  059F                     	;# 
  1477  059F                     	;# 
  1478  0614                     	;# 
  1479  0614                     	;# 
  1480  0615                     	;# 
  1481  0616                     	;# 
  1482  0617                     	;# 
  1483  0617                     	;# 
  1484  0618                     	;# 
  1485  0619                     	;# 
  1486  061A                     	;# 
  1487  061A                     	;# 
  1488  061B                     	;# 
  1489  061C                     	;# 
  1490  068D                     	;# 
  1491  068E                     	;# 
  1492  068F                     	;# 
  1493  0690                     	;# 
  1494  0691                     	;# 
  1495  0692                     	;# 
  1496  0693                     	;# 
  1497  0694                     	;# 
  1498  0695                     	;# 
  1499  0696                     	;# 
  1500  0697                     	;# 
  1501  0698                     	;# 
  1502  0699                     	;# 
  1503  069A                     	;# 
  1504  069B                     	;# 
  1505  069C                     	;# 
  1506  069D                     	;# 
  1507  069E                     	;# 
  1508  069F                     	;# 
  1509  070D                     	;# 
  1510  070E                     	;# 
  1511  070F                     	;# 
  1512  0710                     	;# 
  1513  0711                     	;# 
  1514  0712                     	;# 
  1515  0713                     	;# 
  1516  0714                     	;# 
  1517  0715                     	;# 
  1518  0716                     	;# 
  1519  0717                     	;# 
  1520  0718                     	;# 
  1521  0719                     	;# 
  1522  071A                     	;# 
  1523  071B                     	;# 
  1524  071C                     	;# 
  1525  071D                     	;# 
  1526  071E                     	;# 
  1527  071F                     	;# 
  1528  078E                     	;# 
  1529  078F                     	;# 
  1530  0790                     	;# 
  1531  0791                     	;# 
  1532  0792                     	;# 
  1533  0793                     	;# 
  1534  0794                     	;# 
  1535  0795                     	;# 
  1536  0796                     	;# 
  1537  0797                     	;# 
  1538  0798                     	;# 
  1539  0799                     	;# 
  1540  079A                     	;# 
  1541  079B                     	;# 
  1542  079C                     	;# 
  1543  079D                     	;# 
  1544  079E                     	;# 
  1545  079F                     	;# 
  1546  080D                     	;# 
  1547  080E                     	;# 
  1548  080F                     	;# 
  1549  0810                     	;# 
  1550  0811                     	;# 
  1551  0812                     	;# 
  1552  0813                     	;# 
  1553  0814                     	;# 
  1554  0815                     	;# 
  1555  0816                     	;# 
  1556  0817                     	;# 
  1557  0818                     	;# 
  1558  0819                     	;# 
  1559  081A                     	;# 
  1560  081B                     	;# 
  1561  081C                     	;# 
  1562  081D                     	;# 
  1563  081E                     	;# 
  1564  081F                     	;# 
  1565  090C                     	;# 
  1566  090D                     	;# 
  1567  090E                     	;# 
  1568  090F                     	;# 
  1569  0910                     	;# 
  1570  0911                     	;# 
  1571  0912                     	;# 
  1572  0913                     	;# 
  1573  0914                     	;# 
  1574  0915                     	;# 
  1575  0916                     	;# 
  1576  0917                     	;# 
  1577  0D8E                     	;# 
  1578  0D8F                     	;# 
  1579  0D90                     	;# 
  1580  0D91                     	;# 
  1581  0D91                     	;# 
  1582  0D92                     	;# 
  1583  0D93                     	;# 
  1584  0D93                     	;# 
  1585  0D94                     	;# 
  1586  0D95                     	;# 
  1587  0D95                     	;# 
  1588  0D96                     	;# 
  1589  0D97                     	;# 
  1590  0D97                     	;# 
  1591  0D98                     	;# 
  1592  0D99                     	;# 
  1593  0D99                     	;# 
  1594  0D9A                     	;# 
  1595  0D9B                     	;# 
  1596  0D9C                     	;# 
  1597  0D9C                     	;# 
  1598  0D9D                     	;# 
  1599  0D9D                     	;# 
  1600  0D9E                     	;# 
  1601  0D9F                     	;# 
  1602  0DA0                     	;# 
  1603  0DA1                     	;# 
  1604  0DA1                     	;# 
  1605  0DA2                     	;# 
  1606  0DA3                     	;# 
  1607  0DA3                     	;# 
  1608  0DA4                     	;# 
  1609  0DA5                     	;# 
  1610  0DA5                     	;# 
  1611  0DA6                     	;# 
  1612  0DA7                     	;# 
  1613  0DA7                     	;# 
  1614  0DA8                     	;# 
  1615  0DA9                     	;# 
  1616  0DA9                     	;# 
  1617  0DAA                     	;# 
  1618  0DAB                     	;# 
  1619  0DAC                     	;# 
  1620  0DAC                     	;# 
  1621  0DAD                     	;# 
  1622  0DAD                     	;# 
  1623  0DAE                     	;# 
  1624  0DAF                     	;# 
  1625  0DB0                     	;# 
  1626  0DB1                     	;# 
  1627  0DB1                     	;# 
  1628  0DB2                     	;# 
  1629  0DB3                     	;# 
  1630  0DB3                     	;# 
  1631  0DB4                     	;# 
  1632  0DB5                     	;# 
  1633  0DB5                     	;# 
  1634  0DB6                     	;# 
  1635  0DB7                     	;# 
  1636  0DB7                     	;# 
  1637  0DB8                     	;# 
  1638  0DB9                     	;# 
  1639  0DB9                     	;# 
  1640  0DBA                     	;# 
  1641  0DBB                     	;# 
  1642  0DBC                     	;# 
  1643  0DBC                     	;# 
  1644  0DBD                     	;# 
  1645  0DBD                     	;# 
  1646  0DBE                     	;# 
  1647  0DBF                     	;# 
  1648  0DC0                     	;# 
  1649  0E0C                     	;# 
  1650  0E0D                     	;# 
  1651  0E0E                     	;# 
  1652  0E0F                     	;# 
  1653  0E10                     	;# 
  1654  0E11                     	;# 
  1655  0E12                     	;# 
  1656  0E13                     	;# 
  1657  0E14                     	;# 
  1658  0E15                     	;# 
  1659  0E15                     	;# 
  1660  0E15                     	;# 
  1661  0E16                     	;# 
  1662  0E16                     	;# 
  1663  0E16                     	;# 
  1664  0E17                     	;# 
  1665  0E17                     	;# 
  1666  0E17                     	;# 
  1667  0E18                     	;# 
  1668  0E18                     	;# 
  1669  0E18                     	;# 
  1670  0E19                     	;# 
  1671  0E1A                     	;# 
  1672  0E1B                     	;# 
  1673  0E1D                     	;# 
  1674  0E1E                     	;# 
  1675  0E1F                     	;# 
  1676  0E21                     	;# 
  1677  0E22                     	;# 
  1678  0E23                     	;# 
  1679  0E24                     	;# 
  1680  0E25                     	;# 
  1681  0E26                     	;# 
  1682  0E27                     	;# 
  1683  0E28                     	;# 
  1684  0E29                     	;# 
  1685  0E2D                     	;# 
  1686  0E2E                     	;# 
  1687  0E2F                     	;# 
  1688  0E30                     	;# 
  1689  0E31                     	;# 
  1690  0E32                     	;# 
  1691  0E35                     	;# 
  1692  0E36                     	;# 
  1693  0E37                     	;# 
  1694  0E38                     	;# 
  1695  0E39                     	;# 
  1696  0E3A                     	;# 
  1697  0E3B                     	;# 
  1698  0E3C                     	;# 
  1699  0E3D                     	;# 
  1700  0E3E                     	;# 
  1701  0E90                     	;# 
  1702  0E91                     	;# 
  1703  0E92                     	;# 
  1704  0E93                     	;# 
  1705  0E94                     	;# 
  1706  0E95                     	;# 
  1707  0E96                     	;# 
  1708  0E97                     	;# 
  1709  0E98                     	;# 
  1710  0E99                     	;# 
  1711  0E9A                     	;# 
  1712  0E9B                     	;# 
  1713  0E9C                     	;# 
  1714  0E9D                     	;# 
  1715  0E9E                     	;# 
  1716  0E9F                     	;# 
  1717  0EA0                     	;# 
  1718  0EA1                     	;# 
  1719  0EA2                     	;# 
  1720  0EA3                     	;# 
  1721  0EA4                     	;# 
  1722  0EA5                     	;# 
  1723  0EA6                     	;# 
  1724  0EA7                     	;# 
  1725  0F0F                     	;# 
  1726  0F10                     	;# 
  1727  0F11                     	;# 
  1728  0F12                     	;# 
  1729  0F13                     	;# 
  1730  0F14                     	;# 
  1731  0F15                     	;# 
  1732  0F16                     	;# 
  1733  0F17                     	;# 
  1734  0F18                     	;# 
  1735  0F19                     	;# 
  1736  0F1A                     	;# 
  1737  0F1B                     	;# 
  1738  0F1C                     	;# 
  1739  0F1D                     	;# 
  1740  0F1E                     	;# 
  1741  0F1F                     	;# 
  1742  0F20                     	;# 
  1743  0F21                     	;# 
  1744  0F22                     	;# 
  1745  0F23                     	;# 
  1746  0F24                     	;# 
  1747  0F25                     	;# 
  1748  0F26                     	;# 
  1749  0F27                     	;# 
  1750  0F28                     	;# 
  1751  0F29                     	;# 
  1752  0F2A                     	;# 
  1753  0F2B                     	;# 
  1754  0F2C                     	;# 
  1755  0F2D                     	;# 
  1756  0F2E                     	;# 
  1757  0F2F                     	;# 
  1758  0F30                     	;# 
  1759  0F31                     	;# 
  1760  0F32                     	;# 
  1761  0F33                     	;# 
  1762  0F34                     	;# 
  1763  0F35                     	;# 
  1764  0F36                     	;# 
  1765  0F37                     	;# 
  1766  0FE4                     	;# 
  1767  0FE5                     	;# 
  1768  0FE6                     	;# 
  1769  0FE7                     	;# 
  1770  0FE8                     	;# 
  1771  0FE9                     	;# 
  1772  0FEA                     	;# 
  1773  0FEB                     	;# 
  1774  0FED                     	;# 
  1775  0FEE                     	;# 
  1776  0FEF                     	;_GLBL_ReadBuffer
  1777                           
  1778                           	psect	idataBANK0
  1779  0FEB                     __pidataBANK0:	
  1780                           
  1781                           ;initializer for _GLBL_Resp40
  1782  0FEB  34FF               	retlw	255
  1783  0FEC  34FF               	retlw	255
  1784  0FED  34FF               	retlw	255
  1785  0FEE  34FF               	retlw	255
  1786  0FEF  34FF               	retlw	255
  1787                           
  1788                           ;initializer for _G_u16min
  1789  0FF0  3417               	retlw	23
  1790  0FF1  3400               	retlw	0
  1791                           
  1792                           ;initializer for _G_u16hour
  1793  0FF2  3409               	retlw	9
  1794  0FF3  3400               	retlw	0
  1795                           
  1796                           ;initializer for _GLBL_Resp8
  1797  0FF4  34FF               	retlw	255
  1798                           
  1799                           	psect	idataBANK1
  1800  0167                     __pidataBANK1:	
  1801                           
  1802                           ;initializer for _G_au16startAddresses
  1803  0167  3400               	retlw	0
  1804  0168  3400               	retlw	0
  1805  0169  3417               	retlw	23
  1806  016A  3400               	retlw	0
  1807  016B  3436               	retlw	54
  1808  016C  3400               	retlw	0
  1809  016D  345A               	retlw	90
  1810  016E  3400               	retlw	0
  1811  016F  347C               	retlw	124
  1812  0170  3400               	retlw	0
  1813  0171  34B0               	retlw	176
  1814  0172  3403               	retlw	3
  1815  0173  34AE               	retlw	174
  1816  0174  3400               	retlw	0
  1817  0175  34C2               	retlw	194
  1818  0176  3400               	retlw	0
  1819  0177  34D8               	retlw	216
  1820  0178  3400               	retlw	0
  1821  0179  34FC               	retlw	252
  1822  017A  3400               	retlw	0
  1823  017B  340C               	retlw	12
  1824  017C  3401               	retlw	1
  1825  017D  3422               	retlw	34
  1826  017E  3401               	retlw	1
  1827  017F  344F               	retlw	79
  1828  0180  3401               	retlw	1
  1829  0181  3468               	retlw	104
  1830  0182  3401               	retlw	1
  1831  0183  348C               	retlw	140
  1832  0184  3401               	retlw	1
  1833  0185  34AC               	retlw	172
  1834  0186  3401               	retlw	1
  1835  0187  34C1               	retlw	193
  1836  0188  3401               	retlw	1
  1837  0189  34DC               	retlw	220
  1838  018A  3401               	retlw	1
  1839  018B  34F7               	retlw	247
  1840  018C  3401               	retlw	1
  1841  018D  3415               	retlw	21
  1842  018E  3402               	retlw	2
  1843  018F  3434               	retlw	52
  1844  0190  3402               	retlw	2
  1845  0191  3450               	retlw	80
  1846  0192  3402               	retlw	2
  1847  0193  346F               	retlw	111
  1848  0194  3402               	retlw	2
  1849  0195  3489               	retlw	137
  1850  0196  3402               	retlw	2
  1851  0197  349C               	retlw	156
  1852  0198  3402               	retlw	2
  1853  0199  34C1               	retlw	193
  1854  019A  3402               	retlw	2
  1855  019B  34D6               	retlw	214
  1856  019C  3402               	retlw	2
  1857  019D  34FD               	retlw	253
  1858  019E  3402               	retlw	2
  1859  019F  3419               	retlw	25
  1860  01A0  3403               	retlw	3
  1861  01A1  343A               	retlw	58
  1862  01A2  3403               	retlw	3
  1863  01A3  344E               	retlw	78
  1864  01A4  3403               	retlw	3
  1865  01A5  3460               	retlw	96
  1866  01A6  3403               	retlw	3
  1867  01A7  3484               	retlw	132
  1868  01A8  3403               	retlw	3
  1869  01A9  349C               	retlw	156
  1870  01AA  3403               	retlw	3
  1871                           
  1872                           	psect	idataBANK2
  1873  0123                     __pidataBANK2:	
  1874                           
  1875                           ;initializer for _G_au16endAddresses
  1876  0123  3417               	retlw	23
  1877  0124  3400               	retlw	0
  1878  0125  3436               	retlw	54
  1879  0126  3400               	retlw	0
  1880  0127  345A               	retlw	90
  1881  0128  3400               	retlw	0
  1882  0129  347C               	retlw	124
  1883  012A  3400               	retlw	0
  1884  012B  34A0               	retlw	160
  1885  012C  3400               	retlw	0
  1886  012D  34CB               	retlw	203
  1887  012E  3403               	retlw	3
  1888  012F  34C2               	retlw	194
  1889  0130  3400               	retlw	0
  1890  0131  34D8               	retlw	216
  1891  0132  3400               	retlw	0
  1892  0133  34FC               	retlw	252
  1893  0134  3400               	retlw	0
  1894  0135  340C               	retlw	12
  1895  0136  3401               	retlw	1
  1896  0137  3422               	retlw	34
  1897  0138  3401               	retlw	1
  1898  0139  344F               	retlw	79
  1899  013A  3401               	retlw	1
  1900  013B  3468               	retlw	104
  1901  013C  3401               	retlw	1
  1902  013D  348C               	retlw	140
  1903  013E  3401               	retlw	1
  1904  013F  34AC               	retlw	172
  1905  0140  3401               	retlw	1
  1906  0141  34C1               	retlw	193
  1907  0142  3401               	retlw	1
  1908  0143  34DC               	retlw	220
  1909  0144  3401               	retlw	1
  1910  0145  34F7               	retlw	247
  1911  0146  3401               	retlw	1
  1912  0147  3415               	retlw	21
  1913  0148  3402               	retlw	2
  1914  0149  3434               	retlw	52
  1915  014A  3402               	retlw	2
  1916  014B  3450               	retlw	80
  1917  014C  3402               	retlw	2
  1918  014D  346F               	retlw	111
  1919  014E  3402               	retlw	2
  1920  014F  3489               	retlw	137
  1921  0150  3402               	retlw	2
  1922  0151  349C               	retlw	156
  1923  0152  3402               	retlw	2
  1924  0153  34C1               	retlw	193
  1925  0154  3402               	retlw	2
  1926  0155  34D6               	retlw	214
  1927  0156  3402               	retlw	2
  1928  0157  34FD               	retlw	253
  1929  0158  3402               	retlw	2
  1930  0159  3419               	retlw	25
  1931  015A  3403               	retlw	3
  1932  015B  343A               	retlw	58
  1933  015C  3403               	retlw	3
  1934  015D  344E               	retlw	78
  1935  015E  3403               	retlw	3
  1936  015F  3460               	retlw	96
  1937  0160  3403               	retlw	3
  1938  0161  3484               	retlw	132
  1939  0162  3403               	retlw	3
  1940  0163  349C               	retlw	156
  1941  0164  3403               	retlw	3
  1942  0165  34B0               	retlw	176
  1943  0166  3403               	retlw	3
  1944                           
  1945                           	psect	stringtext1
  1946  0800                     __pstringtext1:	
  1947  0800                     _CRCTable:	
  1948  0800  3400               	retlw	0
  1949  0801  3409               	retlw	9
  1950  0802  3412               	retlw	18
  1951  0803  341B               	retlw	27
  1952  0804  3424               	retlw	36
  1953  0805  342D               	retlw	45
  1954  0806  3436               	retlw	54
  1955  0807  343F               	retlw	63
  1956  0808  3448               	retlw	72
  1957  0809  3441               	retlw	65
  1958  080A  345A               	retlw	90
  1959  080B  3453               	retlw	83
  1960  080C  346C               	retlw	108
  1961  080D  3465               	retlw	101
  1962  080E  347E               	retlw	126
  1963  080F  3477               	retlw	119
  1964  0810  3419               	retlw	25
  1965  0811  3410               	retlw	16
  1966  0812  340B               	retlw	11
  1967  0813  3402               	retlw	2
  1968  0814  343D               	retlw	61
  1969  0815  3434               	retlw	52
  1970  0816  342F               	retlw	47
  1971  0817  3426               	retlw	38
  1972  0818  3451               	retlw	81
  1973  0819  3458               	retlw	88
  1974  081A  3443               	retlw	67
  1975  081B  344A               	retlw	74
  1976  081C  3475               	retlw	117
  1977  081D  347C               	retlw	124
  1978  081E  3467               	retlw	103
  1979  081F  346E               	retlw	110
  1980  0820  3432               	retlw	50
  1981  0821  343B               	retlw	59
  1982  0822  3420               	retlw	32
  1983  0823  3429               	retlw	41
  1984  0824  3416               	retlw	22
  1985  0825  341F               	retlw	31
  1986  0826  3404               	retlw	4
  1987  0827  340D               	retlw	13
  1988  0828  347A               	retlw	122
  1989  0829  3473               	retlw	115
  1990  082A  3468               	retlw	104
  1991  082B  3461               	retlw	97
  1992  082C  345E               	retlw	94
  1993  082D  3457               	retlw	87
  1994  082E  344C               	retlw	76
  1995  082F  3445               	retlw	69
  1996  0830  342B               	retlw	43
  1997  0831  3422               	retlw	34
  1998  0832  3439               	retlw	57
  1999  0833  3430               	retlw	48
  2000  0834  340F               	retlw	15
  2001  0835  3406               	retlw	6
  2002  0836  341D               	retlw	29
  2003  0837  3414               	retlw	20
  2004  0838  3463               	retlw	99
  2005  0839  346A               	retlw	106
  2006  083A  3471               	retlw	113
  2007  083B  3478               	retlw	120
  2008  083C  3447               	retlw	71
  2009  083D  344E               	retlw	78
  2010  083E  3455               	retlw	85
  2011  083F  345C               	retlw	92
  2012  0840  3464               	retlw	100
  2013  0841  346D               	retlw	109
  2014  0842  3476               	retlw	118
  2015  0843  347F               	retlw	127
  2016  0844  3440               	retlw	64
  2017  0845  3449               	retlw	73
  2018  0846  3452               	retlw	82
  2019  0847  345B               	retlw	91
  2020  0848  342C               	retlw	44
  2021  0849  3425               	retlw	37
  2022  084A  343E               	retlw	62
  2023  084B  3437               	retlw	55
  2024  084C  3408               	retlw	8
  2025  084D  3401               	retlw	1
  2026  084E  341A               	retlw	26
  2027  084F  3413               	retlw	19
  2028  0850  347D               	retlw	125
  2029  0851  3474               	retlw	116
  2030  0852  346F               	retlw	111
  2031  0853  3466               	retlw	102
  2032  0854  3459               	retlw	89
  2033  0855  3450               	retlw	80
  2034  0856  344B               	retlw	75
  2035  0857  3442               	retlw	66
  2036  0858  3435               	retlw	53
  2037  0859  343C               	retlw	60
  2038  085A  3427               	retlw	39
  2039  085B  342E               	retlw	46
  2040  085C  3411               	retlw	17
  2041  085D  3418               	retlw	24
  2042  085E  3403               	retlw	3
  2043  085F  340A               	retlw	10
  2044  0860  3456               	retlw	86
  2045  0861  345F               	retlw	95
  2046  0862  3444               	retlw	68
  2047  0863  344D               	retlw	77
  2048  0864  3472               	retlw	114
  2049  0865  347B               	retlw	123
  2050  0866  3460               	retlw	96
  2051  0867  3469               	retlw	105
  2052  0868  341E               	retlw	30
  2053  0869  3417               	retlw	23
  2054  086A  340C               	retlw	12
  2055  086B  3405               	retlw	5
  2056  086C  343A               	retlw	58
  2057  086D  3433               	retlw	51
  2058  086E  3428               	retlw	40
  2059  086F  3421               	retlw	33
  2060  0870  344F               	retlw	79
  2061  0871  3446               	retlw	70
  2062  0872  345D               	retlw	93
  2063  0873  3454               	retlw	84
  2064  0874  346B               	retlw	107
  2065  0875  3462               	retlw	98
  2066  0876  3479               	retlw	121
  2067  0877  3470               	retlw	112
  2068  0878  3407               	retlw	7
  2069  0879  340E               	retlw	14
  2070  087A  3415               	retlw	21
  2071  087B  341C               	retlw	28
  2072  087C  3423               	retlw	35
  2073  087D  342A               	retlw	42
  2074  087E  3431               	retlw	49
  2075  087F  3438               	retlw	56
  2076  0880  3441               	retlw	65
  2077  0881  3448               	retlw	72
  2078  0882  3453               	retlw	83
  2079  0883  345A               	retlw	90
  2080  0884  3465               	retlw	101
  2081  0885  346C               	retlw	108
  2082  0886  3477               	retlw	119
  2083  0887  347E               	retlw	126
  2084  0888  3409               	retlw	9
  2085  0889  3400               	retlw	0
  2086  088A  341B               	retlw	27
  2087  088B  3412               	retlw	18
  2088  088C  342D               	retlw	45
  2089  088D  3424               	retlw	36
  2090  088E  343F               	retlw	63
  2091  088F  3436               	retlw	54
  2092  0890  3458               	retlw	88
  2093  0891  3451               	retlw	81
  2094  0892  344A               	retlw	74
  2095  0893  3443               	retlw	67
  2096  0894  347C               	retlw	124
  2097  0895  3475               	retlw	117
  2098  0896  346E               	retlw	110
  2099  0897  3467               	retlw	103
  2100  0898  3410               	retlw	16
  2101  0899  3419               	retlw	25
  2102  089A  3402               	retlw	2
  2103  089B  340B               	retlw	11
  2104  089C  3434               	retlw	52
  2105  089D  343D               	retlw	61
  2106  089E  3426               	retlw	38
  2107  089F  342F               	retlw	47
  2108  08A0  3473               	retlw	115
  2109  08A1  347A               	retlw	122
  2110  08A2  3461               	retlw	97
  2111  08A3  3468               	retlw	104
  2112  08A4  3457               	retlw	87
  2113  08A5  345E               	retlw	94
  2114  08A6  3445               	retlw	69
  2115  08A7  344C               	retlw	76
  2116  08A8  343B               	retlw	59
  2117  08A9  3432               	retlw	50
  2118  08AA  3429               	retlw	41
  2119  08AB  3420               	retlw	32
  2120  08AC  341F               	retlw	31
  2121  08AD  3416               	retlw	22
  2122  08AE  340D               	retlw	13
  2123  08AF  3404               	retlw	4
  2124  08B0  346A               	retlw	106
  2125  08B1  3463               	retlw	99
  2126  08B2  3478               	retlw	120
  2127  08B3  3471               	retlw	113
  2128  08B4  344E               	retlw	78
  2129  08B5  3447               	retlw	71
  2130  08B6  345C               	retlw	92
  2131  08B7  3455               	retlw	85
  2132  08B8  3422               	retlw	34
  2133  08B9  342B               	retlw	43
  2134  08BA  3430               	retlw	48
  2135  08BB  3439               	retlw	57
  2136  08BC  3406               	retlw	6
  2137  08BD  340F               	retlw	15
  2138  08BE  3414               	retlw	20
  2139  08BF  341D               	retlw	29
  2140  08C0  3425               	retlw	37
  2141  08C1  342C               	retlw	44
  2142  08C2  3437               	retlw	55
  2143  08C3  343E               	retlw	62
  2144  08C4  3401               	retlw	1
  2145  08C5  3408               	retlw	8
  2146  08C6  3413               	retlw	19
  2147  08C7  341A               	retlw	26
  2148  08C8  346D               	retlw	109
  2149  08C9  3464               	retlw	100
  2150  08CA  347F               	retlw	127
  2151  08CB  3476               	retlw	118
  2152  08CC  3449               	retlw	73
  2153  08CD  3440               	retlw	64
  2154  08CE  345B               	retlw	91
  2155  08CF  3452               	retlw	82
  2156  08D0  343C               	retlw	60
  2157  08D1  3435               	retlw	53
  2158  08D2  342E               	retlw	46
  2159  08D3  3427               	retlw	39
  2160  08D4  3418               	retlw	24
  2161  08D5  3411               	retlw	17
  2162  08D6  340A               	retlw	10
  2163  08D7  3403               	retlw	3
  2164  08D8  3474               	retlw	116
  2165  08D9  347D               	retlw	125
  2166  08DA  3466               	retlw	102
  2167  08DB  346F               	retlw	111
  2168  08DC  3450               	retlw	80
  2169  08DD  3459               	retlw	89
  2170  08DE  3442               	retlw	66
  2171  08DF  344B               	retlw	75
  2172  08E0  3417               	retlw	23
  2173  08E1  341E               	retlw	30
  2174  08E2  3405               	retlw	5
  2175  08E3  340C               	retlw	12
  2176  08E4  3433               	retlw	51
  2177  08E5  343A               	retlw	58
  2178  08E6  3421               	retlw	33
  2179  08E7  3428               	retlw	40
  2180  08E8  345F               	retlw	95
  2181  08E9  3456               	retlw	86
  2182  08EA  344D               	retlw	77
  2183  08EB  3444               	retlw	68
  2184  08EC  347B               	retlw	123
  2185  08ED  3472               	retlw	114
  2186  08EE  3469               	retlw	105
  2187  08EF  3460               	retlw	96
  2188  08F0  340E               	retlw	14
  2189  08F1  3407               	retlw	7
  2190  08F2  341C               	retlw	28
  2191  08F3  3415               	retlw	21
  2192  08F4  342A               	retlw	42
  2193  08F5  3423               	retlw	35
  2194  08F6  3438               	retlw	56
  2195  08F7  3431               	retlw	49
  2196  08F8  3446               	retlw	70
  2197  08F9  344F               	retlw	79
  2198  08FA  3454               	retlw	84
  2199  08FB  345D               	retlw	93
  2200  08FC  3462               	retlw	98
  2201  08FD  346B               	retlw	107
  2202  08FE  3470               	retlw	112
  2203  08FF  3479               	retlw	121
  2204  0900                     __end_of_CRCTable:	
  2205  0011                     _PIR1bits	set	17
  2206  000D                     _PORTBbits	set	13
  2207  000E                     _PORTCbits	set	14
  2208  008D                     _TRISBbits	set	141
  2209  009C                     _OSCSTATbits	set	156
  2210  009B                     _OSCCON	set	155
  2211  0477                     _TRISC7	set	1143
  2212  0474                     _TRISC4	set	1140
  2213  0473                     _TRISC3	set	1139
  2214  0472                     _TRISC2	set	1138
  2215  018D                     _ANSELBbits	set	397
  2216  0C73                     _ANSC3	set	3187
  2217  0214                     _SSP1STATbits	set	532
  2218  0211                     _SSP1BUF	set	529
  2219  0212                     _SSP1ADD	set	530
  2220  0215                     _SSP1CON1	set	533
  2221  0214                     _SSP1STAT	set	532
  2222  0215                     _SSP1CON1bits	set	533
  2223  0495                     _T2CON	set	1173
  2224  0494                     _T2PR	set	1172
  2225  0497                     _T2CLKCON	set	1175
  2226  058F                     _DAC1REF	set	1423
  2227  058E                     _DAC1CON0	set	1422
  2228  2C68                     _DAC1LD	set	11368
  2229  0E3B                     _SSPDATPPS	set	3643
  2230  0E3A                     _SSPCLKPPS	set	3642
  2231  0EA4                     _RC4PPS	set	3748
  2232  0EA2                     _RC2PPS	set	3746
  2233                           
  2234                           ; #config settings
  2235  0000                     
  2236                           	psect	cinit
  2237  07B2                     start_initialization:	
  2238  07B2                     __initialization:		;BIGRAM
  2239                           
  2240                           ; Initialize objects allocated to BANK0
  2241  07B2  30EB               	movlw	low __pidataBANK0
  2242  07B3  0084               	movwf	4
  2243  07B4  308F               	movlw	(high __pidataBANK0)| (0+128)
  2244  07B5  0085               	movwf	5
  2245  07B6  3041               	movlw	low __pdataBANK0
  2246  07B7  0086               	movwf	6
  2247  07B8  3000               	movlw	high __pdataBANK0
  2248  07B9  0087               	movwf	7
  2249  07BA  3000               	movlw	0
  2250  07BB  00FF               	movwf	btemp+1
  2251  07BC  300A               	movlw	10
  2252  07BD  3180  2017  3187   	fcall	init_ram
  2253                           
  2254                           ; Initialize objects allocated to BANK1
  2255  07C0  3067               	movlw	low __pidataBANK1
  2256  07C1  0084               	movwf	4
  2257  07C2  3081               	movlw	(high __pidataBANK1)| (0+128)
  2258  07C3  0085               	movwf	5
  2259  07C4  30A0               	movlw	low __pdataBANK1
  2260  07C5  0086               	movwf	6
  2261  07C6  3000               	movlw	high __pdataBANK1
  2262  07C7  0087               	movwf	7
  2263  07C8  3000               	movlw	0
  2264  07C9  00FF               	movwf	btemp+1
  2265  07CA  3044               	movlw	68
  2266  07CB  3180  2017  3187   	fcall	init_ram
  2267                           
  2268                           ; Initialize objects allocated to BANK2
  2269  07CE  3023               	movlw	low __pidataBANK2
  2270  07CF  0084               	movwf	4
  2271  07D0  3081               	movlw	(high __pidataBANK2)| (0+128)
  2272  07D1  0085               	movwf	5
  2273  07D2  3020               	movlw	low __pdataBANK2
  2274  07D3  0086               	movwf	6
  2275  07D4  3001               	movlw	high __pdataBANK2
  2276  07D5  0087               	movwf	7
  2277  07D6  3000               	movlw	0
  2278  07D7  00FF               	movwf	btemp+1
  2279  07D8  3044               	movlw	68
  2280  07D9  3180  2017  3187   	fcall	init_ram
  2281                           
  2282                           ; Clear objects allocated to BIGRAM_1
  2283  07DC  30F0               	movlw	low (0+9712)
  2284  07DD  0084               	movwf	4
  2285  07DE  3025               	movlw	high (0+9712)
  2286  07DF  0085               	movwf	5
  2287  07E0  3000               	movlw	0
  2288  07E1  00FE               	movwf	btemp
  2289  07E2  3002               	movlw	2
  2290  07E3  00FF               	movwf	btemp+1
  2291  07E4  3180  200B  3187   	fcall	clear_ram0
  2292                           
  2293                           ; Clear objects allocated to BIGRAM
  2294  07E7  30F0               	movlw	low (0+8688)
  2295  07E8  0084               	movwf	4
  2296  07E9  3021               	movlw	high (0+8688)
  2297  07EA  0085               	movwf	5
  2298  07EB  3000               	movlw	0
  2299  07EC  00FE               	movwf	btemp
  2300  07ED  3002               	movlw	2
  2301  07EE  00FF               	movwf	btemp+1
  2302  07EF  3180  200B  3187   	fcall	clear_ram0
  2303                           
  2304                           ; Clear objects allocated to COMMON
  2305  07F2  01FD               	clrf	__pbssCOMMON& (0+127)
  2306                           
  2307                           ; Clear objects allocated to BANK0
  2308  07F3  3020               	movlw	low __pbssBANK0
  2309  07F4  0084               	movwf	4
  2310  07F5  3000               	movlw	high __pbssBANK0
  2311  07F6  0085               	movwf	5
  2312  07F7  3013               	movlw	19
  2313  07F8  00FE               	movwf	btemp
  2314  07F9  3000               	movlw	0
  2315  07FA  00FF               	movwf	btemp+1
  2316  07FB  3180  200B         	fcall	clear_ram0
  2317  07FD                     end_of_initialization:	
  2318                           ;End of C runtime variable initialization code
  2319                           
  2320  07FD                     __end_of__initialization:	
  2321  07FD  0020               	movlb	0
  2322  07FE  3180  289B         	ljmp	_main	;jump to C main() function
  2323                           
  2324                           	psect	bssCOMMON
  2325  007D                     __pbssCOMMON:	
  2326  007D                     _G_u8charPointer:	
  2327  007D                     	ds	1
  2328                           
  2329                           	psect	bssBANK0
  2330  0020                     __pbssBANK0:	
  2331  0020                     _G_u32timeTrack:	
  2332  0020                     	ds	4
  2333  0024                     _G_u16EndAddress:	
  2334  0024                     	ds	2
  2335  0026                     _G_8counter:	
  2336  0026                     	ds	2
  2337  0028                     _pressedSnooze:	
  2338  0028                     	ds	1
  2339  0029                     _pressedToggle:	
  2340  0029                     	ds	1
  2341  002A                     _pressedMin:	
  2342  002A                     	ds	1
  2343  002B                     _pressedHour:	
  2344  002B                     	ds	1
  2345  002C                     _pressedTalk:	
  2346  002C                     	ds	1
  2347  002D                     _timeSaid:	
  2348  002D                     	ds	1
  2349  002E                     _G_8hasAddress:	
  2350  002E                     	ds	1
  2351  002F                     _G_8sendbyte:	
  2352  002F                     	ds	1
  2353  0030                     _G_u8play:	
  2354  0030                     	ds	1
  2355  0031                     _G_u16Address:	
  2356  0031                     	ds	2
  2357                           
  2358                           	psect	dataBANK0
  2359  0041                     __pdataBANK0:	
  2360  0041                     _GLBL_Resp40:	
  2361  0041                     	ds	5
  2362  0046                     _G_u16min:	
  2363  0046                     	ds	2
  2364  0048                     _G_u16hour:	
  2365  0048                     	ds	2
  2366  004A                     _GLBL_Resp8:	
  2367  004A                     	ds	1
  2368                           
  2369                           	psect	dataBANK1
  2370  00A0                     __pdataBANK1:	
  2371  00A0                     _G_au16startAddresses:	
  2372  00A0                     	ds	68
  2373                           
  2374                           	psect	dataBANK2
  2375  0120                     __pdataBANK2:	
  2376  0120                     _G_au16endAddresses:	
  2377  0120                     	ds	68
  2378                           
  2379                           	psect	inittext
  2380  0017                     init_ram:	
  2381  0017  00FE               	movwf	126
  2382  0018                     initloop:	
  2383  0018  0012               	moviw fsr0++
  2384  0019  001E               	movwi fsr1++
  2385  001A  3001               	movlw	1
  2386  001B  02FE               	subwf	126,f
  2387  001C  3000               	movlw	0
  2388  001D  3BFF               	subwfb	127,f
  2389  001E  087F               	movf	127,w
  2390  001F  047E               	iorwf	126,w
  2391  0020  1903               	btfsc	3,2
  2392  0021  3400               	retlw	0
  2393  0022  2818               	goto	initloop
  2394                           
  2395                           	psect	clrtext
  2396  000B                     clear_ram0:	
  2397                           ;	Called with FSR0 containing the base address, and
  2398                           ;	btemp/btemp+1 has the size to clear
  2399                           
  2400  000B  0064               	clrwdt	;clear the watchdog before getting into this loop
  2401  000C                     clrloop0:	
  2402  000C  0180               	clrf	0	;clear RAM location pointed to by FSR
  2403  000D  3101               	addfsr 0,1
  2404  000E  3001               	movlw	1
  2405  000F  02FE               	subwf	126,f
  2406  0010  3000               	movlw	0
  2407  0011  3BFF               	subwfb	127,f
  2408  0012  087F               	movf	127,w
  2409  0013  047E               	iorwf	126,w
  2410  0014  1903               	btfsc	3,2
  2411  0015  3400               	retlw	0	;all done for this memory range, return
  2412  0016  280C               	goto	clrloop0	;have we reached the end yet?
  2413                           
  2414                           	psect	cstackCOMMON
  2415  0070                     __pcstackCOMMON:	
  2416  0070                     ?_SPI_Write:	
  2417  0070                     ??_SPI_Write:	
  2418                           ; 1 bytes @ 0x0
  2419                           
  2420  0070                     ?_SD_Read8bitResponse:	
  2421                           ; 1 bytes @ 0x0
  2422                           
  2423  0070                     ??_SD_Read8bitResponse:	
  2424                           ; 1 bytes @ 0x0
  2425                           
  2426  0070                     ?_SD_Check8bitResponse:	
  2427                           ; 1 bytes @ 0x0
  2428                           
  2429  0070                     ??_SD_Check8bitResponse:	
  2430                           ; 1 bytes @ 0x0
  2431                           
  2432  0070                     ?_SD_Read40bitResponse:	
  2433                           ; 1 bytes @ 0x0
  2434                           
  2435  0070                     ??_SD_Read40bitResponse:	
  2436                           ; 1 bytes @ 0x0
  2437                           
  2438  0070                     ?_SD_Check40bitResponse:	
  2439                           ; 1 bytes @ 0x0
  2440                           
  2441  0070                     ?_SPI_Read:	
  2442                           ; 1 bytes @ 0x0
  2443                           
  2444  0070                     ??_SPI_Read:	
  2445                           ; 1 bytes @ 0x0
  2446                           
  2447  0070                     ?_configButtons:	
  2448                           ; 1 bytes @ 0x0
  2449                           
  2450  0070                     ??_configButtons:	
  2451                           ; 1 bytes @ 0x0
  2452                           
  2453  0070                     ?_timeIncrement:	
  2454                           ; 1 bytes @ 0x0
  2455                           
  2456  0070                     ??_timeIncrement:	
  2457                           ; 1 bytes @ 0x0
  2458                           
  2459  0070                     ?_checkButtonPress:	
  2460                           ; 1 bytes @ 0x0
  2461                           
  2462  0070                     ?_active:	
  2463                           ; 1 bytes @ 0x0
  2464                           
  2465  0070                     ?_writeDAQ:	
  2466                           ; 1 bytes @ 0x0
  2467                           
  2468  0070                     ??_writeDAQ:	
  2469                           ; 1 bytes @ 0x0
  2470                           
  2471  0070                     ?_SD_Init:	
  2472                           ; 1 bytes @ 0x0
  2473                           
  2474  0070                     ?_SPI_Init:	
  2475                           ; 1 bytes @ 0x0
  2476                           
  2477  0070                     ??_SPI_Init:	
  2478                           ; 1 bytes @ 0x0
  2479                           
  2480  0070                     ?_main:	
  2481                           ; 1 bytes @ 0x0
  2482                           
  2483  0070                     ?___awdiv:	
  2484                           ; 1 bytes @ 0x0
  2485                           
  2486  0070                     SD_Check8bitResponse@Byte:	
  2487                           ; 2 bytes @ 0x0
  2488                           
  2489  0070                     SD_Check40bitResponse@Byte3:	
  2490                           ; 1 bytes @ 0x0
  2491                           
  2492  0070                     SPI_Write@Data_8bit:	
  2493                           ; 1 bytes @ 0x0
  2494                           
  2495  0070                     ___awdiv@divisor:	
  2496                           ; 1 bytes @ 0x0
  2497                           
  2498                           
  2499                           ; 2 bytes @ 0x0
  2500  0070                     	ds	1
  2501  0071                     ?_SD_SendCommand:	
  2502  0071                     SD_SendCommand@ARG3:	
  2503                           ; 1 bytes @ 0x1
  2504                           
  2505  0071                     SD_Read8bitResponse@readMessage:	
  2506                           ; 1 bytes @ 0x1
  2507                           
  2508  0071                     SD_Check8bitResponse@match:	
  2509                           ; 1 bytes @ 0x1
  2510                           
  2511  0071                     SD_Read40bitResponse@readMessage:	
  2512                           ; 1 bytes @ 0x1
  2513                           
  2514  0071                     SD_Check40bitResponse@Byte2:	
  2515                           ; 1 bytes @ 0x1
  2516                           
  2517                           
  2518                           ; 1 bytes @ 0x1
  2519  0071                     	ds	1
  2520  0072                     SD_SendCommand@ARG2:	
  2521  0072                     SD_Check40bitResponse@Byte1:	
  2522                           ; 1 bytes @ 0x2
  2523                           
  2524  0072                     writeDAQ@writevalue:	
  2525                           ; 1 bytes @ 0x2
  2526                           
  2527  0072                     ___awdiv@dividend:	
  2528                           ; 1 bytes @ 0x2
  2529                           
  2530                           
  2531                           ; 2 bytes @ 0x2
  2532  0072                     	ds	1
  2533  0073                     SD_SendCommand@ARG1:	
  2534  0073                     SD_Check40bitResponse@Byte0:	
  2535                           ; 1 bytes @ 0x3
  2536                           
  2537                           
  2538                           ; 1 bytes @ 0x3
  2539  0073                     	ds	1
  2540  0074                     ??_SD_Check40bitResponse:	
  2541  0074                     ??___awdiv:	
  2542                           ; 1 bytes @ 0x4
  2543                           
  2544  0074                     SD_SendCommand@ARG0:	
  2545                           ; 1 bytes @ 0x4
  2546                           
  2547  0074                     SD_Check40bitResponse@Byte4:	
  2548                           ; 1 bytes @ 0x4
  2549                           
  2550                           
  2551                           ; 1 bytes @ 0x4
  2552  0074                     	ds	1
  2553  0075                     ??_SD_SendCommand:	
  2554  0075                     SD_Check40bitResponse@match:	
  2555                           ; 1 bytes @ 0x5
  2556                           
  2557  0075                     ___awdiv@counter:	
  2558                           ; 1 bytes @ 0x5
  2559                           
  2560                           
  2561                           ; 1 bytes @ 0x5
  2562  0075                     	ds	1
  2563  0076                     SD_SendCommand@CMD_6bit:	
  2564  0076                     ___awdiv@sign:	
  2565                           ; 1 bytes @ 0x6
  2566                           
  2567                           
  2568                           ; 1 bytes @ 0x6
  2569  0076                     	ds	1
  2570  0077                     SD_SendCommand@ByteToSend:	
  2571  0077                     ___awdiv@quotient:	
  2572                           ; 1 bytes @ 0x7
  2573                           
  2574                           
  2575                           ; 2 bytes @ 0x7
  2576  0077                     	ds	1
  2577  0078                     SD_SendCommand@Checksum:	
  2578                           
  2579                           ; 1 bytes @ 0x8
  2580  0078                     	ds	1
  2581  0079                     ??_active:	
  2582  0079                     ??_SD_Init:	
  2583                           ; 1 bytes @ 0x9
  2584                           
  2585                           
  2586                           ; 1 bytes @ 0x9
  2587  0079                     	ds	1
  2588  007A                     active@readMessage:	
  2589                           
  2590                           ; 1 bytes @ 0xA
  2591  007A                     	ds	1
  2592  007B                     ??_playAudio:	
  2593                           
  2594                           ; 1 bytes @ 0xB
  2595  007B                     	ds	1
  2596  007C                     ??_readTime:	
  2597  007C                     ??_playHour:	
  2598                           ; 1 bytes @ 0xC
  2599                           
  2600  007C                     ??_playMinute10:	
  2601                           ; 1 bytes @ 0xC
  2602                           
  2603  007C                     ??_playMinute:	
  2604                           ; 1 bytes @ 0xC
  2605                           
  2606                           
  2607                           ; 1 bytes @ 0xC
  2608  007C                     	ds	1
  2609  007D                     ??_checkButtonPress:	
  2610  007D                     ??_main:	
  2611                           ; 1 bytes @ 0xD
  2612                           
  2613                           
  2614                           	psect	cstackBANK0
  2615  0033                     __pcstackBANK0:	
  2616                           ; 1 bytes @ 0xD
  2617                           
  2618  0033                     ?_playAudio:	
  2619  0033                     playAudio@startAddress:	
  2620                           ; 1 bytes @ 0x0
  2621                           
  2622                           
  2623                           ; 2 bytes @ 0x0
  2624  0033                     	ds	2
  2625  0035                     playAudio@endAddress:	
  2626                           
  2627                           ; 2 bytes @ 0x2
  2628  0035                     	ds	2
  2629  0037                     ?_playHour:	
  2630  0037                     ?_playMinute:	
  2631                           ; 1 bytes @ 0x4
  2632                           
  2633  0037                     playHour@hour:	
  2634                           ; 1 bytes @ 0x4
  2635                           
  2636  0037                     playMinute@minute:	
  2637                           ; 2 bytes @ 0x4
  2638                           
  2639                           
  2640                           ; 2 bytes @ 0x4
  2641  0037                     	ds	2
  2642  0039                     ?_playMinute10:	
  2643  0039                     playMinute10@minute:	
  2644                           ; 1 bytes @ 0x6
  2645                           
  2646                           
  2647                           ; 2 bytes @ 0x6
  2648  0039                     	ds	2
  2649  003B                     ?_readTime:	
  2650  003B                     readTime@hour:	
  2651                           ; 1 bytes @ 0x8
  2652                           
  2653                           
  2654                           ; 2 bytes @ 0x8
  2655  003B                     	ds	2
  2656  003D                     readTime@minute:	
  2657                           
  2658                           ; 2 bytes @ 0xA
  2659  003D                     	ds	2
  2660  003F                     readTime@temphour:	
  2661                           
  2662                           ; 2 bytes @ 0xC
  2663  003F                     	ds	2
  2664                           
  2665                           	psect	maintext
  2666  009B                     __pmaintext:	
  2667 ;;
  2668 ;;Main: autosize = 0, tempsize = 0, incstack = 0, save=0
  2669 ;;
  2670 ;; *************** function _main *****************
  2671 ;; Defined at:
  2672 ;;		line 49 in file "Lab3_Main.c"
  2673 ;; Parameters:    Size  Location     Type
  2674 ;;		None
  2675 ;; Auto vars:     Size  Location     Type
  2676 ;;		None
  2677 ;; Return value:  Size  Location     Type
  2678 ;;                  1    wreg      void 
  2679 ;; Registers used:
  2680 ;;		wreg, fsr0l, fsr0h, fsr1l, fsr1h, status,2, status,0, pclath, cstack
  2681 ;; Tracked objects:
  2682 ;;		On entry : B1F/0
  2683 ;;		On exit  : 0/0
  2684 ;;		Unchanged: 0/0
  2685 ;; Data sizes:     COMMON   BANK0   BANK1   BANK2   BANK3   BANK4   BANK5   BANK6   BANK7   BANK8   BANK9  BANK10  BANK1
      +1  BANK12  BANK13  BANK14  BANK15  BANK16  BANK17  BANK18  BANK19  BANK20  BANK21  BANK22  BANK23  BANK24  BANK25
  2686 ;;      Params:         0       0       0       0       0       0       0       0       0       0       0       0       
      +0       0       0       0       0       0       0       0       0       0       0       0       0       0       0
  2687 ;;      Locals:         0       0       0       0       0       0       0       0       0       0       0       0       
      +0       0       0       0       0       0       0       0       0       0       0       0       0       0       0
  2688 ;;      Temps:          0       0       0       0       0       0       0       0       0       0       0       0       
      +0       0       0       0       0       0       0       0       0       0       0       0       0       0       0
  2689 ;;      Totals:         0       0       0       0       0       0       0       0       0       0       0       0       
      +0       0       0       0       0       0       0       0       0       0       0       0       0       0       0
  2690 ;;Total ram usage:        0 bytes
  2691 ;; Hardware stack levels required when called:    8
  2692 ;; This function calls:
  2693 ;;		_SD_Init
  2694 ;;		_SPI_Init
  2695 ;;		_checkButtonPress
  2696 ;;		_configButtons
  2697 ;;		_readTime
  2698 ;;		_timeIncrement
  2699 ;; This function is called by:
  2700 ;;		Startup code after reset
  2701 ;; This function uses a non-reentrant model
  2702 ;;
  2703                           
  2704                           
  2705                           ;psect for function _main
  2706  009B                     _main:	
  2707                           
  2708                           ;Lab3_Main.c: 52:     OSCCON = 0xF4;
  2709                           
  2710                           ;incstack = 0
  2711                           ; Regs used in _main: [wreg-fsr1h+status,2+status,0+pclath+cstack]
  2712  009B  30F4               	movlw	244
  2713  009C  0021               	movlb	1	; select bank1
  2714  009D  009B               	movwf	27	;volatile
  2715  009E                     l228:	
  2716                           ;Lab3_Main.c: 53:     while(OSCSTATbits.HFIOFR == 0);
  2717                           
  2718  009E  1E1C               	btfss	28,4	;volatile
  2719  009F  289E               	goto	l228
  2720                           
  2721                           ;Lab3_Main.c: 55:     SPI_Init();
  2722  00A0  3180  207E  3180   	fcall	_SPI_Init
  2723                           
  2724                           ;Lab3_Main.c: 56:     SD_Init();
  2725  00A3  3183  2322  3180   	fcall	_SD_Init
  2726                           
  2727                           ;Lab3_Main.c: 57:     configButtons();
  2728  00A6  3180  2034  3180   	fcall	_configButtons
  2729                           
  2730                           ;Lab3_Main.c: 59:     DAC1CON0 = 0xA0;
  2731  00A9  30A0               	movlw	160
  2732  00AA  002B               	movlb	11	; select bank11
  2733  00AB  008E               	movwf	14	;volatile
  2734                           
  2735                           ;Lab3_Main.c: 60:     T2CLKCON = 0x05;
  2736  00AC  3005               	movlw	5
  2737  00AD  0029               	movlb	9	; select bank9
  2738  00AE  0097               	movwf	23	;volatile
  2739                           
  2740                           ;Lab3_Main.c: 61:     T2PR = 0x1f;
  2741  00AF  301F               	movlw	31
  2742  00B0  0094               	movwf	20	;volatile
  2743                           
  2744                           ;Lab3_Main.c: 62:     T2CON = 0x80;
  2745  00B1  3080               	movlw	128
  2746  00B2  0095               	movwf	21	;volatile
  2747  00B3                     l2114:	
  2748                           
  2749                           ;Lab3_Main.c: 65:     {;Lab3_Main.c: 66:     timeIncrement();
  2750  00B3  3180  20F3  3180   	fcall	_timeIncrement
  2751                           
  2752                           ;Lab3_Main.c: 67:     checkButtonPress();
  2753  00B6  3182  22AB  3180   	fcall	_checkButtonPress
  2754                           
  2755                           ;Lab3_Main.c: 68:     readTime(G_u16hour, G_u16min);
  2756  00B9  0020               	movlb	0	; select bank0
  2757  00BA  0849               	movf	_G_u16hour+1,w
  2758  00BB  00BC               	movwf	readTime@hour+1
  2759  00BC  0848               	movf	_G_u16hour,w
  2760  00BD  00BB               	movwf	readTime@hour
  2761  00BE  0847               	movf	_G_u16min+1,w
  2762  00BF  00BE               	movwf	readTime@minute+1
  2763  00C0  0846               	movf	_G_u16min,w
  2764  00C1  00BD               	movwf	readTime@minute
  2765  00C2  3182  2252  3180   	fcall	_readTime
  2766  00C5  28B3               	goto	l2114
  2767  00C6                     __end_of_main:	
  2768                           
  2769                           	psect	text1
  2770  00F3                     __ptext1:	
  2771 ;; *************** function _timeIncrement *****************
  2772 ;; Defined at:
  2773 ;;		line 88 in file "Lab3_Main.c"
  2774 ;; Parameters:    Size  Location     Type
  2775 ;;		None
  2776 ;; Auto vars:     Size  Location     Type
  2777 ;;		None
  2778 ;; Return value:  Size  Location     Type
  2779 ;;                  1    wreg      void 
  2780 ;; Registers used:
  2781 ;;		wreg, status,2, status,0
  2782 ;; Tracked objects:
  2783 ;;		On entry : 0/0
  2784 ;;		On exit  : 0/0
  2785 ;;		Unchanged: 0/0
  2786 ;; Data sizes:     COMMON   BANK0   BANK1   BANK2   BANK3   BANK4   BANK5   BANK6   BANK7   BANK8   BANK9  BANK10  BANK1
      +1  BANK12  BANK13  BANK14  BANK15  BANK16  BANK17  BANK18  BANK19  BANK20  BANK21  BANK22  BANK23  BANK24  BANK25
  2787 ;;      Params:         0       0       0       0       0       0       0       0       0       0       0       0       
      +0       0       0       0       0       0       0       0       0       0       0       0       0       0       0
  2788 ;;      Locals:         0       0       0       0       0       0       0       0       0       0       0       0       
      +0       0       0       0       0       0       0       0       0       0       0       0       0       0       0
  2789 ;;      Temps:          0       0       0       0       0       0       0       0       0       0       0       0       
      +0       0       0       0       0       0       0       0       0       0       0       0       0       0       0
  2790 ;;      Totals:         0       0       0       0       0       0       0       0       0       0       0       0       
      +0       0       0       0       0       0       0       0       0       0       0       0       0       0       0
  2791 ;;Total ram usage:        0 bytes
  2792 ;; Hardware stack levels used:    1
  2793 ;; This function calls:
  2794 ;;		Nothing
  2795 ;; This function is called by:
  2796 ;;		_main
  2797 ;; This function uses a non-reentrant model
  2798 ;;
  2799                           
  2800                           
  2801                           ;psect for function _timeIncrement
  2802  00F3                     _timeIncrement:	
  2803                           
  2804                           ;Lab3_Main.c: 90:      G_u32timeTrack++;
  2805                           
  2806                           ;incstack = 0
  2807                           ; Regs used in _timeIncrement: [wreg+status,2+status,0]
  2808  00F3  3001               	movlw	1
  2809  00F4  0020               	movlb	0	; select bank0
  2810  00F5  07A0               	addwf	_G_u32timeTrack,f
  2811  00F6  3000               	movlw	0
  2812  00F7  3DA1               	addwfc	_G_u32timeTrack+1,f
  2813  00F8  3000               	movlw	0
  2814  00F9  3DA2               	addwfc	_G_u32timeTrack+2,f
  2815  00FA  3000               	movlw	0
  2816  00FB  3DA3               	addwfc	_G_u32timeTrack+3,f
  2817                           
  2818                           ;Lab3_Main.c: 91:         if(G_u32timeTrack == 16129)
  2819  00FC  0320               	decf	_G_u32timeTrack,w
  2820  00FD  303F               	movlw	63
  2821  00FE  1903               	skipnz
  2822  00FF  0621               	xorwf	_G_u32timeTrack+1,w
  2823  0100  0422               	iorwf	_G_u32timeTrack+2,w
  2824  0101  0423               	iorwf	_G_u32timeTrack+3,w
  2825  0102  1D03               	btfss	3,2
  2826  0103  0008               	return
  2827                           
  2828                           ;Lab3_Main.c: 92:         {;Lab3_Main.c: 93:             G_u32timeTrack = 0;
  2829  0104  3000               	movlw	0
  2830  0105  00A3               	movwf	_G_u32timeTrack+3
  2831  0106  3000               	movlw	0
  2832  0107  00A2               	movwf	_G_u32timeTrack+2
  2833  0108  3000               	movlw	0
  2834  0109  00A1               	movwf	_G_u32timeTrack+1
  2835  010A  3000               	movlw	0
  2836  010B  00A0               	movwf	_G_u32timeTrack
  2837                           
  2838                           ;Lab3_Main.c: 94:             G_u16min++;
  2839  010C  3001               	movlw	1
  2840  010D  07C6               	addwf	_G_u16min,f
  2841  010E  3000               	movlw	0
  2842  010F  3DC7               	addwfc	_G_u16min+1,f
  2843                           
  2844                           ;Lab3_Main.c: 95:             if (G_u16min == 60)
  2845  0110  303C               	movlw	60
  2846  0111  0646               	xorwf	_G_u16min,w
  2847  0112  0447               	iorwf	_G_u16min+1,w
  2848  0113  1D03               	btfss	3,2
  2849  0114  0008               	return
  2850                           
  2851                           ;Lab3_Main.c: 96:             {;Lab3_Main.c: 97:                 G_u16min = 0;
  2852  0115  01C6               	clrf	_G_u16min
  2853  0116  01C7               	clrf	_G_u16min+1
  2854                           
  2855                           ;Lab3_Main.c: 98:                 G_u16hour++;
  2856  0117  3001               	movlw	1
  2857  0118  07C8               	addwf	_G_u16hour,f
  2858  0119  3000               	movlw	0
  2859  011A  3DC9               	addwfc	_G_u16hour+1,f
  2860                           
  2861                           ;Lab3_Main.c: 99:                 if (G_u16hour == 24)
  2862  011B  3018               	movlw	24
  2863  011C  0648               	xorwf	_G_u16hour,w
  2864  011D  0449               	iorwf	_G_u16hour+1,w
  2865  011E  1D03               	btfss	3,2
  2866  011F  0008               	return
  2867                           
  2868                           ;Lab3_Main.c: 100:                 {;Lab3_Main.c: 101:                     G_u16hour = 0
      +                          ;
  2869  0120  01C8               	clrf	_G_u16hour
  2870  0121  01C9               	clrf	_G_u16hour+1
  2871  0122  0008               	return
  2872  0123                     __end_of_timeIncrement:	
  2873                           
  2874                           	psect	text2
  2875  0034                     __ptext2:	
  2876 ;; *************** function _configButtons *****************
  2877 ;; Defined at:
  2878 ;;		line 73 in file "Lab3_Main.c"
  2879 ;; Parameters:    Size  Location     Type
  2880 ;;		None
  2881 ;; Auto vars:     Size  Location     Type
  2882 ;;		None
  2883 ;; Return value:  Size  Location     Type
  2884 ;;                  1    wreg      void 
  2885 ;; Registers used:
  2886 ;;		None
  2887 ;; Tracked objects:
  2888 ;;		On entry : 0/0
  2889 ;;		On exit  : 0/0
  2890 ;;		Unchanged: 0/0
  2891 ;; Data sizes:     COMMON   BANK0   BANK1   BANK2   BANK3   BANK4   BANK5   BANK6   BANK7   BANK8   BANK9  BANK10  BANK1
      +1  BANK12  BANK13  BANK14  BANK15  BANK16  BANK17  BANK18  BANK19  BANK20  BANK21  BANK22  BANK23  BANK24  BANK25
  2892 ;;      Params:         0       0       0       0       0       0       0       0       0       0       0       0       
      +0       0       0       0       0       0       0       0       0       0       0       0       0       0       0
  2893 ;;      Locals:         0       0       0       0       0       0       0       0       0       0       0       0       
      +0       0       0       0       0       0       0       0       0       0       0       0       0       0       0
  2894 ;;      Temps:          0       0       0       0       0       0       0       0       0       0       0       0       
      +0       0       0       0       0       0       0       0       0       0       0       0       0       0       0
  2895 ;;      Totals:         0       0       0       0       0       0       0       0       0       0       0       0       
      +0       0       0       0       0       0       0       0       0       0       0       0       0       0       0
  2896 ;;Total ram usage:        0 bytes
  2897 ;; Hardware stack levels used:    1
  2898 ;; This function calls:
  2899 ;;		Nothing
  2900 ;; This function is called by:
  2901 ;;		_main
  2902 ;; This function uses a non-reentrant model
  2903 ;;
  2904                           
  2905                           
  2906                           ;psect for function _configButtons
  2907  0034                     _configButtons:	
  2908                           
  2909                           ;Lab3_Main.c: 75:     TRISBbits.TRISB4 = 1;
  2910                           
  2911                           ;incstack = 0
  2912                           ; Regs used in _configButtons: []
  2913  0034  0021               	movlb	1	; select bank1
  2914  0035  160D               	bsf	13,4	;volatile
  2915                           
  2916                           ;Lab3_Main.c: 76:     ANSELBbits.ANSB4 = 0;
  2917  0036  0023               	movlb	3	; select bank3
  2918  0037  120D               	bcf	13,4	;volatile
  2919                           
  2920                           ;Lab3_Main.c: 77:     TRISBbits.TRISB3 = 1;
  2921  0038  0021               	movlb	1	; select bank1
  2922  0039  158D               	bsf	13,3	;volatile
  2923                           
  2924                           ;Lab3_Main.c: 78:     ANSELBbits.ANSB3 = 0;
  2925  003A  0023               	movlb	3	; select bank3
  2926  003B  118D               	bcf	13,3	;volatile
  2927                           
  2928                           ;Lab3_Main.c: 79:     TRISBbits.TRISB2 = 1;
  2929  003C  0021               	movlb	1	; select bank1
  2930  003D  150D               	bsf	13,2	;volatile
  2931                           
  2932                           ;Lab3_Main.c: 80:     ANSELBbits.ANSB2 = 0;
  2933  003E  0023               	movlb	3	; select bank3
  2934  003F  110D               	bcf	13,2	;volatile
  2935                           
  2936                           ;Lab3_Main.c: 81:     TRISBbits.TRISB1 = 1;
  2937  0040  0021               	movlb	1	; select bank1
  2938  0041  148D               	bsf	13,1	;volatile
  2939                           
  2940                           ;Lab3_Main.c: 82:     ANSELBbits.ANSB1 = 0;
  2941  0042  0023               	movlb	3	; select bank3
  2942  0043  108D               	bcf	13,1	;volatile
  2943                           
  2944                           ;Lab3_Main.c: 83:     TRISBbits.TRISB0 = 1;
  2945  0044  0021               	movlb	1	; select bank1
  2946  0045  140D               	bsf	13,0	;volatile
  2947                           
  2948                           ;Lab3_Main.c: 84:     ANSELBbits.ANSB0 = 0;
  2949  0046  0023               	movlb	3	; select bank3
  2950  0047  100D               	bcf	13,0	;volatile
  2951                           
  2952                           ;Lab3_Main.c: 85:     return;
  2953  0048  0008               	return
  2954  0049                     __end_of_configButtons:	
  2955                           
  2956                           	psect	text3
  2957  02AB                     __ptext3:	
  2958 ;; *************** function _checkButtonPress *****************
  2959 ;; Defined at:
  2960 ;;		line 107 in file "Lab3_Main.c"
  2961 ;; Parameters:    Size  Location     Type
  2962 ;;		None
  2963 ;; Auto vars:     Size  Location     Type
  2964 ;;		None
  2965 ;; Return value:  Size  Location     Type
  2966 ;;                  1    wreg      void 
  2967 ;; Registers used:
  2968 ;;		wreg, fsr0l, fsr0h, fsr1l, fsr1h, status,2, status,0, pclath, cstack
  2969 ;; Tracked objects:
  2970 ;;		On entry : 0/0
  2971 ;;		On exit  : 0/0
  2972 ;;		Unchanged: 0/0
  2973 ;; Data sizes:     COMMON   BANK0   BANK1   BANK2   BANK3   BANK4   BANK5   BANK6   BANK7   BANK8   BANK9  BANK10  BANK1
      +1  BANK12  BANK13  BANK14  BANK15  BANK16  BANK17  BANK18  BANK19  BANK20  BANK21  BANK22  BANK23  BANK24  BANK25
  2974 ;;      Params:         0       0       0       0       0       0       0       0       0       0       0       0       
      +0       0       0       0       0       0       0       0       0       0       0       0       0       0       0
  2975 ;;      Locals:         0       0       0       0       0       0       0       0       0       0       0       0       
      +0       0       0       0       0       0       0       0       0       0       0       0       0       0       0
  2976 ;;      Temps:          0       0       0       0       0       0       0       0       0       0       0       0       
      +0       0       0       0       0       0       0       0       0       0       0       0       0       0       0
  2977 ;;      Totals:         0       0       0       0       0       0       0       0       0       0       0       0       
      +0       0       0       0       0       0       0       0       0       0       0       0       0       0       0
  2978 ;;Total ram usage:        0 bytes
  2979 ;; Hardware stack levels used:    1
  2980 ;; Hardware stack levels required when called:    7
  2981 ;; This function calls:
  2982 ;;		_readTime
  2983 ;; This function is called by:
  2984 ;;		_main
  2985 ;; This function uses a non-reentrant model
  2986 ;;
  2987                           
  2988                           
  2989                           ;psect for function _checkButtonPress
  2990  02AB                     _checkButtonPress:	
  2991                           
  2992                           ;Lab3_Main.c: 110:         if (PORTBbits.RB4 == 1 && !pressedTalk)
  2993                           
  2994                           ;incstack = 0
  2995                           ; Regs used in _checkButtonPress: [wreg-fsr1h+status,2+status,0+pclath+cstack]
  2996  02AB  0020               	movlb	0	; select bank0
  2997  02AC  1E0D               	btfss	13,4	;volatile
  2998  02AD  2AB3               	goto	l246
  2999  02AE  082C               	movf	_pressedTalk,w
  3000  02AF  1D03               	btfss	3,2
  3001  02B0  2AB3               	goto	l246
  3002                           
  3003                           ;Lab3_Main.c: 111:         {;Lab3_Main.c: 112:             pressedTalk = 1;
  3004  02B1  01AC               	clrf	_pressedTalk
  3005  02B2  0AAC               	incf	_pressedTalk,f
  3006  02B3                     l246:	
  3007                           ;Lab3_Main.c: 113:         }
  3008                           
  3009                           
  3010                           ;Lab3_Main.c: 114:         if (PORTBbits.RB4 == 0 && pressedTalk)
  3011  02B3  1A0D               	btfsc	13,4	;volatile
  3012  02B4  2ABB               	goto	l1976
  3013  02B5  082C               	movf	_pressedTalk,w
  3014  02B6  1903               	btfsc	3,2
  3015  02B7  2ABB               	goto	l1976
  3016                           
  3017                           ;Lab3_Main.c: 115:         {;Lab3_Main.c: 116:             pressedTalk = 0;
  3018  02B8  01AC               	clrf	_pressedTalk
  3019                           
  3020                           ;Lab3_Main.c: 117:             timeSaid = 1;
  3021  02B9  01AD               	clrf	_timeSaid
  3022  02BA  0AAD               	incf	_timeSaid,f
  3023  02BB                     l1976:	
  3024                           
  3025                           ;Lab3_Main.c: 121:         if (PORTBbits.RB3 == 1 && !pressedHour)
  3026  02BB  1D8D               	btfss	13,3	;volatile
  3027  02BC  2AC2               	goto	l248
  3028  02BD  082B               	movf	_pressedHour,w
  3029  02BE  1D03               	btfss	3,2
  3030  02BF  2AC2               	goto	l248
  3031                           
  3032                           ;Lab3_Main.c: 122:         {;Lab3_Main.c: 123:             pressedHour = 1;
  3033  02C0  01AB               	clrf	_pressedHour
  3034  02C1  0AAB               	incf	_pressedHour,f
  3035  02C2                     l248:	
  3036                           ;Lab3_Main.c: 124:         }
  3037                           
  3038                           
  3039                           ;Lab3_Main.c: 125:         if (PORTBbits.RB3 == 0 && pressedHour)
  3040  02C2  198D               	btfsc	13,3	;volatile
  3041  02C3  2AE0               	goto	l1996
  3042  02C4  082B               	movf	_pressedHour,w
  3043  02C5  1903               	btfsc	3,2
  3044  02C6  2AE0               	goto	l1996
  3045                           
  3046                           ;Lab3_Main.c: 126:         {;Lab3_Main.c: 127:             pressedHour = 0;
  3047  02C7  01AB               	clrf	_pressedHour
  3048                           
  3049                           ;Lab3_Main.c: 128:             G_u16hour++;
  3050  02C8  3001               	movlw	1
  3051  02C9  07C8               	addwf	_G_u16hour,f
  3052  02CA  3000               	movlw	0
  3053  02CB  3DC9               	addwfc	_G_u16hour+1,f
  3054                           
  3055                           ;Lab3_Main.c: 129:             if (G_u16hour == 24)
  3056  02CC  3018               	movlw	24
  3057  02CD  0648               	xorwf	_G_u16hour,w
  3058  02CE  0449               	iorwf	_G_u16hour+1,w
  3059  02CF  1D03               	btfss	3,2
  3060  02D0  2AD3               	goto	l1992
  3061                           
  3062                           ;Lab3_Main.c: 130:             {;Lab3_Main.c: 131:                 G_u16hour = 0;
  3063  02D1  01C8               	clrf	_G_u16hour
  3064  02D2  01C9               	clrf	_G_u16hour+1
  3065  02D3                     l1992:	
  3066                           
  3067                           ;Lab3_Main.c: 133:             timeSaid = 1;
  3068  02D3  01AD               	clrf	_timeSaid
  3069  02D4  0AAD               	incf	_timeSaid,f
  3070                           
  3071                           ;Lab3_Main.c: 134:             readTime(G_u16hour, G_u16min);
  3072  02D5  0849               	movf	_G_u16hour+1,w
  3073  02D6  00BC               	movwf	readTime@hour+1
  3074  02D7  0848               	movf	_G_u16hour,w
  3075  02D8  00BB               	movwf	readTime@hour
  3076  02D9  0847               	movf	_G_u16min+1,w
  3077  02DA  00BE               	movwf	readTime@minute+1
  3078  02DB  0846               	movf	_G_u16min,w
  3079  02DC  00BD               	movwf	readTime@minute
  3080  02DD  3182  2252  3182   	fcall	_readTime
  3081  02E0                     l1996:	
  3082                           
  3083                           ;Lab3_Main.c: 138:         if (PORTBbits.RB2 == 1 && !pressedMin)
  3084  02E0  0020               	movlb	0	; select bank0
  3085  02E1  1D0D               	btfss	13,2	;volatile
  3086  02E2  2AE8               	goto	l251
  3087  02E3  082A               	movf	_pressedMin,w
  3088  02E4  1D03               	btfss	3,2
  3089  02E5  2AE8               	goto	l251
  3090                           
  3091                           ;Lab3_Main.c: 139:         {;Lab3_Main.c: 140:             pressedMin = 1;
  3092  02E6  01AA               	clrf	_pressedMin
  3093  02E7  0AAA               	incf	_pressedMin,f
  3094  02E8                     l251:	
  3095                           ;Lab3_Main.c: 141:         }
  3096                           
  3097                           
  3098                           ;Lab3_Main.c: 142:         if (PORTBbits.RB2 == 0 && pressedMin)
  3099  02E8  190D               	btfsc	13,2	;volatile
  3100  02E9  2B06               	goto	l2016
  3101  02EA  082A               	movf	_pressedMin,w
  3102  02EB  1903               	btfsc	3,2
  3103  02EC  2B06               	goto	l2016
  3104                           
  3105                           ;Lab3_Main.c: 143:         {;Lab3_Main.c: 144:             pressedMin = 0;
  3106  02ED  01AA               	clrf	_pressedMin
  3107                           
  3108                           ;Lab3_Main.c: 145:             G_u16min++;
  3109  02EE  3001               	movlw	1
  3110  02EF  07C6               	addwf	_G_u16min,f
  3111  02F0  3000               	movlw	0
  3112  02F1  3DC7               	addwfc	_G_u16min+1,f
  3113                           
  3114                           ;Lab3_Main.c: 146:             if (G_u16min == 60)
  3115  02F2  303C               	movlw	60
  3116  02F3  0646               	xorwf	_G_u16min,w
  3117  02F4  0447               	iorwf	_G_u16min+1,w
  3118  02F5  1D03               	btfss	3,2
  3119  02F6  2AF9               	goto	l2012
  3120                           
  3121                           ;Lab3_Main.c: 147:             {;Lab3_Main.c: 148:                 G_u16min = 0;
  3122  02F7  01C6               	clrf	_G_u16min
  3123  02F8  01C7               	clrf	_G_u16min+1
  3124  02F9                     l2012:	
  3125                           
  3126                           ;Lab3_Main.c: 150:             timeSaid = 1;
  3127  02F9  01AD               	clrf	_timeSaid
  3128  02FA  0AAD               	incf	_timeSaid,f
  3129                           
  3130                           ;Lab3_Main.c: 151:             readTime(G_u16hour, G_u16min);
  3131  02FB  0849               	movf	_G_u16hour+1,w
  3132  02FC  00BC               	movwf	readTime@hour+1
  3133  02FD  0848               	movf	_G_u16hour,w
  3134  02FE  00BB               	movwf	readTime@hour
  3135  02FF  0847               	movf	_G_u16min+1,w
  3136  0300  00BE               	movwf	readTime@minute+1
  3137  0301  0846               	movf	_G_u16min,w
  3138  0302  00BD               	movwf	readTime@minute
  3139  0303  3182  2252  3182   	fcall	_readTime
  3140  0306                     l2016:	
  3141                           
  3142                           ;Lab3_Main.c: 155:         if (PORTBbits.RB1 == 1 && !pressedToggle)
  3143  0306  0020               	movlb	0	; select bank0
  3144  0307  1C8D               	btfss	13,1	;volatile
  3145  0308  2B0E               	goto	l254
  3146  0309  0829               	movf	_pressedToggle,w
  3147  030A  1D03               	btfss	3,2
  3148  030B  2B0E               	goto	l254
  3149                           
  3150                           ;Lab3_Main.c: 156:         {;Lab3_Main.c: 157:             pressedToggle = 1;
  3151  030C  01A9               	clrf	_pressedToggle
  3152  030D  0AA9               	incf	_pressedToggle,f
  3153  030E                     l254:	
  3154                           ;Lab3_Main.c: 158:         }
  3155                           
  3156                           
  3157                           ;Lab3_Main.c: 159:         if (PORTBbits.RB1 == 0 && pressedToggle)
  3158  030E  188D               	btfsc	13,1	;volatile
  3159  030F  2B14               	goto	l2026
  3160  0310  0829               	movf	_pressedToggle,w
  3161  0311  1903               	btfsc	3,2
  3162  0312  2B14               	goto	l2026
  3163                           
  3164                           ;Lab3_Main.c: 160:         {;Lab3_Main.c: 161:             pressedToggle = 0;
  3165  0313  01A9               	clrf	_pressedToggle
  3166  0314                     l2026:	
  3167                           
  3168                           ;Lab3_Main.c: 165:         if (PORTBbits.RB0 == 1 && !pressedSnooze)
  3169  0314  1C0D               	btfss	13,0	;volatile
  3170  0315  2B1B               	goto	l256
  3171  0316  0828               	movf	_pressedSnooze,w
  3172  0317  1D03               	btfss	3,2
  3173  0318  2B1B               	goto	l256
  3174                           
  3175                           ;Lab3_Main.c: 166:         {;Lab3_Main.c: 167:             pressedSnooze = 1;
  3176  0319  01A8               	clrf	_pressedSnooze
  3177  031A  0AA8               	incf	_pressedSnooze,f
  3178  031B                     l256:	
  3179                           ;Lab3_Main.c: 168:         }
  3180                           
  3181                           
  3182                           ;Lab3_Main.c: 169:         if (PORTBbits.RB0 == 0 && pressedSnooze)
  3183  031B  180D               	btfsc	13,0	;volatile
  3184  031C  0008               	return
  3185  031D  0828               	movf	_pressedSnooze,w
  3186  031E  1903               	btfsc	3,2
  3187  031F  0008               	return
  3188                           
  3189                           ;Lab3_Main.c: 170:         {;Lab3_Main.c: 171:             pressedSnooze = 0;
  3190  0320  01A8               	clrf	_pressedSnooze
  3191  0321  0008               	return
  3192  0322                     __end_of_checkButtonPress:	
  3193                           
  3194                           	psect	text4
  3195  0252                     __ptext4:	
  3196 ;; *************** function _readTime *****************
  3197 ;; Defined at:
  3198 ;;		line 175 in file "Lab3_Main.c"
  3199 ;; Parameters:    Size  Location     Type
  3200 ;;  hour            2    8[BANK0 ] short 
  3201 ;;  minute          2   10[BANK0 ] short 
  3202 ;; Auto vars:     Size  Location     Type
  3203 ;;  temphour        2   12[BANK0 ] unsigned short 
  3204 ;; Return value:  Size  Location     Type
  3205 ;;                  1    wreg      void 
  3206 ;; Registers used:
  3207 ;;		wreg, fsr0l, fsr0h, fsr1l, fsr1h, status,2, status,0, pclath, cstack
  3208 ;; Tracked objects:
  3209 ;;		On entry : 0/0
  3210 ;;		On exit  : 0/0
  3211 ;;		Unchanged: 0/0
  3212 ;; Data sizes:     COMMON   BANK0   BANK1   BANK2   BANK3   BANK4   BANK5   BANK6   BANK7   BANK8   BANK9  BANK10  BANK1
      +1  BANK12  BANK13  BANK14  BANK15  BANK16  BANK17  BANK18  BANK19  BANK20  BANK21  BANK22  BANK23  BANK24  BANK25
  3213 ;;      Params:         0       4       0       0       0       0       0       0       0       0       0       0       
      +0       0       0       0       0       0       0       0       0       0       0       0       0       0       0
  3214 ;;      Locals:         0       2       0       0       0       0       0       0       0       0       0       0       
      +0       0       0       0       0       0       0       0       0       0       0       0       0       0       0
  3215 ;;      Temps:          1       0       0       0       0       0       0       0       0       0       0       0       
      +0       0       0       0       0       0       0       0       0       0       0       0       0       0       0
  3216 ;;      Totals:         1       6       0       0       0       0       0       0       0       0       0       0       
      +0       0       0       0       0       0       0       0       0       0       0       0       0       0       0
  3217 ;;Total ram usage:        7 bytes
  3218 ;; Hardware stack levels used:    1
  3219 ;; Hardware stack levels required when called:    6
  3220 ;; This function calls:
  3221 ;;		_playAudio
  3222 ;;		_playHour
  3223 ;;		_playMinute10
  3224 ;; This function is called by:
  3225 ;;		_main
  3226 ;;		_checkButtonPress
  3227 ;; This function uses a non-reentrant model
  3228 ;;
  3229                           
  3230                           
  3231                           ;psect for function _readTime
  3232  0252                     _readTime:	
  3233                           
  3234                           ;Lab3_Main.c: 175: void readTime (short hour, short minute);Lab3_Main.c: 176: {;Lab3_Mai
      +                          n.c: 177:     if (timeSaid == 1)
  3235                           
  3236                           ;incstack = 0
  3237                           ; Regs used in _readTime: [wreg-fsr1h+status,2+status,0+pclath+cstack]
  3238  0252  0020               	movlb	0	; select bank0
  3239  0253  032D               	decf	_timeSaid,w
  3240  0254  1D03               	btfss	3,2
  3241  0255  0008               	return
  3242                           
  3243                           ;Lab3_Main.c: 178:     {;Lab3_Main.c: 179:         if (hour < 12)
  3244  0256  083C               	movf	readTime@hour+1,w
  3245  0257  3A80               	xorlw	128
  3246  0258  00FC               	movwf	??_readTime
  3247  0259  3080               	movlw	128
  3248  025A  027C               	subwf	??_readTime,w
  3249  025B  1D03               	skipz
  3250  025C  2A5F               	goto	u1685
  3251  025D  300C               	movlw	12
  3252  025E  023B               	subwf	readTime@hour,w
  3253  025F                     u1685:	
  3254  025F  1803               	skipnc
  3255  0260  2A80               	goto	l1888
  3256                           
  3257                           ;Lab3_Main.c: 180:         {;Lab3_Main.c: 181:             playHour(hour);
  3258  0261  0020               	movlb	0	; select bank0
  3259  0262  083C               	movf	readTime@hour+1,w
  3260  0263  00B8               	movwf	playHour@hour+1
  3261  0264  083B               	movf	readTime@hour,w
  3262  0265  00B7               	movwf	playHour@hour
  3263  0266  3184  24D3  3182   	fcall	_playHour
  3264                           
  3265                           ;Lab3_Main.c: 182:             playMinute10(minute);
  3266  0269  0020               	movlb	0	; select bank0
  3267  026A  083E               	movf	readTime@minute+1,w
  3268  026B  00BA               	movwf	playMinute10@minute+1
  3269  026C  083D               	movf	readTime@minute,w
  3270  026D  00B9               	movwf	playMinute10@minute
  3271  026E  3183  23AE  3182   	fcall	_playMinute10
  3272                           
  3273                           ;Lab3_Main.c: 183:             playAudio(G_au16startAddresses[0], G_au16endAddresses[0])
      +                          ;
  3274  0271  0021               	movlb	1	; select bank1
  3275  0272  0821               	movf	(_G_au16startAddresses+1)^(0+128),w
  3276  0273  0020               	movlb	0	; select bank0
  3277  0274  00B4               	movwf	playAudio@startAddress+1
  3278  0275  0021               	movlb	1	; select bank1
  3279  0276  0820               	movf	_G_au16startAddresses^(0+128),w
  3280  0277  0020               	movlb	0	; select bank0
  3281  0278  00B3               	movwf	playAudio@startAddress
  3282  0279  0022               	movlb	2	; select bank2
  3283  027A  0821               	movf	(_G_au16endAddresses+1)^(0+256),w
  3284  027B  0020               	movlb	0	; select bank0
  3285  027C  00B6               	movwf	playAudio@endAddress+1
  3286  027D  0022               	movlb	2	; select bank2
  3287  027E  0820               	movf	_G_au16endAddresses^(0+256),w
  3288  027F  2AA4               	goto	L1
  3289  0280                     l1888:	
  3290                           ;Lab3_Main.c: 184:         } else
  3291                           
  3292                           
  3293                           ;Lab3_Main.c: 185:         {;Lab3_Main.c: 186:             unsigned short temphour = hou
      +                          r - 12;
  3294  0280  0020               	movlb	0	; select bank0
  3295  0281  083B               	movf	readTime@hour,w
  3296  0282  3EF4               	addlw	244
  3297  0283  00BF               	movwf	readTime@temphour
  3298  0284  30FF               	movlw	255
  3299  0285  3D3C               	addwfc	readTime@hour+1,w
  3300  0286  00C0               	movwf	readTime@temphour+1
  3301                           
  3302                           ;Lab3_Main.c: 187:             playHour(temphour);
  3303  0287  0840               	movf	readTime@temphour+1,w
  3304  0288  00B8               	movwf	playHour@hour+1
  3305  0289  083F               	movf	readTime@temphour,w
  3306  028A  00B7               	movwf	playHour@hour
  3307  028B  3184  24D3  3182   	fcall	_playHour
  3308                           
  3309                           ;Lab3_Main.c: 188:             playMinute10(minute);
  3310  028E  0020               	movlb	0	; select bank0
  3311  028F  083E               	movf	readTime@minute+1,w
  3312  0290  00BA               	movwf	playMinute10@minute+1
  3313  0291  083D               	movf	readTime@minute,w
  3314  0292  00B9               	movwf	playMinute10@minute
  3315  0293  3183  23AE  3182   	fcall	_playMinute10
  3316                           
  3317                           ;Lab3_Main.c: 189:             playAudio(G_au16startAddresses[22], G_au16endAddresses[22
      +                          ]);
  3318  0296  0021               	movlb	1	; select bank1
  3319  0297  084D               	movf	((_G_au16startAddresses+1)^(0+128)+44),w
  3320  0298  0020               	movlb	0	; select bank0
  3321  0299  00B4               	movwf	playAudio@startAddress+1
  3322  029A  0021               	movlb	1	; select bank1
  3323  029B  084C               	movf	(_G_au16startAddresses^(0+128)+44),w
  3324  029C  0020               	movlb	0	; select bank0
  3325  029D  00B3               	movwf	playAudio@startAddress
  3326  029E  0022               	movlb	2	; select bank2
  3327  029F  084D               	movf	((_G_au16endAddresses+1)^(0+256)+44),w
  3328  02A0  0020               	movlb	0	; select bank0
  3329  02A1  00B6               	movwf	playAudio@endAddress+1
  3330  02A2  0022               	movlb	2	; select bank2
  3331  02A3  084C               	movf	(_G_au16endAddresses^(0+256)+44),w
  3332  02A4                     L1:	
  3333  02A4  0020               	movlb	0	; select bank0
  3334  02A5  00B5               	movwf	playAudio@endAddress
  3335  02A6  3180  2063         	fcall	_playAudio
  3336                           
  3337                           ;Lab3_Main.c: 191:         timeSaid = 0;
  3338  02A8  0020               	movlb	0	; select bank0
  3339  02A9  01AD               	clrf	_timeSaid
  3340  02AA  0008               	return
  3341  02AB                     __end_of_readTime:	
  3342                           
  3343                           	psect	text5
  3344  03AE                     __ptext5:	
  3345 ;; *************** function _playMinute10 *****************
  3346 ;; Defined at:
  3347 ;;		line 225 in file "Lab3_Main.c"
  3348 ;; Parameters:    Size  Location     Type
  3349 ;;  minute          2    6[BANK0 ] short 
  3350 ;; Auto vars:     Size  Location     Type
  3351 ;;		None
  3352 ;; Return value:  Size  Location     Type
  3353 ;;                  1    wreg      void 
  3354 ;; Registers used:
  3355 ;;		wreg, fsr0l, fsr0h, fsr1l, fsr1h, status,2, status,0, pclath, cstack
  3356 ;; Tracked objects:
  3357 ;;		On entry : 0/0
  3358 ;;		On exit  : 0/0
  3359 ;;		Unchanged: 0/0
  3360 ;; Data sizes:     COMMON   BANK0   BANK1   BANK2   BANK3   BANK4   BANK5   BANK6   BANK7   BANK8   BANK9  BANK10  BANK1
      +1  BANK12  BANK13  BANK14  BANK15  BANK16  BANK17  BANK18  BANK19  BANK20  BANK21  BANK22  BANK23  BANK24  BANK25
  3361 ;;      Params:         0       2       0       0       0       0       0       0       0       0       0       0       
      +0       0       0       0       0       0       0       0       0       0       0       0       0       0       0
  3362 ;;      Locals:         0       0       0       0       0       0       0       0       0       0       0       0       
      +0       0       0       0       0       0       0       0       0       0       0       0       0       0       0
  3363 ;;      Temps:          0       0       0       0       0       0       0       0       0       0       0       0       
      +0       0       0       0       0       0       0       0       0       0       0       0       0       0       0
  3364 ;;      Totals:         0       2       0       0       0       0       0       0       0       0       0       0       
      +0       0       0       0       0       0       0       0       0       0       0       0       0       0       0
  3365 ;;Total ram usage:        2 bytes
  3366 ;; Hardware stack levels used:    1
  3367 ;; Hardware stack levels required when called:    5
  3368 ;; This function calls:
  3369 ;;		___awdiv
  3370 ;;		_playAudio
  3371 ;;		_playMinute
  3372 ;; This function is called by:
  3373 ;;		_readTime
  3374 ;; This function uses a non-reentrant model
  3375 ;;
  3376                           
  3377                           
  3378                           ;psect for function _playMinute10
  3379  03AE                     _playMinute10:	
  3380                           
  3381                           ;Lab3_Main.c: 225: void playMinute10 (short minute);Lab3_Main.c: 226: {;Lab3_Main.c: 227
      +                          :     if (minute/10 == 2){
  3382                           
  3383                           ;incstack = 0
  3384                           ; Regs used in _playMinute10: [wreg-fsr1h+status,2+status,0+pclath+cstack]
  3385  03AE  300A               	movlw	10
  3386  03AF  00F0               	movwf	___awdiv@divisor
  3387  03B0  3000               	movlw	0
  3388  03B1  00F1               	movwf	___awdiv@divisor+1
  3389  03B2  0020               	movlb	0	; select bank0
  3390  03B3  083A               	movf	playMinute10@minute+1,w
  3391  03B4  00F3               	movwf	___awdiv@dividend+1
  3392  03B5  0839               	movf	playMinute10@minute,w
  3393  03B6  00F2               	movwf	___awdiv@dividend
  3394  03B7  3181  21AB  3183   	fcall	___awdiv
  3395  03BA  3002               	movlw	2
  3396  03BB  0670               	xorwf	?___awdiv,w
  3397  03BC  0471               	iorwf	?___awdiv+1,w
  3398  03BD  1D03               	btfss	3,2
  3399  03BE  2BCE               	goto	l1812
  3400                           
  3401                           ;Lab3_Main.c: 228:            playAudio(G_au16startAddresses[32], G_au16endAddresses[32]
      +                          );
  3402  03BF  0021               	movlb	1	; select bank1
  3403  03C0  0861               	movf	((_G_au16startAddresses+1)^(0+128)+64),w
  3404  03C1  0020               	movlb	0	; select bank0
  3405  03C2  00B4               	movwf	playAudio@startAddress+1
  3406  03C3  0021               	movlb	1	; select bank1
  3407  03C4  0860               	movf	(_G_au16startAddresses^(0+128)+64),w
  3408  03C5  0020               	movlb	0	; select bank0
  3409  03C6  00B3               	movwf	playAudio@startAddress
  3410  03C7  0022               	movlb	2	; select bank2
  3411  03C8  0861               	movf	((_G_au16endAddresses+1)^(0+256)+64),w
  3412  03C9  0020               	movlb	0	; select bank0
  3413  03CA  00B6               	movwf	playAudio@endAddress+1
  3414  03CB  0022               	movlb	2	; select bank2
  3415  03CC  0860               	movf	(_G_au16endAddresses^(0+256)+64),w
  3416  03CD  2C2D               	goto	L2
  3417  03CE                     l1812:	
  3418                           ;Lab3_Main.c: 229:     } else if (minute/10 == 3){
  3419                           
  3420  03CE  300A               	movlw	10
  3421  03CF  00F0               	movwf	___awdiv@divisor
  3422  03D0  3000               	movlw	0
  3423  03D1  00F1               	movwf	___awdiv@divisor+1
  3424  03D2  0020               	movlb	0	; select bank0
  3425  03D3  083A               	movf	playMinute10@minute+1,w
  3426  03D4  00F3               	movwf	___awdiv@dividend+1
  3427  03D5  0839               	movf	playMinute10@minute,w
  3428  03D6  00F2               	movwf	___awdiv@dividend
  3429  03D7  3181  21AB  3183   	fcall	___awdiv
  3430  03DA  3003               	movlw	3
  3431  03DB  0670               	xorwf	?___awdiv,w
  3432  03DC  0471               	iorwf	?___awdiv+1,w
  3433  03DD  1D03               	btfss	3,2
  3434  03DE  2BEE               	goto	l1816
  3435                           
  3436                           ;Lab3_Main.c: 230:            playAudio(G_au16startAddresses[29], G_au16endAddresses[29]
      +                          );
  3437  03DF  0021               	movlb	1	; select bank1
  3438  03E0  085B               	movf	((_G_au16startAddresses+1)^(0+128)+58),w
  3439  03E1  0020               	movlb	0	; select bank0
  3440  03E2  00B4               	movwf	playAudio@startAddress+1
  3441  03E3  0021               	movlb	1	; select bank1
  3442  03E4  085A               	movf	(_G_au16startAddresses^(0+128)+58),w
  3443  03E5  0020               	movlb	0	; select bank0
  3444  03E6  00B3               	movwf	playAudio@startAddress
  3445  03E7  0022               	movlb	2	; select bank2
  3446  03E8  085B               	movf	((_G_au16endAddresses+1)^(0+256)+58),w
  3447  03E9  0020               	movlb	0	; select bank0
  3448  03EA  00B6               	movwf	playAudio@endAddress+1
  3449  03EB  0022               	movlb	2	; select bank2
  3450  03EC  085A               	movf	(_G_au16endAddresses^(0+256)+58),w
  3451  03ED  2C2D               	goto	L2
  3452  03EE                     l1816:	
  3453                           ;Lab3_Main.c: 231:     } else if (minute/10 == 4){
  3454                           
  3455  03EE  300A               	movlw	10
  3456  03EF  00F0               	movwf	___awdiv@divisor
  3457  03F0  3000               	movlw	0
  3458  03F1  00F1               	movwf	___awdiv@divisor+1
  3459  03F2  0020               	movlb	0	; select bank0
  3460  03F3  083A               	movf	playMinute10@minute+1,w
  3461  03F4  00F3               	movwf	___awdiv@dividend+1
  3462  03F5  0839               	movf	playMinute10@minute,w
  3463  03F6  00F2               	movwf	___awdiv@dividend
  3464  03F7  3181  21AB  3183   	fcall	___awdiv
  3465  03FA  3004               	movlw	4
  3466  03FB  0670               	xorwf	?___awdiv,w
  3467  03FC  0471               	iorwf	?___awdiv+1,w
  3468  03FD  1D03               	btfss	3,2
  3469  03FE  2C0E               	goto	l1820
  3470                           
  3471                           ;Lab3_Main.c: 232:            playAudio(G_au16startAddresses[9], G_au16endAddresses[9]);
  3472  03FF  0021               	movlb	1	; select bank1
  3473  0400  0833               	movf	((_G_au16startAddresses+1)^(0+128)+18),w
  3474  0401  0020               	movlb	0	; select bank0
  3475  0402  00B4               	movwf	playAudio@startAddress+1
  3476  0403  0021               	movlb	1	; select bank1
  3477  0404  0832               	movf	(_G_au16startAddresses^(0+128)+18),w
  3478  0405  0020               	movlb	0	; select bank0
  3479  0406  00B3               	movwf	playAudio@startAddress
  3480  0407  0022               	movlb	2	; select bank2
  3481  0408  0833               	movf	((_G_au16endAddresses+1)^(0+256)+18),w
  3482  0409  0020               	movlb	0	; select bank0
  3483  040A  00B6               	movwf	playAudio@endAddress+1
  3484  040B  0022               	movlb	2	; select bank2
  3485  040C  0832               	movf	(_G_au16endAddresses^(0+256)+18),w
  3486  040D  2C2D               	goto	L2
  3487  040E                     l1820:	
  3488                           ;Lab3_Main.c: 233:     } else if (minute/10 == 5){
  3489                           
  3490  040E  300A               	movlw	10
  3491  040F  00F0               	movwf	___awdiv@divisor
  3492  0410  3000               	movlw	0
  3493  0411  00F1               	movwf	___awdiv@divisor+1
  3494  0412  0020               	movlb	0	; select bank0
  3495  0413  083A               	movf	playMinute10@minute+1,w
  3496  0414  00F3               	movwf	___awdiv@dividend+1
  3497  0415  0839               	movf	playMinute10@minute,w
  3498  0416  00F2               	movwf	___awdiv@dividend
  3499  0417  3181  21AB  3183   	fcall	___awdiv
  3500  041A  3005               	movlw	5
  3501  041B  0670               	xorwf	?___awdiv,w
  3502  041C  0471               	iorwf	?___awdiv+1,w
  3503  041D  1D03               	btfss	3,2
  3504  041E  2C32               	goto	l294
  3505                           
  3506                           ;Lab3_Main.c: 234:            playAudio(G_au16startAddresses[5], G_au16endAddresses[5]);
  3507  041F  0021               	movlb	1	; select bank1
  3508  0420  082B               	movf	((_G_au16startAddresses+1)^(0+128)+10),w
  3509  0421  0020               	movlb	0	; select bank0
  3510  0422  00B4               	movwf	playAudio@startAddress+1
  3511  0423  0021               	movlb	1	; select bank1
  3512  0424  082A               	movf	(_G_au16startAddresses^(0+128)+10),w
  3513  0425  0020               	movlb	0	; select bank0
  3514  0426  00B3               	movwf	playAudio@startAddress
  3515  0427  0022               	movlb	2	; select bank2
  3516  0428  082B               	movf	((_G_au16endAddresses+1)^(0+256)+10),w
  3517  0429  0020               	movlb	0	; select bank0
  3518  042A  00B6               	movwf	playAudio@endAddress+1
  3519  042B  0022               	movlb	2	; select bank2
  3520  042C  082A               	movf	(_G_au16endAddresses^(0+256)+10),w
  3521  042D                     L2:	
  3522  042D  0020               	movlb	0	; select bank0
  3523  042E  00B5               	movwf	playAudio@endAddress
  3524  042F  3180  2063  3183   	fcall	_playAudio
  3525  0432                     l294:	
  3526                           
  3527                           ;Lab3_Main.c: 236:       playMinute(minute);
  3528  0432  0020               	movlb	0	; select bank0
  3529  0433  083A               	movf	playMinute10@minute+1,w
  3530  0434  00B8               	movwf	playMinute@minute+1
  3531  0435  0839               	movf	playMinute10@minute,w
  3532  0436  00B7               	movwf	playMinute@minute
  3533  0437  3185  25F2         	fcall	_playMinute
  3534  0439  0008               	return
  3535  043A                     __end_of_playMinute10:	
  3536                           
  3537                           	psect	text6
  3538  05F2                     __ptext6:	
  3539 ;; *************** function _playMinute *****************
  3540 ;; Defined at:
  3541 ;;		line 240 in file "Lab3_Main.c"
  3542 ;; Parameters:    Size  Location     Type
  3543 ;;  minute          2    4[BANK0 ] short 
  3544 ;; Auto vars:     Size  Location     Type
  3545 ;;		None
  3546 ;; Return value:  Size  Location     Type
  3547 ;;                  1    wreg      void 
  3548 ;; Registers used:
  3549 ;;		wreg, fsr0l, fsr0h, fsr1l, fsr1h, status,2, status,0, pclath, cstack
  3550 ;; Tracked objects:
  3551 ;;		On entry : 0/0
  3552 ;;		On exit  : 0/0
  3553 ;;		Unchanged: 0/0
  3554 ;; Data sizes:     COMMON   BANK0   BANK1   BANK2   BANK3   BANK4   BANK5   BANK6   BANK7   BANK8   BANK9  BANK10  BANK1
      +1  BANK12  BANK13  BANK14  BANK15  BANK16  BANK17  BANK18  BANK19  BANK20  BANK21  BANK22  BANK23  BANK24  BANK25
  3555 ;;      Params:         0       2       0       0       0       0       0       0       0       0       0       0       
      +0       0       0       0       0       0       0       0       0       0       0       0       0       0       0
  3556 ;;      Locals:         0       0       0       0       0       0       0       0       0       0       0       0       
      +0       0       0       0       0       0       0       0       0       0       0       0       0       0       0
  3557 ;;      Temps:          0       0       0       0       0       0       0       0       0       0       0       0       
      +0       0       0       0       0       0       0       0       0       0       0       0       0       0       0
  3558 ;;      Totals:         0       2       0       0       0       0       0       0       0       0       0       0       
      +0       0       0       0       0       0       0       0       0       0       0       0       0       0       0
  3559 ;;Total ram usage:        2 bytes
  3560 ;; Hardware stack levels used:    1
  3561 ;; Hardware stack levels required when called:    4
  3562 ;; This function calls:
  3563 ;;		___awdiv
  3564 ;;		_playAudio
  3565 ;; This function is called by:
  3566 ;;		_playMinute10
  3567 ;; This function uses a non-reentrant model
  3568 ;;
  3569                           
  3570                           
  3571                           ;psect for function _playMinute
  3572  05F2                     _playMinute:	
  3573                           
  3574                           ;Lab3_Main.c: 240: void playMinute (short minute);Lab3_Main.c: 241: {;Lab3_Main.c: 242: 
      +                              if (minute/10 == 1) {
  3575                           
  3576                           ;incstack = 0
  3577                           ; Regs used in _playMinute: [wreg-fsr1h+status,2+status,0+pclath+cstack]
  3578  05F2  300A               	movlw	10
  3579  05F3  00F0               	movwf	___awdiv@divisor
  3580  05F4  3000               	movlw	0
  3581  05F5  00F1               	movwf	___awdiv@divisor+1
  3582  05F6  0020               	movlb	0	; select bank0
  3583  05F7  0838               	movf	playMinute@minute+1,w
  3584  05F8  00F3               	movwf	___awdiv@dividend+1
  3585  05F9  0837               	movf	playMinute@minute,w
  3586  05FA  00F2               	movwf	___awdiv@dividend
  3587  05FB  3181  21AB  3185   	fcall	___awdiv
  3588  05FE  0370               	decf	?___awdiv,w
  3589  05FF  0471               	iorwf	?___awdiv+1,w
  3590  0600  1D03               	btfss	3,2
  3591  0601  2EEC               	goto	l1720
  3592                           
  3593                           ;Lab3_Main.c: 243:         if (minute == 10) {
  3594  0602  300A               	movlw	10
  3595  0603  0020               	movlb	0	; select bank0
  3596  0604  0637               	xorwf	playMinute@minute,w
  3597  0605  0438               	iorwf	playMinute@minute+1,w
  3598  0606  1D03               	btfss	3,2
  3599  0607  2E1B               	goto	l1684
  3600                           
  3601                           ;Lab3_Main.c: 244:             playAudio(G_au16startAddresses[27], G_au16endAddresses[27
      +                          ]);
  3602  0608  0021               	movlb	1	; select bank1
  3603  0609  0857               	movf	((_G_au16startAddresses+1)^(0+128)+54),w
  3604  060A  0020               	movlb	0	; select bank0
  3605  060B  00B4               	movwf	playAudio@startAddress+1
  3606  060C  0021               	movlb	1	; select bank1
  3607  060D  0856               	movf	(_G_au16startAddresses^(0+128)+54),w
  3608  060E  0020               	movlb	0	; select bank0
  3609  060F  00B3               	movwf	playAudio@startAddress
  3610  0610  0022               	movlb	2	; select bank2
  3611  0611  0857               	movf	((_G_au16endAddresses+1)^(0+256)+54),w
  3612  0612  0020               	movlb	0	; select bank0
  3613  0613  00B6               	movwf	playAudio@endAddress+1
  3614  0614  0022               	movlb	2	; select bank2
  3615  0615  0856               	movf	(_G_au16endAddresses^(0+256)+54),w
  3616  0616  0020               	movlb	0	; select bank0
  3617  0617  00B5               	movwf	playAudio@endAddress
  3618  0618  3180  2063         	fcall	_playAudio
  3619                           
  3620                           ;Lab3_Main.c: 245:         } else if (minute == 11) {
  3621  061A  0008               	return
  3622  061B                     l1684:	
  3623  061B  300B               	movlw	11
  3624  061C  0637               	xorwf	playMinute@minute,w
  3625  061D  0438               	iorwf	playMinute@minute+1,w
  3626  061E  1D03               	btfss	3,2
  3627  061F  2E33               	goto	l1688
  3628                           
  3629                           ;Lab3_Main.c: 246:             playAudio(G_au16startAddresses[3], G_au16endAddresses[3])
      +                          ;
  3630  0620  0021               	movlb	1	; select bank1
  3631  0621  0827               	movf	((_G_au16startAddresses+1)^(0+128)+6),w
  3632  0622  0020               	movlb	0	; select bank0
  3633  0623  00B4               	movwf	playAudio@startAddress+1
  3634  0624  0021               	movlb	1	; select bank1
  3635  0625  0826               	movf	(_G_au16startAddresses^(0+128)+6),w
  3636  0626  0020               	movlb	0	; select bank0
  3637  0627  00B3               	movwf	playAudio@startAddress
  3638  0628  0022               	movlb	2	; select bank2
  3639  0629  0827               	movf	((_G_au16endAddresses+1)^(0+256)+6),w
  3640  062A  0020               	movlb	0	; select bank0
  3641  062B  00B6               	movwf	playAudio@endAddress+1
  3642  062C  0022               	movlb	2	; select bank2
  3643  062D  0826               	movf	(_G_au16endAddresses^(0+256)+6),w
  3644  062E  0020               	movlb	0	; select bank0
  3645  062F  00B5               	movwf	playAudio@endAddress
  3646  0630  3180  2063         	fcall	_playAudio
  3647                           
  3648                           ;Lab3_Main.c: 247:         } else if (minute == 12) {
  3649  0632  0008               	return
  3650  0633                     l1688:	
  3651  0633  300C               	movlw	12
  3652  0634  0637               	xorwf	playMinute@minute,w
  3653  0635  0438               	iorwf	playMinute@minute+1,w
  3654  0636  1D03               	btfss	3,2
  3655  0637  2E4B               	goto	l1692
  3656                           
  3657                           ;Lab3_Main.c: 248:             playAudio(G_au16startAddresses[31], G_au16endAddresses[31
      +                          ]);
  3658  0638  0021               	movlb	1	; select bank1
  3659  0639  085F               	movf	((_G_au16startAddresses+1)^(0+128)+62),w
  3660  063A  0020               	movlb	0	; select bank0
  3661  063B  00B4               	movwf	playAudio@startAddress+1
  3662  063C  0021               	movlb	1	; select bank1
  3663  063D  085E               	movf	(_G_au16startAddresses^(0+128)+62),w
  3664  063E  0020               	movlb	0	; select bank0
  3665  063F  00B3               	movwf	playAudio@startAddress
  3666  0640  0022               	movlb	2	; select bank2
  3667  0641  085F               	movf	((_G_au16endAddresses+1)^(0+256)+62),w
  3668  0642  0020               	movlb	0	; select bank0
  3669  0643  00B6               	movwf	playAudio@endAddress+1
  3670  0644  0022               	movlb	2	; select bank2
  3671  0645  085E               	movf	(_G_au16endAddresses^(0+256)+62),w
  3672  0646  0020               	movlb	0	; select bank0
  3673  0647  00B5               	movwf	playAudio@endAddress
  3674  0648  3180  2063         	fcall	_playAudio
  3675                           
  3676                           ;Lab3_Main.c: 249:         } else if (minute == 0) {
  3677  064A  0008               	return
  3678  064B                     l1692:	
  3679  064B  0837               	movf	playMinute@minute,w
  3680  064C  0438               	iorwf	playMinute@minute+1,w
  3681  064D  1D03               	btfss	3,2
  3682  064E  2E62               	goto	l1696
  3683                           
  3684                           ;Lab3_Main.c: 250:             playAudio(G_au16startAddresses[28], G_au16endAddresses[28
      +                          ]);
  3685  064F  0021               	movlb	1	; select bank1
  3686  0650  0859               	movf	((_G_au16startAddresses+1)^(0+128)+56),w
  3687  0651  0020               	movlb	0	; select bank0
  3688  0652  00B4               	movwf	playAudio@startAddress+1
  3689  0653  0021               	movlb	1	; select bank1
  3690  0654  0858               	movf	(_G_au16startAddresses^(0+128)+56),w
  3691  0655  0020               	movlb	0	; select bank0
  3692  0656  00B3               	movwf	playAudio@startAddress
  3693  0657  0022               	movlb	2	; select bank2
  3694  0658  0859               	movf	((_G_au16endAddresses+1)^(0+256)+56),w
  3695  0659  0020               	movlb	0	; select bank0
  3696  065A  00B6               	movwf	playAudio@endAddress+1
  3697  065B  0022               	movlb	2	; select bank2
  3698  065C  0858               	movf	(_G_au16endAddresses^(0+256)+56),w
  3699  065D  0020               	movlb	0	; select bank0
  3700  065E  00B5               	movwf	playAudio@endAddress
  3701  065F  3180  2063         	fcall	_playAudio
  3702                           
  3703                           ;Lab3_Main.c: 251:         } else if (minute == 0) {
  3704  0661  0008               	return
  3705  0662                     l1696:	
  3706  0662  0837               	movf	playMinute@minute,w
  3707  0663  0438               	iorwf	playMinute@minute+1,w
  3708  0664  1D03               	btfss	3,2
  3709  0665  2E79               	goto	l1700
  3710                           
  3711                           ;Lab3_Main.c: 252:             playAudio(G_au16startAddresses[8], G_au16endAddresses[8])
      +                          ;
  3712  0666  0021               	movlb	1	; select bank1
  3713  0667  0831               	movf	((_G_au16startAddresses+1)^(0+128)+16),w
  3714  0668  0020               	movlb	0	; select bank0
  3715  0669  00B4               	movwf	playAudio@startAddress+1
  3716  066A  0021               	movlb	1	; select bank1
  3717  066B  0830               	movf	(_G_au16startAddresses^(0+128)+16),w
  3718  066C  0020               	movlb	0	; select bank0
  3719  066D  00B3               	movwf	playAudio@startAddress
  3720  066E  0022               	movlb	2	; select bank2
  3721  066F  0831               	movf	((_G_au16endAddresses+1)^(0+256)+16),w
  3722  0670  0020               	movlb	0	; select bank0
  3723  0671  00B6               	movwf	playAudio@endAddress+1
  3724  0672  0022               	movlb	2	; select bank2
  3725  0673  0830               	movf	(_G_au16endAddresses^(0+256)+16),w
  3726  0674  0020               	movlb	0	; select bank0
  3727  0675  00B5               	movwf	playAudio@endAddress
  3728  0676  3180  2063         	fcall	_playAudio
  3729                           
  3730                           ;Lab3_Main.c: 253:         } else if (minute == 0) {
  3731  0678  0008               	return
  3732  0679                     l1700:	
  3733  0679  0837               	movf	playMinute@minute,w
  3734  067A  0438               	iorwf	playMinute@minute+1,w
  3735  067B  1D03               	btfss	3,2
  3736  067C  2E90               	goto	l1704
  3737                           
  3738                           ;Lab3_Main.c: 254:             playAudio(G_au16startAddresses[4], G_au16endAddresses[4])
      +                          ;
  3739  067D  0021               	movlb	1	; select bank1
  3740  067E  0829               	movf	((_G_au16startAddresses+1)^(0+128)+8),w
  3741  067F  0020               	movlb	0	; select bank0
  3742  0680  00B4               	movwf	playAudio@startAddress+1
  3743  0681  0021               	movlb	1	; select bank1
  3744  0682  0828               	movf	(_G_au16startAddresses^(0+128)+8),w
  3745  0683  0020               	movlb	0	; select bank0
  3746  0684  00B3               	movwf	playAudio@startAddress
  3747  0685  0022               	movlb	2	; select bank2
  3748  0686  0829               	movf	((_G_au16endAddresses+1)^(0+256)+8),w
  3749  0687  0020               	movlb	0	; select bank0
  3750  0688  00B6               	movwf	playAudio@endAddress+1
  3751  0689  0022               	movlb	2	; select bank2
  3752  068A  0828               	movf	(_G_au16endAddresses^(0+256)+8),w
  3753  068B  0020               	movlb	0	; select bank0
  3754  068C  00B5               	movwf	playAudio@endAddress
  3755  068D  3180  2063         	fcall	_playAudio
  3756                           
  3757                           ;Lab3_Main.c: 255:         } else if (minute == 0) {
  3758  068F  0008               	return
  3759  0690                     l1704:	
  3760  0690  0837               	movf	playMinute@minute,w
  3761  0691  0438               	iorwf	playMinute@minute+1,w
  3762  0692  1D03               	btfss	3,2
  3763  0693  2EA7               	goto	l1708
  3764                           
  3765                           ;Lab3_Main.c: 256:             playAudio(G_au16startAddresses[26], G_au16endAddresses[26
      +                          ]);
  3766  0694  0021               	movlb	1	; select bank1
  3767  0695  0855               	movf	((_G_au16startAddresses+1)^(0+128)+52),w
  3768  0696  0020               	movlb	0	; select bank0
  3769  0697  00B4               	movwf	playAudio@startAddress+1
  3770  0698  0021               	movlb	1	; select bank1
  3771  0699  0854               	movf	(_G_au16startAddresses^(0+128)+52),w
  3772  069A  0020               	movlb	0	; select bank0
  3773  069B  00B3               	movwf	playAudio@startAddress
  3774  069C  0022               	movlb	2	; select bank2
  3775  069D  0855               	movf	((_G_au16endAddresses+1)^(0+256)+52),w
  3776  069E  0020               	movlb	0	; select bank0
  3777  069F  00B6               	movwf	playAudio@endAddress+1
  3778  06A0  0022               	movlb	2	; select bank2
  3779  06A1  0854               	movf	(_G_au16endAddresses^(0+256)+52),w
  3780  06A2  0020               	movlb	0	; select bank0
  3781  06A3  00B5               	movwf	playAudio@endAddress
  3782  06A4  3180  2063         	fcall	_playAudio
  3783                           
  3784                           ;Lab3_Main.c: 257:         } else if (minute == 0) {
  3785  06A6  0008               	return
  3786  06A7                     l1708:	
  3787  06A7  0837               	movf	playMinute@minute,w
  3788  06A8  0438               	iorwf	playMinute@minute+1,w
  3789  06A9  1D03               	btfss	3,2
  3790  06AA  2EBE               	goto	l1712
  3791                           
  3792                           ;Lab3_Main.c: 258:             playAudio(G_au16startAddresses[24], G_au16endAddresses[24
      +                          ]);
  3793  06AB  0021               	movlb	1	; select bank1
  3794  06AC  0851               	movf	((_G_au16startAddresses+1)^(0+128)+48),w
  3795  06AD  0020               	movlb	0	; select bank0
  3796  06AE  00B4               	movwf	playAudio@startAddress+1
  3797  06AF  0021               	movlb	1	; select bank1
  3798  06B0  0850               	movf	(_G_au16startAddresses^(0+128)+48),w
  3799  06B1  0020               	movlb	0	; select bank0
  3800  06B2  00B3               	movwf	playAudio@startAddress
  3801  06B3  0022               	movlb	2	; select bank2
  3802  06B4  0851               	movf	((_G_au16endAddresses+1)^(0+256)+48),w
  3803  06B5  0020               	movlb	0	; select bank0
  3804  06B6  00B6               	movwf	playAudio@endAddress+1
  3805  06B7  0022               	movlb	2	; select bank2
  3806  06B8  0850               	movf	(_G_au16endAddresses^(0+256)+48),w
  3807  06B9  0020               	movlb	0	; select bank0
  3808  06BA  00B5               	movwf	playAudio@endAddress
  3809  06BB  3180  2063         	fcall	_playAudio
  3810                           
  3811                           ;Lab3_Main.c: 259:         } else if (minute == 0) {
  3812  06BD  0008               	return
  3813  06BE                     l1712:	
  3814  06BE  0837               	movf	playMinute@minute,w
  3815  06BF  0438               	iorwf	playMinute@minute+1,w
  3816  06C0  1D03               	btfss	3,2
  3817  06C1  2ED5               	goto	l1716
  3818                           
  3819                           ;Lab3_Main.c: 260:             playAudio(G_au16startAddresses[2], G_au16endAddresses[2])
      +                          ;
  3820  06C2  0021               	movlb	1	; select bank1
  3821  06C3  0825               	movf	((_G_au16startAddresses+1)^(0+128)+4),w
  3822  06C4  0020               	movlb	0	; select bank0
  3823  06C5  00B4               	movwf	playAudio@startAddress+1
  3824  06C6  0021               	movlb	1	; select bank1
  3825  06C7  0824               	movf	(_G_au16startAddresses^(0+128)+4),w
  3826  06C8  0020               	movlb	0	; select bank0
  3827  06C9  00B3               	movwf	playAudio@startAddress
  3828  06CA  0022               	movlb	2	; select bank2
  3829  06CB  0825               	movf	((_G_au16endAddresses+1)^(0+256)+4),w
  3830  06CC  0020               	movlb	0	; select bank0
  3831  06CD  00B6               	movwf	playAudio@endAddress+1
  3832  06CE  0022               	movlb	2	; select bank2
  3833  06CF  0824               	movf	(_G_au16endAddresses^(0+256)+4),w
  3834  06D0  0020               	movlb	0	; select bank0
  3835  06D1  00B5               	movwf	playAudio@endAddress
  3836  06D2  3180  2063         	fcall	_playAudio
  3837                           
  3838                           ;Lab3_Main.c: 261:         } else if (minute == 0) {
  3839  06D4  0008               	return
  3840  06D5                     l1716:	
  3841  06D5  0837               	movf	playMinute@minute,w
  3842  06D6  0438               	iorwf	playMinute@minute+1,w
  3843  06D7  1D03               	btfss	3,2
  3844  06D8  0008               	return
  3845                           
  3846                           ;Lab3_Main.c: 262:             playAudio(G_au16startAddresses[11], G_au16endAddresses[11
      +                          ]);
  3847  06D9  0021               	movlb	1	; select bank1
  3848  06DA  0837               	movf	((_G_au16startAddresses+1)^(0+128)+22),w
  3849  06DB  0020               	movlb	0	; select bank0
  3850  06DC  00B4               	movwf	playAudio@startAddress+1
  3851  06DD  0021               	movlb	1	; select bank1
  3852  06DE  0836               	movf	(_G_au16startAddresses^(0+128)+22),w
  3853  06DF  0020               	movlb	0	; select bank0
  3854  06E0  00B3               	movwf	playAudio@startAddress
  3855  06E1  0022               	movlb	2	; select bank2
  3856  06E2  0837               	movf	((_G_au16endAddresses+1)^(0+256)+22),w
  3857  06E3  0020               	movlb	0	; select bank0
  3858  06E4  00B6               	movwf	playAudio@endAddress+1
  3859  06E5  0022               	movlb	2	; select bank2
  3860  06E6  0836               	movf	(_G_au16endAddresses^(0+256)+22),w
  3861  06E7  0020               	movlb	0	; select bank0
  3862  06E8  00B5               	movwf	playAudio@endAddress
  3863  06E9  3180  2063         	fcall	_playAudio
  3864  06EB  0008               	return
  3865  06EC                     l1720:	
  3866                           
  3867                           ;Lab3_Main.c: 265:         if (minute == 9) {
  3868  06EC  3009               	movlw	9
  3869  06ED  0020               	movlb	0	; select bank0
  3870  06EE  0637               	xorwf	playMinute@minute,w
  3871  06EF  0438               	iorwf	playMinute@minute+1,w
  3872  06F0  1D03               	btfss	3,2
  3873  06F1  2F05               	goto	l1724
  3874  06F2                     l1722:	
  3875                           
  3876                           ;Lab3_Main.c: 266:             playAudio(G_au16startAddresses[16], G_au16endAddresses[16
      +                          ]);
  3877  06F2  0021               	movlb	1	; select bank1
  3878  06F3  0841               	movf	((_G_au16startAddresses+1)^(0+128)+32),w
  3879  06F4  0020               	movlb	0	; select bank0
  3880  06F5  00B4               	movwf	playAudio@startAddress+1
  3881  06F6  0021               	movlb	1	; select bank1
  3882  06F7  0840               	movf	(_G_au16startAddresses^(0+128)+32),w
  3883  06F8  0020               	movlb	0	; select bank0
  3884  06F9  00B3               	movwf	playAudio@startAddress
  3885  06FA  0022               	movlb	2	; select bank2
  3886  06FB  0841               	movf	((_G_au16endAddresses+1)^(0+256)+32),w
  3887  06FC  0020               	movlb	0	; select bank0
  3888  06FD  00B6               	movwf	playAudio@endAddress+1
  3889  06FE  0022               	movlb	2	; select bank2
  3890  06FF  0840               	movf	(_G_au16endAddresses^(0+256)+32),w
  3891  0700  0020               	movlb	0	; select bank0
  3892  0701  00B5               	movwf	playAudio@endAddress
  3893  0702  3180  2063         	fcall	_playAudio
  3894                           
  3895                           ;Lab3_Main.c: 267:         } else if (minute == 8) {
  3896  0704  0008               	return
  3897  0705                     l1724:	
  3898  0705  3008               	movlw	8
  3899  0706  0637               	xorwf	playMinute@minute,w
  3900  0707  0438               	iorwf	playMinute@minute+1,w
  3901  0708  1D03               	btfss	3,2
  3902  0709  2F1D               	goto	l1728
  3903                           
  3904                           ;Lab3_Main.c: 268:             playAudio(G_au16startAddresses[12], G_au16endAddresses[12
      +                          ]);
  3905  070A  0021               	movlb	1	; select bank1
  3906  070B  0839               	movf	((_G_au16startAddresses+1)^(0+128)+24),w
  3907  070C  0020               	movlb	0	; select bank0
  3908  070D  00B4               	movwf	playAudio@startAddress+1
  3909  070E  0021               	movlb	1	; select bank1
  3910  070F  0838               	movf	(_G_au16startAddresses^(0+128)+24),w
  3911  0710  0020               	movlb	0	; select bank0
  3912  0711  00B3               	movwf	playAudio@startAddress
  3913  0712  0022               	movlb	2	; select bank2
  3914  0713  0839               	movf	((_G_au16endAddresses+1)^(0+256)+24),w
  3915  0714  0020               	movlb	0	; select bank0
  3916  0715  00B6               	movwf	playAudio@endAddress+1
  3917  0716  0022               	movlb	2	; select bank2
  3918  0717  0838               	movf	(_G_au16endAddresses^(0+256)+24),w
  3919  0718  0020               	movlb	0	; select bank0
  3920  0719  00B5               	movwf	playAudio@endAddress
  3921  071A  3180  2063         	fcall	_playAudio
  3922                           
  3923                           ;Lab3_Main.c: 269:         } else if (minute == 7) {
  3924  071C  0008               	return
  3925  071D                     l1728:	
  3926  071D  3007               	movlw	7
  3927  071E  0637               	xorwf	playMinute@minute,w
  3928  071F  0438               	iorwf	playMinute@minute+1,w
  3929  0720  1D03               	btfss	3,2
  3930  0721  2F35               	goto	l1732
  3931                           
  3932                           ;Lab3_Main.c: 270:             playAudio(G_au16startAddresses[18], G_au16endAddresses[18
      +                          ]);
  3933  0722  0021               	movlb	1	; select bank1
  3934  0723  0845               	movf	((_G_au16startAddresses+1)^(0+128)+36),w
  3935  0724  0020               	movlb	0	; select bank0
  3936  0725  00B4               	movwf	playAudio@startAddress+1
  3937  0726  0021               	movlb	1	; select bank1
  3938  0727  0844               	movf	(_G_au16startAddresses^(0+128)+36),w
  3939  0728  0020               	movlb	0	; select bank0
  3940  0729  00B3               	movwf	playAudio@startAddress
  3941  072A  0022               	movlb	2	; select bank2
  3942  072B  0845               	movf	((_G_au16endAddresses+1)^(0+256)+36),w
  3943  072C  0020               	movlb	0	; select bank0
  3944  072D  00B6               	movwf	playAudio@endAddress+1
  3945  072E  0022               	movlb	2	; select bank2
  3946  072F  0844               	movf	(_G_au16endAddresses^(0+256)+36),w
  3947  0730  0020               	movlb	0	; select bank0
  3948  0731  00B5               	movwf	playAudio@endAddress
  3949  0732  3180  2063         	fcall	_playAudio
  3950                           
  3951                           ;Lab3_Main.c: 271:         } else if (minute == 6) {
  3952  0734  0008               	return
  3953  0735                     l1732:	
  3954  0735  3006               	movlw	6
  3955  0736  0637               	xorwf	playMinute@minute,w
  3956  0737  0438               	iorwf	playMinute@minute+1,w
  3957  0738  1D03               	btfss	3,2
  3958  0739  2F4D               	goto	l1736
  3959                           
  3960                           ;Lab3_Main.c: 272:             playAudio(G_au16startAddresses[19], G_au16endAddresses[19
      +                          ]);
  3961  073A  0021               	movlb	1	; select bank1
  3962  073B  0847               	movf	((_G_au16startAddresses+1)^(0+128)+38),w
  3963  073C  0020               	movlb	0	; select bank0
  3964  073D  00B4               	movwf	playAudio@startAddress+1
  3965  073E  0021               	movlb	1	; select bank1
  3966  073F  0846               	movf	(_G_au16startAddresses^(0+128)+38),w
  3967  0740  0020               	movlb	0	; select bank0
  3968  0741  00B3               	movwf	playAudio@startAddress
  3969  0742  0022               	movlb	2	; select bank2
  3970  0743  0847               	movf	((_G_au16endAddresses+1)^(0+256)+38),w
  3971  0744  0020               	movlb	0	; select bank0
  3972  0745  00B6               	movwf	playAudio@endAddress+1
  3973  0746  0022               	movlb	2	; select bank2
  3974  0747  0846               	movf	(_G_au16endAddresses^(0+256)+38),w
  3975  0748  0020               	movlb	0	; select bank0
  3976  0749  00B5               	movwf	playAudio@endAddress
  3977  074A  3180  2063         	fcall	_playAudio
  3978                           
  3979                           ;Lab3_Main.c: 273:         } else if (minute == 5) {
  3980  074C  0008               	return
  3981  074D                     l1736:	
  3982  074D  3005               	movlw	5
  3983  074E  0637               	xorwf	playMinute@minute,w
  3984  074F  0438               	iorwf	playMinute@minute+1,w
  3985  0750  1D03               	btfss	3,2
  3986  0751  2F65               	goto	l1740
  3987                           
  3988                           ;Lab3_Main.c: 274:             playAudio(G_au16startAddresses[13], G_au16endAddresses[13
      +                          ]);
  3989  0752  0021               	movlb	1	; select bank1
  3990  0753  083B               	movf	((_G_au16startAddresses+1)^(0+128)+26),w
  3991  0754  0020               	movlb	0	; select bank0
  3992  0755  00B4               	movwf	playAudio@startAddress+1
  3993  0756  0021               	movlb	1	; select bank1
  3994  0757  083A               	movf	(_G_au16startAddresses^(0+128)+26),w
  3995  0758  0020               	movlb	0	; select bank0
  3996  0759  00B3               	movwf	playAudio@startAddress
  3997  075A  0022               	movlb	2	; select bank2
  3998  075B  083B               	movf	((_G_au16endAddresses+1)^(0+256)+26),w
  3999  075C  0020               	movlb	0	; select bank0
  4000  075D  00B6               	movwf	playAudio@endAddress+1
  4001  075E  0022               	movlb	2	; select bank2
  4002  075F  083A               	movf	(_G_au16endAddresses^(0+256)+26),w
  4003  0760  0020               	movlb	0	; select bank0
  4004  0761  00B5               	movwf	playAudio@endAddress
  4005  0762  3180  2063         	fcall	_playAudio
  4006                           
  4007                           ;Lab3_Main.c: 275:         } else if (minute == 4) {
  4008  0764  0008               	return
  4009  0765                     l1740:	
  4010  0765  3004               	movlw	4
  4011  0766  0637               	xorwf	playMinute@minute,w
  4012  0767  0438               	iorwf	playMinute@minute+1,w
  4013  0768  1D03               	btfss	3,2
  4014  0769  2F7D               	goto	l1744
  4015                           
  4016                           ;Lab3_Main.c: 276:             playAudio(G_au16startAddresses[14], G_au16endAddresses[14
      +                          ]);
  4017  076A  0021               	movlb	1	; select bank1
  4018  076B  083D               	movf	((_G_au16startAddresses+1)^(0+128)+28),w
  4019  076C  0020               	movlb	0	; select bank0
  4020  076D  00B4               	movwf	playAudio@startAddress+1
  4021  076E  0021               	movlb	1	; select bank1
  4022  076F  083C               	movf	(_G_au16startAddresses^(0+128)+28),w
  4023  0770  0020               	movlb	0	; select bank0
  4024  0771  00B3               	movwf	playAudio@startAddress
  4025  0772  0022               	movlb	2	; select bank2
  4026  0773  083D               	movf	((_G_au16endAddresses+1)^(0+256)+28),w
  4027  0774  0020               	movlb	0	; select bank0
  4028  0775  00B6               	movwf	playAudio@endAddress+1
  4029  0776  0022               	movlb	2	; select bank2
  4030  0777  083C               	movf	(_G_au16endAddresses^(0+256)+28),w
  4031  0778  0020               	movlb	0	; select bank0
  4032  0779  00B5               	movwf	playAudio@endAddress
  4033  077A  3180  2063         	fcall	_playAudio
  4034                           
  4035                           ;Lab3_Main.c: 277:         } else if (minute == 3) {
  4036  077C  0008               	return
  4037  077D                     l1744:	
  4038  077D  3003               	movlw	3
  4039  077E  0637               	xorwf	playMinute@minute,w
  4040  077F  0438               	iorwf	playMinute@minute+1,w
  4041  0780  1D03               	btfss	3,2
  4042  0781  2F95               	goto	l1748
  4043                           
  4044                           ;Lab3_Main.c: 278:             playAudio(G_au16startAddresses[20], G_au16endAddresses[20
      +                          ]);
  4045  0782  0021               	movlb	1	; select bank1
  4046  0783  0849               	movf	((_G_au16startAddresses+1)^(0+128)+40),w
  4047  0784  0020               	movlb	0	; select bank0
  4048  0785  00B4               	movwf	playAudio@startAddress+1
  4049  0786  0021               	movlb	1	; select bank1
  4050  0787  0848               	movf	(_G_au16startAddresses^(0+128)+40),w
  4051  0788  0020               	movlb	0	; select bank0
  4052  0789  00B3               	movwf	playAudio@startAddress
  4053  078A  0022               	movlb	2	; select bank2
  4054  078B  0849               	movf	((_G_au16endAddresses+1)^(0+256)+40),w
  4055  078C  0020               	movlb	0	; select bank0
  4056  078D  00B6               	movwf	playAudio@endAddress+1
  4057  078E  0022               	movlb	2	; select bank2
  4058  078F  0848               	movf	(_G_au16endAddresses^(0+256)+40),w
  4059  0790  0020               	movlb	0	; select bank0
  4060  0791  00B5               	movwf	playAudio@endAddress
  4061  0792  3180  2063         	fcall	_playAudio
  4062                           
  4063                           ;Lab3_Main.c: 279:         } else if (minute == 2) {
  4064  0794  0008               	return
  4065  0795                     l1748:	
  4066  0795  3002               	movlw	2
  4067  0796  0637               	xorwf	playMinute@minute,w
  4068  0797  0438               	iorwf	playMinute@minute+1,w
  4069  0798  1D03               	btfss	3,2
  4070  0799  2FAD               	goto	l1752
  4071                           
  4072                           ;Lab3_Main.c: 280:             playAudio(G_au16startAddresses[21], G_au16endAddresses[21
      +                          ]);
  4073  079A  0021               	movlb	1	; select bank1
  4074  079B  084B               	movf	((_G_au16startAddresses+1)^(0+128)+42),w
  4075  079C  0020               	movlb	0	; select bank0
  4076  079D  00B4               	movwf	playAudio@startAddress+1
  4077  079E  0021               	movlb	1	; select bank1
  4078  079F  084A               	movf	(_G_au16startAddresses^(0+128)+42),w
  4079  07A0  0020               	movlb	0	; select bank0
  4080  07A1  00B3               	movwf	playAudio@startAddress
  4081  07A2  0022               	movlb	2	; select bank2
  4082  07A3  084B               	movf	((_G_au16endAddresses+1)^(0+256)+42),w
  4083  07A4  0020               	movlb	0	; select bank0
  4084  07A5  00B6               	movwf	playAudio@endAddress+1
  4085  07A6  0022               	movlb	2	; select bank2
  4086  07A7  084A               	movf	(_G_au16endAddresses^(0+256)+42),w
  4087  07A8  0020               	movlb	0	; select bank0
  4088  07A9  00B5               	movwf	playAudio@endAddress
  4089  07AA  3180  2063         	fcall	_playAudio
  4090                           
  4091                           ;Lab3_Main.c: 281:         } else if (minute == 1) {
  4092  07AC  0008               	return
  4093  07AD                     l1752:	
  4094  07AD  0337               	decf	playMinute@minute,w
  4095  07AE  0438               	iorwf	playMinute@minute+1,w
  4096  07AF  1D03               	btfss	3,2
  4097  07B0  0008               	return
  4098  07B1  2EF2               	goto	l1722
  4099  07B2                     __end_of_playMinute:	
  4100                           
  4101                           	psect	text7
  4102  01AB                     __ptext7:	
  4103 ;; *************** function ___awdiv *****************
  4104 ;; Defined at:
  4105 ;;		line 5 in file "C:\Program Files (x86)\Microchip\xc8\v2.05\pic\sources\c99\common\awdiv.c"
  4106 ;; Parameters:    Size  Location     Type
  4107 ;;  divisor         2    0[COMMON] int 
  4108 ;;  dividend        2    2[COMMON] int 
  4109 ;; Auto vars:     Size  Location     Type
  4110 ;;  quotient        2    7[COMMON] int 
  4111 ;;  sign            1    6[COMMON] unsigned char 
  4112 ;;  counter         1    5[COMMON] unsigned char 
  4113 ;; Return value:  Size  Location     Type
  4114 ;;                  2    0[COMMON] int 
  4115 ;; Registers used:
  4116 ;;		wreg, status,2, status,0
  4117 ;; Tracked objects:
  4118 ;;		On entry : 0/0
  4119 ;;		On exit  : 0/0
  4120 ;;		Unchanged: 0/0
  4121 ;; Data sizes:     COMMON   BANK0   BANK1   BANK2   BANK3   BANK4   BANK5   BANK6   BANK7   BANK8   BANK9  BANK10  BANK1
      +1  BANK12  BANK13  BANK14  BANK15  BANK16  BANK17  BANK18  BANK19  BANK20  BANK21  BANK22  BANK23  BANK24  BANK25
  4122 ;;      Params:         4       0       0       0       0       0       0       0       0       0       0       0       
      +0       0       0       0       0       0       0       0       0       0       0       0       0       0       0
  4123 ;;      Locals:         4       0       0       0       0       0       0       0       0       0       0       0       
      +0       0       0       0       0       0       0       0       0       0       0       0       0       0       0
  4124 ;;      Temps:          1       0       0       0       0       0       0       0       0       0       0       0       
      +0       0       0       0       0       0       0       0       0       0       0       0       0       0       0
  4125 ;;      Totals:         9       0       0       0       0       0       0       0       0       0       0       0       
      +0       0       0       0       0       0       0       0       0       0       0       0       0       0       0
  4126 ;;Total ram usage:        9 bytes
  4127 ;; Hardware stack levels used:    1
  4128 ;; This function calls:
  4129 ;;		Nothing
  4130 ;; This function is called by:
  4131 ;;		_playMinute10
  4132 ;;		_playMinute
  4133 ;; This function uses a non-reentrant model
  4134 ;;
  4135                           
  4136                           
  4137                           ;psect for function ___awdiv
  4138  01AB                     ___awdiv:	
  4139                           
  4140                           ;incstack = 0
  4141                           ; Regs used in ___awdiv: [wreg+status,2+status,0]
  4142  01AB  01F6               	clrf	___awdiv@sign
  4143  01AC  1FF1               	btfss	___awdiv@divisor+1,7
  4144  01AD  29B5               	goto	l1642
  4145  01AE  09F0               	comf	___awdiv@divisor,f
  4146  01AF  09F1               	comf	___awdiv@divisor+1,f
  4147  01B0  0AF0               	incf	___awdiv@divisor,f
  4148  01B1  1903               	skipnz
  4149  01B2  0AF1               	incf	___awdiv@divisor+1,f
  4150  01B3  01F6               	clrf	___awdiv@sign
  4151  01B4  0AF6               	incf	___awdiv@sign,f
  4152  01B5                     l1642:	
  4153  01B5  1FF3               	btfss	___awdiv@dividend+1,7
  4154  01B6  29C0               	goto	l1648
  4155  01B7  09F2               	comf	___awdiv@dividend,f
  4156  01B8  09F3               	comf	___awdiv@dividend+1,f
  4157  01B9  0AF2               	incf	___awdiv@dividend,f
  4158  01BA  1903               	skipnz
  4159  01BB  0AF3               	incf	___awdiv@dividend+1,f
  4160  01BC  3001               	movlw	1
  4161  01BD  00F4               	movwf	??___awdiv
  4162  01BE  0874               	movf	??___awdiv,w
  4163  01BF  06F6               	xorwf	___awdiv@sign,f
  4164  01C0                     l1648:	
  4165  01C0  01F7               	clrf	___awdiv@quotient
  4166  01C1  01F8               	clrf	___awdiv@quotient+1
  4167  01C2  0870               	movf	___awdiv@divisor,w
  4168  01C3  0471               	iorwf	___awdiv@divisor+1,w
  4169  01C4  1903               	btfsc	3,2
  4170  01C5  29EF               	goto	l1670
  4171  01C6  01F5               	clrf	___awdiv@counter
  4172  01C7  0AF5               	incf	___awdiv@counter,f
  4173  01C8                     l1658:	
  4174  01C8  1BF1               	btfsc	___awdiv@divisor+1,7
  4175  01C9  29D4               	goto	l1660
  4176  01CA  3001               	movlw	1
  4177  01CB                     u1175:	
  4178  01CB  35F0               	lslf	___awdiv@divisor,f
  4179  01CC  0DF1               	rlf	___awdiv@divisor+1,f
  4180  01CD  0B89               	decfsz	9,f
  4181  01CE  29CB               	goto	u1175
  4182  01CF  3001               	movlw	1
  4183  01D0  00F4               	movwf	??___awdiv
  4184  01D1  0874               	movf	??___awdiv,w
  4185  01D2  07F5               	addwf	___awdiv@counter,f
  4186  01D3  29C8               	goto	l1658
  4187  01D4                     l1660:	
  4188  01D4  3001               	movlw	1
  4189  01D5                     u1195:	
  4190  01D5  35F7               	lslf	___awdiv@quotient,f
  4191  01D6  0DF8               	rlf	___awdiv@quotient+1,f
  4192  01D7  0B89               	decfsz	9,f
  4193  01D8  29D5               	goto	u1195
  4194  01D9  0871               	movf	___awdiv@divisor+1,w
  4195  01DA  0273               	subwf	___awdiv@dividend+1,w
  4196  01DB  1D03               	skipz
  4197  01DC  29DF               	goto	u1205
  4198  01DD  0870               	movf	___awdiv@divisor,w
  4199  01DE  0272               	subwf	___awdiv@dividend,w
  4200  01DF                     u1205:	
  4201  01DF  1C03               	skipc
  4202  01E0  29E6               	goto	l1666
  4203  01E1  0870               	movf	___awdiv@divisor,w
  4204  01E2  02F2               	subwf	___awdiv@dividend,f
  4205  01E3  0871               	movf	___awdiv@divisor+1,w
  4206  01E4  3BF3               	subwfb	___awdiv@dividend+1,f
  4207  01E5  1477               	bsf	___awdiv@quotient,0
  4208  01E6                     l1666:	
  4209  01E6  3001               	movlw	1
  4210  01E7                     u1215:	
  4211  01E7  36F1               	lsrf	___awdiv@divisor+1,f
  4212  01E8  0CF0               	rrf	___awdiv@divisor,f
  4213  01E9  0B89               	decfsz	9,f
  4214  01EA  29E7               	goto	u1215
  4215  01EB  3001               	movlw	1
  4216  01EC  02F5               	subwf	___awdiv@counter,f
  4217  01ED  1D03               	btfss	3,2
  4218  01EE  29D4               	goto	l1660
  4219  01EF                     l1670:	
  4220  01EF  0876               	movf	___awdiv@sign,w
  4221  01F0  1903               	btfsc	3,2
  4222  01F1  29F7               	goto	l1674
  4223  01F2  09F7               	comf	___awdiv@quotient,f
  4224  01F3  09F8               	comf	___awdiv@quotient+1,f
  4225  01F4  0AF7               	incf	___awdiv@quotient,f
  4226  01F5  1903               	skipnz
  4227  01F6  0AF8               	incf	___awdiv@quotient+1,f
  4228  01F7                     l1674:	
  4229  01F7  0878               	movf	___awdiv@quotient+1,w
  4230  01F8  00F1               	movwf	?___awdiv+1
  4231  01F9  0877               	movf	___awdiv@quotient,w
  4232  01FA  00F0               	movwf	?___awdiv
  4233  01FB  0008               	return
  4234  01FC                     __end_of___awdiv:	
  4235                           
  4236                           	psect	text8
  4237  04D3                     __ptext8:	
  4238 ;; *************** function _playHour *****************
  4239 ;; Defined at:
  4240 ;;		line 196 in file "Lab3_Main.c"
  4241 ;; Parameters:    Size  Location     Type
  4242 ;;  hour            2    4[BANK0 ] short 
  4243 ;; Auto vars:     Size  Location     Type
  4244 ;;		None
  4245 ;; Return value:  Size  Location     Type
  4246 ;;                  1    wreg      void 
  4247 ;; Registers used:
  4248 ;;		wreg, fsr0l, fsr0h, fsr1l, fsr1h, status,2, status,0, pclath, cstack
  4249 ;; Tracked objects:
  4250 ;;		On entry : 0/0
  4251 ;;		On exit  : 0/0
  4252 ;;		Unchanged: 0/0
  4253 ;; Data sizes:     COMMON   BANK0   BANK1   BANK2   BANK3   BANK4   BANK5   BANK6   BANK7   BANK8   BANK9  BANK10  BANK1
      +1  BANK12  BANK13  BANK14  BANK15  BANK16  BANK17  BANK18  BANK19  BANK20  BANK21  BANK22  BANK23  BANK24  BANK25
  4254 ;;      Params:         0       2       0       0       0       0       0       0       0       0       0       0       
      +0       0       0       0       0       0       0       0       0       0       0       0       0       0       0
  4255 ;;      Locals:         0       0       0       0       0       0       0       0       0       0       0       0       
      +0       0       0       0       0       0       0       0       0       0       0       0       0       0       0
  4256 ;;      Temps:          0       0       0       0       0       0       0       0       0       0       0       0       
      +0       0       0       0       0       0       0       0       0       0       0       0       0       0       0
  4257 ;;      Totals:         0       2       0       0       0       0       0       0       0       0       0       0       
      +0       0       0       0       0       0       0       0       0       0       0       0       0       0       0
  4258 ;;Total ram usage:        2 bytes
  4259 ;; Hardware stack levels used:    1
  4260 ;; Hardware stack levels required when called:    4
  4261 ;; This function calls:
  4262 ;;		_playAudio
  4263 ;; This function is called by:
  4264 ;;		_readTime
  4265 ;; This function uses a non-reentrant model
  4266 ;;
  4267                           
  4268                           
  4269                           ;psect for function _playHour
  4270  04D3                     _playHour:	
  4271                           
  4272                           ;Lab3_Main.c: 197:         if (hour == 0) {
  4273                           
  4274                           ;incstack = 0
  4275                           ; Regs used in _playHour: [wreg-fsr1h+status,2+status,0+pclath+cstack]
  4276  04D3  0020               	movlb	0	; select bank0
  4277  04D4  0837               	movf	playHour@hour,w
  4278  04D5  0438               	iorwf	playHour@hour+1,w
  4279  04D6  1D03               	btfss	3,2
  4280  04D7  2CEB               	goto	l1762
  4281                           
  4282                           ;Lab3_Main.c: 198:             playAudio(G_au16startAddresses[31], G_au16endAddresses[31
      +                          ]);
  4283  04D8  0021               	movlb	1	; select bank1
  4284  04D9  085F               	movf	((_G_au16startAddresses+1)^(0+128)+62),w
  4285  04DA  0020               	movlb	0	; select bank0
  4286  04DB  00B4               	movwf	playAudio@startAddress+1
  4287  04DC  0021               	movlb	1	; select bank1
  4288  04DD  085E               	movf	(_G_au16startAddresses^(0+128)+62),w
  4289  04DE  0020               	movlb	0	; select bank0
  4290  04DF  00B3               	movwf	playAudio@startAddress
  4291  04E0  0022               	movlb	2	; select bank2
  4292  04E1  085F               	movf	((_G_au16endAddresses+1)^(0+256)+62),w
  4293  04E2  0020               	movlb	0	; select bank0
  4294  04E3  00B6               	movwf	playAudio@endAddress+1
  4295  04E4  0022               	movlb	2	; select bank2
  4296  04E5  085E               	movf	(_G_au16endAddresses^(0+256)+62),w
  4297  04E6  0020               	movlb	0	; select bank0
  4298  04E7  00B5               	movwf	playAudio@endAddress
  4299  04E8  3180  2063         	fcall	_playAudio
  4300                           
  4301                           ;Lab3_Main.c: 199:         } else if (hour == 11) {
  4302  04EA  0008               	return
  4303  04EB                     l1762:	
  4304  04EB  300B               	movlw	11
  4305  04EC  0637               	xorwf	playHour@hour,w
  4306  04ED  0438               	iorwf	playHour@hour+1,w
  4307  04EE  1D03               	btfss	3,2
  4308  04EF  2D03               	goto	l1766
  4309                           
  4310                           ;Lab3_Main.c: 200:             playAudio(G_au16startAddresses[3], G_au16endAddresses[3])
      +                          ;
  4311  04F0  0021               	movlb	1	; select bank1
  4312  04F1  0827               	movf	((_G_au16startAddresses+1)^(0+128)+6),w
  4313  04F2  0020               	movlb	0	; select bank0
  4314  04F3  00B4               	movwf	playAudio@startAddress+1
  4315  04F4  0021               	movlb	1	; select bank1
  4316  04F5  0826               	movf	(_G_au16startAddresses^(0+128)+6),w
  4317  04F6  0020               	movlb	0	; select bank0
  4318  04F7  00B3               	movwf	playAudio@startAddress
  4319  04F8  0022               	movlb	2	; select bank2
  4320  04F9  0827               	movf	((_G_au16endAddresses+1)^(0+256)+6),w
  4321  04FA  0020               	movlb	0	; select bank0
  4322  04FB  00B6               	movwf	playAudio@endAddress+1
  4323  04FC  0022               	movlb	2	; select bank2
  4324  04FD  0826               	movf	(_G_au16endAddresses^(0+256)+6),w
  4325  04FE  0020               	movlb	0	; select bank0
  4326  04FF  00B5               	movwf	playAudio@endAddress
  4327  0500  3180  2063         	fcall	_playAudio
  4328                           
  4329                           ;Lab3_Main.c: 201:         } else if (hour == 10) {
  4330  0502  0008               	return
  4331  0503                     l1766:	
  4332  0503  300A               	movlw	10
  4333  0504  0637               	xorwf	playHour@hour,w
  4334  0505  0438               	iorwf	playHour@hour+1,w
  4335  0506  1D03               	btfss	3,2
  4336  0507  2D1B               	goto	l1770
  4337                           
  4338                           ;Lab3_Main.c: 202:             playAudio(G_au16startAddresses[27], G_au16endAddresses[27
      +                          ]);
  4339  0508  0021               	movlb	1	; select bank1
  4340  0509  0857               	movf	((_G_au16startAddresses+1)^(0+128)+54),w
  4341  050A  0020               	movlb	0	; select bank0
  4342  050B  00B4               	movwf	playAudio@startAddress+1
  4343  050C  0021               	movlb	1	; select bank1
  4344  050D  0856               	movf	(_G_au16startAddresses^(0+128)+54),w
  4345  050E  0020               	movlb	0	; select bank0
  4346  050F  00B3               	movwf	playAudio@startAddress
  4347  0510  0022               	movlb	2	; select bank2
  4348  0511  0857               	movf	((_G_au16endAddresses+1)^(0+256)+54),w
  4349  0512  0020               	movlb	0	; select bank0
  4350  0513  00B6               	movwf	playAudio@endAddress+1
  4351  0514  0022               	movlb	2	; select bank2
  4352  0515  0856               	movf	(_G_au16endAddresses^(0+256)+54),w
  4353  0516  0020               	movlb	0	; select bank0
  4354  0517  00B5               	movwf	playAudio@endAddress
  4355  0518  3180  2063         	fcall	_playAudio
  4356                           
  4357                           ;Lab3_Main.c: 203:         } else if (hour == 9) {
  4358  051A  0008               	return
  4359  051B                     l1770:	
  4360  051B  3009               	movlw	9
  4361  051C  0637               	xorwf	playHour@hour,w
  4362  051D  0438               	iorwf	playHour@hour+1,w
  4363  051E  1D03               	btfss	3,2
  4364  051F  2D33               	goto	l1774
  4365                           
  4366                           ;Lab3_Main.c: 204:             playAudio(G_au16startAddresses[10], G_au16endAddresses[10
      +                          ]);
  4367  0520  0021               	movlb	1	; select bank1
  4368  0521  0835               	movf	((_G_au16startAddresses+1)^(0+128)+20),w
  4369  0522  0020               	movlb	0	; select bank0
  4370  0523  00B4               	movwf	playAudio@startAddress+1
  4371  0524  0021               	movlb	1	; select bank1
  4372  0525  0834               	movf	(_G_au16startAddresses^(0+128)+20),w
  4373  0526  0020               	movlb	0	; select bank0
  4374  0527  00B3               	movwf	playAudio@startAddress
  4375  0528  0022               	movlb	2	; select bank2
  4376  0529  0835               	movf	((_G_au16endAddresses+1)^(0+256)+20),w
  4377  052A  0020               	movlb	0	; select bank0
  4378  052B  00B6               	movwf	playAudio@endAddress+1
  4379  052C  0022               	movlb	2	; select bank2
  4380  052D  0834               	movf	(_G_au16endAddresses^(0+256)+20),w
  4381  052E  0020               	movlb	0	; select bank0
  4382  052F  00B5               	movwf	playAudio@endAddress
  4383  0530  3180  2063         	fcall	_playAudio
  4384                           
  4385                           ;Lab3_Main.c: 205:         } else if (hour == 8) {
  4386  0532  0008               	return
  4387  0533                     l1774:	
  4388  0533  3008               	movlw	8
  4389  0534  0637               	xorwf	playHour@hour,w
  4390  0535  0438               	iorwf	playHour@hour+1,w
  4391  0536  1D03               	btfss	3,2
  4392  0537  2D4B               	goto	l1778
  4393                           
  4394                           ;Lab3_Main.c: 206:             playAudio(G_au16startAddresses[1], G_au16endAddresses[1])
      +                          ;
  4395  0538  0021               	movlb	1	; select bank1
  4396  0539  0823               	movf	((_G_au16startAddresses+1)^(0+128)+2),w
  4397  053A  0020               	movlb	0	; select bank0
  4398  053B  00B4               	movwf	playAudio@startAddress+1
  4399  053C  0021               	movlb	1	; select bank1
  4400  053D  0822               	movf	(_G_au16startAddresses^(0+128)+2),w
  4401  053E  0020               	movlb	0	; select bank0
  4402  053F  00B3               	movwf	playAudio@startAddress
  4403  0540  0022               	movlb	2	; select bank2
  4404  0541  0823               	movf	((_G_au16endAddresses+1)^(0+256)+2),w
  4405  0542  0020               	movlb	0	; select bank0
  4406  0543  00B6               	movwf	playAudio@endAddress+1
  4407  0544  0022               	movlb	2	; select bank2
  4408  0545  0822               	movf	(_G_au16endAddresses^(0+256)+2),w
  4409  0546  0020               	movlb	0	; select bank0
  4410  0547  00B5               	movwf	playAudio@endAddress
  4411  0548  3180  2063         	fcall	_playAudio
  4412                           
  4413                           ;Lab3_Main.c: 207:         } else if (hour == 7) {
  4414  054A  0008               	return
  4415  054B                     l1778:	
  4416  054B  3007               	movlw	7
  4417  054C  0637               	xorwf	playHour@hour,w
  4418  054D  0438               	iorwf	playHour@hour+1,w
  4419  054E  1D03               	btfss	3,2
  4420  054F  2D63               	goto	l1782
  4421                           
  4422                           ;Lab3_Main.c: 208:             playAudio(G_au16startAddresses[23], G_au16endAddresses[23
      +                          ]);
  4423  0550  0021               	movlb	1	; select bank1
  4424  0551  084F               	movf	((_G_au16startAddresses+1)^(0+128)+46),w
  4425  0552  0020               	movlb	0	; select bank0
  4426  0553  00B4               	movwf	playAudio@startAddress+1
  4427  0554  0021               	movlb	1	; select bank1
  4428  0555  084E               	movf	(_G_au16startAddresses^(0+128)+46),w
  4429  0556  0020               	movlb	0	; select bank0
  4430  0557  00B3               	movwf	playAudio@startAddress
  4431  0558  0022               	movlb	2	; select bank2
  4432  0559  084F               	movf	((_G_au16endAddresses+1)^(0+256)+46),w
  4433  055A  0020               	movlb	0	; select bank0
  4434  055B  00B6               	movwf	playAudio@endAddress+1
  4435  055C  0022               	movlb	2	; select bank2
  4436  055D  084E               	movf	(_G_au16endAddresses^(0+256)+46),w
  4437  055E  0020               	movlb	0	; select bank0
  4438  055F  00B5               	movwf	playAudio@endAddress
  4439  0560  3180  2063         	fcall	_playAudio
  4440                           
  4441                           ;Lab3_Main.c: 209:         } else if (hour == 6) {
  4442  0562  0008               	return
  4443  0563                     l1782:	
  4444  0563  3006               	movlw	6
  4445  0564  0637               	xorwf	playHour@hour,w
  4446  0565  0438               	iorwf	playHour@hour+1,w
  4447  0566  1D03               	btfss	3,2
  4448  0567  2D7B               	goto	l1786
  4449                           
  4450                           ;Lab3_Main.c: 210:             playAudio(G_au16startAddresses[25], G_au16endAddresses[25
      +                          ]);
  4451  0568  0021               	movlb	1	; select bank1
  4452  0569  0853               	movf	((_G_au16startAddresses+1)^(0+128)+50),w
  4453  056A  0020               	movlb	0	; select bank0
  4454  056B  00B4               	movwf	playAudio@startAddress+1
  4455  056C  0021               	movlb	1	; select bank1
  4456  056D  0852               	movf	(_G_au16startAddresses^(0+128)+50),w
  4457  056E  0020               	movlb	0	; select bank0
  4458  056F  00B3               	movwf	playAudio@startAddress
  4459  0570  0022               	movlb	2	; select bank2
  4460  0571  0853               	movf	((_G_au16endAddresses+1)^(0+256)+50),w
  4461  0572  0020               	movlb	0	; select bank0
  4462  0573  00B6               	movwf	playAudio@endAddress+1
  4463  0574  0022               	movlb	2	; select bank2
  4464  0575  0852               	movf	(_G_au16endAddresses^(0+256)+50),w
  4465  0576  0020               	movlb	0	; select bank0
  4466  0577  00B5               	movwf	playAudio@endAddress
  4467  0578  3180  2063         	fcall	_playAudio
  4468                           
  4469                           ;Lab3_Main.c: 211:         } else if (hour == 5) {
  4470  057A  0008               	return
  4471  057B                     l1786:	
  4472  057B  3005               	movlw	5
  4473  057C  0637               	xorwf	playHour@hour,w
  4474  057D  0438               	iorwf	playHour@hour+1,w
  4475  057E  1D03               	btfss	3,2
  4476  057F  2D93               	goto	l1790
  4477                           
  4478                           ;Lab3_Main.c: 212:             playAudio(G_au16startAddresses[6], G_au16endAddresses[6])
      +                          ;
  4479  0580  0021               	movlb	1	; select bank1
  4480  0581  082D               	movf	((_G_au16startAddresses+1)^(0+128)+12),w
  4481  0582  0020               	movlb	0	; select bank0
  4482  0583  00B4               	movwf	playAudio@startAddress+1
  4483  0584  0021               	movlb	1	; select bank1
  4484  0585  082C               	movf	(_G_au16startAddresses^(0+128)+12),w
  4485  0586  0020               	movlb	0	; select bank0
  4486  0587  00B3               	movwf	playAudio@startAddress
  4487  0588  0022               	movlb	2	; select bank2
  4488  0589  082D               	movf	((_G_au16endAddresses+1)^(0+256)+12),w
  4489  058A  0020               	movlb	0	; select bank0
  4490  058B  00B6               	movwf	playAudio@endAddress+1
  4491  058C  0022               	movlb	2	; select bank2
  4492  058D  082C               	movf	(_G_au16endAddresses^(0+256)+12),w
  4493  058E  0020               	movlb	0	; select bank0
  4494  058F  00B5               	movwf	playAudio@endAddress
  4495  0590  3180  2063         	fcall	_playAudio
  4496                           
  4497                           ;Lab3_Main.c: 213:         } else if (hour == 4) {
  4498  0592  0008               	return
  4499  0593                     l1790:	
  4500  0593  3004               	movlw	4
  4501  0594  0637               	xorwf	playHour@hour,w
  4502  0595  0438               	iorwf	playHour@hour+1,w
  4503  0596  1D03               	btfss	3,2
  4504  0597  2DAB               	goto	l1794
  4505                           
  4506                           ;Lab3_Main.c: 214:             playAudio(G_au16startAddresses[7], G_au16endAddresses[7])
      +                          ;
  4507  0598  0021               	movlb	1	; select bank1
  4508  0599  082F               	movf	((_G_au16startAddresses+1)^(0+128)+14),w
  4509  059A  0020               	movlb	0	; select bank0
  4510  059B  00B4               	movwf	playAudio@startAddress+1
  4511  059C  0021               	movlb	1	; select bank1
  4512  059D  082E               	movf	(_G_au16startAddresses^(0+128)+14),w
  4513  059E  0020               	movlb	0	; select bank0
  4514  059F  00B3               	movwf	playAudio@startAddress
  4515  05A0  0022               	movlb	2	; select bank2
  4516  05A1  082F               	movf	((_G_au16endAddresses+1)^(0+256)+14),w
  4517  05A2  0020               	movlb	0	; select bank0
  4518  05A3  00B6               	movwf	playAudio@endAddress+1
  4519  05A4  0022               	movlb	2	; select bank2
  4520  05A5  082E               	movf	(_G_au16endAddresses^(0+256)+14),w
  4521  05A6  0020               	movlb	0	; select bank0
  4522  05A7  00B5               	movwf	playAudio@endAddress
  4523  05A8  3180  2063         	fcall	_playAudio
  4524                           
  4525                           ;Lab3_Main.c: 215:         } else if (hour == 3) {
  4526  05AA  0008               	return
  4527  05AB                     l1794:	
  4528  05AB  3003               	movlw	3
  4529  05AC  0637               	xorwf	playHour@hour,w
  4530  05AD  0438               	iorwf	playHour@hour+1,w
  4531  05AE  1D03               	btfss	3,2
  4532  05AF  2DC3               	goto	l1798
  4533                           
  4534                           ;Lab3_Main.c: 216:             playAudio(G_au16startAddresses[30], G_au16endAddresses[30
      +                          ]);
  4535  05B0  0021               	movlb	1	; select bank1
  4536  05B1  085D               	movf	((_G_au16startAddresses+1)^(0+128)+60),w
  4537  05B2  0020               	movlb	0	; select bank0
  4538  05B3  00B4               	movwf	playAudio@startAddress+1
  4539  05B4  0021               	movlb	1	; select bank1
  4540  05B5  085C               	movf	(_G_au16startAddresses^(0+128)+60),w
  4541  05B6  0020               	movlb	0	; select bank0
  4542  05B7  00B3               	movwf	playAudio@startAddress
  4543  05B8  0022               	movlb	2	; select bank2
  4544  05B9  085D               	movf	((_G_au16endAddresses+1)^(0+256)+60),w
  4545  05BA  0020               	movlb	0	; select bank0
  4546  05BB  00B6               	movwf	playAudio@endAddress+1
  4547  05BC  0022               	movlb	2	; select bank2
  4548  05BD  085C               	movf	(_G_au16endAddresses^(0+256)+60),w
  4549  05BE  0020               	movlb	0	; select bank0
  4550  05BF  00B5               	movwf	playAudio@endAddress
  4551  05C0  3180  2063         	fcall	_playAudio
  4552                           
  4553                           ;Lab3_Main.c: 217:         } else if (hour == 2) {
  4554  05C2  0008               	return
  4555  05C3                     l1798:	
  4556  05C3  3002               	movlw	2
  4557  05C4  0637               	xorwf	playHour@hour,w
  4558  05C5  0438               	iorwf	playHour@hour+1,w
  4559  05C6  1D03               	btfss	3,2
  4560  05C7  2DDB               	goto	l1802
  4561                           
  4562                           ;Lab3_Main.c: 218:             playAudio(G_au16startAddresses[33], G_au16endAddresses[33
      +                          ]);
  4563  05C8  0021               	movlb	1	; select bank1
  4564  05C9  0863               	movf	((_G_au16startAddresses+1)^(0+128)+66),w
  4565  05CA  0020               	movlb	0	; select bank0
  4566  05CB  00B4               	movwf	playAudio@startAddress+1
  4567  05CC  0021               	movlb	1	; select bank1
  4568  05CD  0862               	movf	(_G_au16startAddresses^(0+128)+66),w
  4569  05CE  0020               	movlb	0	; select bank0
  4570  05CF  00B3               	movwf	playAudio@startAddress
  4571  05D0  0022               	movlb	2	; select bank2
  4572  05D1  0863               	movf	((_G_au16endAddresses+1)^(0+256)+66),w
  4573  05D2  0020               	movlb	0	; select bank0
  4574  05D3  00B6               	movwf	playAudio@endAddress+1
  4575  05D4  0022               	movlb	2	; select bank2
  4576  05D5  0862               	movf	(_G_au16endAddresses^(0+256)+66),w
  4577  05D6  0020               	movlb	0	; select bank0
  4578  05D7  00B5               	movwf	playAudio@endAddress
  4579  05D8  3180  2063         	fcall	_playAudio
  4580                           
  4581                           ;Lab3_Main.c: 219:         } else if (hour == 1) {
  4582  05DA  0008               	return
  4583  05DB                     l1802:	
  4584  05DB  0337               	decf	playHour@hour,w
  4585  05DC  0438               	iorwf	playHour@hour+1,w
  4586  05DD  1D03               	btfss	3,2
  4587  05DE  0008               	return
  4588                           
  4589                           ;Lab3_Main.c: 220:             playAudio(G_au16startAddresses[15], G_au16endAddresses[15
      +                          ]);
  4590  05DF  0021               	movlb	1	; select bank1
  4591  05E0  083F               	movf	((_G_au16startAddresses+1)^(0+128)+30),w
  4592  05E1  0020               	movlb	0	; select bank0
  4593  05E2  00B4               	movwf	playAudio@startAddress+1
  4594  05E3  0021               	movlb	1	; select bank1
  4595  05E4  083E               	movf	(_G_au16startAddresses^(0+128)+30),w
  4596  05E5  0020               	movlb	0	; select bank0
  4597  05E6  00B3               	movwf	playAudio@startAddress
  4598  05E7  0022               	movlb	2	; select bank2
  4599  05E8  083F               	movf	((_G_au16endAddresses+1)^(0+256)+30),w
  4600  05E9  0020               	movlb	0	; select bank0
  4601  05EA  00B6               	movwf	playAudio@endAddress+1
  4602  05EB  0022               	movlb	2	; select bank2
  4603  05EC  083E               	movf	(_G_au16endAddresses^(0+256)+30),w
  4604  05ED  0020               	movlb	0	; select bank0
  4605  05EE  00B5               	movwf	playAudio@endAddress
  4606  05EF  3180  2063         	fcall	_playAudio
  4607  05F1  0008               	return
  4608  05F2                     __end_of_playHour:	
  4609                           
  4610                           	psect	text9
  4611  0063                     __ptext9:	
  4612 ;; *************** function _playAudio *****************
  4613 ;; Defined at:
  4614 ;;		line 288 in file "Lab3_Main.c"
  4615 ;; Parameters:    Size  Location     Type
  4616 ;;  startAddress    2    0[BANK0 ] short 
  4617 ;;  endAddress      2    2[BANK0 ] short 
  4618 ;; Auto vars:     Size  Location     Type
  4619 ;;		None
  4620 ;; Return value:  Size  Location     Type
  4621 ;;                  1    wreg      void 
  4622 ;; Registers used:
  4623 ;;		wreg, fsr0l, fsr0h, fsr1l, fsr1h, status,2, status,0, pclath, cstack
  4624 ;; Tracked objects:
  4625 ;;		On entry : 0/0
  4626 ;;		On exit  : 0/0
  4627 ;;		Unchanged: 0/0
  4628 ;; Data sizes:     COMMON   BANK0   BANK1   BANK2   BANK3   BANK4   BANK5   BANK6   BANK7   BANK8   BANK9  BANK10  BANK1
      +1  BANK12  BANK13  BANK14  BANK15  BANK16  BANK17  BANK18  BANK19  BANK20  BANK21  BANK22  BANK23  BANK24  BANK25
  4629 ;;      Params:         0       4       0       0       0       0       0       0       0       0       0       0       
      +0       0       0       0       0       0       0       0       0       0       0       0       0       0       0
  4630 ;;      Locals:         0       0       0       0       0       0       0       0       0       0       0       0       
      +0       0       0       0       0       0       0       0       0       0       0       0       0       0       0
  4631 ;;      Temps:          1       0       0       0       0       0       0       0       0       0       0       0       
      +0       0       0       0       0       0       0       0       0       0       0       0       0       0       0
  4632 ;;      Totals:         1       4       0       0       0       0       0       0       0       0       0       0       
      +0       0       0       0       0       0       0       0       0       0       0       0       0       0       0
  4633 ;;Total ram usage:        5 bytes
  4634 ;; Hardware stack levels used:    1
  4635 ;; Hardware stack levels required when called:    3
  4636 ;; This function calls:
  4637 ;;		_active
  4638 ;; This function is called by:
  4639 ;;		_readTime
  4640 ;;		_playHour
  4641 ;;		_playMinute10
  4642 ;;		_playMinute
  4643 ;; This function uses a non-reentrant model
  4644 ;;
  4645                           
  4646                           
  4647                           ;psect for function _playAudio
  4648  0063                     _playAudio:	
  4649                           
  4650                           ;Lab3_Main.c: 288: void playAudio(short startAddress, short endAddress);Lab3_Main.c: 289
      +                          : {;Lab3_Main.c: 290:     if (G_8hasAddress == 0 && timeSaid)
  4651                           
  4652                           ;incstack = 0
  4653                           ; Regs used in _playAudio: [wreg-fsr1h+status,2+status,0+pclath+cstack]
  4654  0063  0020               	movlb	0	; select bank0
  4655  0064  082E               	movf	_G_8hasAddress,w
  4656  0065  1D03               	btfss	3,2
  4657  0066  2878               	goto	l1628
  4658  0067  082D               	movf	_timeSaid,w
  4659  0068  1903               	btfsc	3,2
  4660  0069  2878               	goto	l1628
  4661                           
  4662                           ;Lab3_Main.c: 291:     {;Lab3_Main.c: 292:     G_u16Address = startAddress;
  4663  006A  0834               	movf	playAudio@startAddress+1,w
  4664  006B  00B2               	movwf	_G_u16Address+1
  4665  006C  0833               	movf	playAudio@startAddress,w
  4666  006D  00B1               	movwf	_G_u16Address
  4667                           
  4668                           ;Lab3_Main.c: 293:     G_u8charPointer = (unsigned char *) &G_u16Address;
  4669  006E  3031               	movlw	(low (_G_u16Address| 0))& (0+255)
  4670  006F  00FB               	movwf	??_playAudio
  4671  0070  087B               	movf	??_playAudio,w
  4672  0071  00FD               	movwf	_G_u8charPointer
  4673                           
  4674                           ;Lab3_Main.c: 294:     G_u16EndAddress = endAddress;
  4675  0072  0836               	movf	playAudio@endAddress+1,w
  4676  0073  00A5               	movwf	_G_u16EndAddress+1
  4677  0074  0835               	movf	playAudio@endAddress,w
  4678  0075  00A4               	movwf	_G_u16EndAddress
  4679                           
  4680                           ;Lab3_Main.c: 295:     G_8hasAddress = 1;
  4681  0076  01AE               	clrf	_G_8hasAddress
  4682  0077  0AAE               	incf	_G_8hasAddress,f
  4683  0078                     l1628:	
  4684                           
  4685                           ;Lab3_Main.c: 297:     if (timeSaid) {
  4686  0078  082D               	movf	_timeSaid,w
  4687  0079  1903               	btfsc	3,2
  4688  007A  0008               	return
  4689                           
  4690                           ;Lab3_Main.c: 298:          active();
  4691  007B  3181  21FC         	fcall	_active
  4692  007D  0008               	return
  4693  007E                     __end_of_playAudio:	
  4694                           
  4695                           	psect	text10
  4696  01FC                     __ptext10:	
  4697 ;; *************** function _active *****************
  4698 ;; Defined at:
  4699 ;;		line 303 in file "Lab3_Main.c"
  4700 ;; Parameters:    Size  Location     Type
  4701 ;;		None
  4702 ;; Auto vars:     Size  Location     Type
  4703 ;;  readMessage     1   10[COMMON] unsigned char 
  4704 ;; Return value:  Size  Location     Type
  4705 ;;                  1    wreg      void 
  4706 ;; Registers used:
  4707 ;;		wreg, fsr0l, fsr0h, fsr1l, fsr1h, status,2, status,0, pclath, cstack
  4708 ;; Tracked objects:
  4709 ;;		On entry : 0/0
  4710 ;;		On exit  : 0/0
  4711 ;;		Unchanged: 0/0
  4712 ;; Data sizes:     COMMON   BANK0   BANK1   BANK2   BANK3   BANK4   BANK5   BANK6   BANK7   BANK8   BANK9  BANK10  BANK1
      +1  BANK12  BANK13  BANK14  BANK15  BANK16  BANK17  BANK18  BANK19  BANK20  BANK21  BANK22  BANK23  BANK24  BANK25
  4713 ;;      Params:         0       0       0       0       0       0       0       0       0       0       0       0       
      +0       0       0       0       0       0       0       0       0       0       0       0       0       0       0
  4714 ;;      Locals:         1       0       0       0       0       0       0       0       0       0       0       0       
      +0       0       0       0       0       0       0       0       0       0       0       0       0       0       0
  4715 ;;      Temps:          1       0       0       0       0       0       0       0       0       0       0       0       
      +0       0       0       0       0       0       0       0       0       0       0       0       0       0       0
  4716 ;;      Totals:         2       0       0       0       0       0       0       0       0       0       0       0       
      +0       0       0       0       0       0       0       0       0       0       0       0       0       0       0
  4717 ;;Total ram usage:        2 bytes
  4718 ;; Hardware stack levels used:    1
  4719 ;; Hardware stack levels required when called:    2
  4720 ;; This function calls:
  4721 ;;		_SD_Read8bitResponse
  4722 ;;		_SD_SendCommand
  4723 ;;		_SPI_Read
  4724 ;;		_writeDAQ
  4725 ;; This function is called by:
  4726 ;;		_playAudio
  4727 ;; This function uses a non-reentrant model
  4728 ;;
  4729                           
  4730                           
  4731                           ;psect for function _active
  4732  01FC                     _active:	
  4733  01FC                     l1614:	
  4734                           ;Lab3_Main.c: 305:     while (G_u16Address != G_u16EndAddress) {
  4735                           
  4736                           ;incstack = 0
  4737                           ; Regs used in _active: [wreg-fsr1h+status,2+status,0+pclath+cstack]
  4738                           
  4739                           
  4740                           ;Lab3_Main.c: 305:     while (G_u16Address != G_u16EndAddress) {
  4741  01FC  0020               	movlb	0	; select bank0
  4742  01FD  0825               	movf	_G_u16EndAddress+1,w
  4743  01FE  0632               	xorwf	_G_u16Address+1,w
  4744  01FF  1D03               	skipz
  4745  0200  2A03               	goto	u1105
  4746  0201  0824               	movf	_G_u16EndAddress,w
  4747  0202  0631               	xorwf	_G_u16Address,w
  4748  0203                     u1105:	
  4749  0203  1903               	btfsc	3,2
  4750  0204  2A50               	goto	l1616
  4751                           
  4752                           ;Lab3_Main.c: 306:         if (G_8counter == 0) {
  4753  0205  0826               	movf	_G_8counter,w
  4754  0206  0427               	iorwf	_G_8counter+1,w
  4755  0207  1D03               	btfss	3,2
  4756  0208  2A27               	goto	l1598
  4757                           
  4758                           ;Lab3_Main.c: 308:             SD_SendCommand(17, 0x00, 0x00, G_u8charPointer[1], G_u8ch
      +                          arPointer[0]);
  4759  0209  01F1               	clrf	SD_SendCommand@ARG3
  4760  020A  01F2               	clrf	SD_SendCommand@ARG2
  4761  020B  087D               	movf	_G_u8charPointer,w
  4762  020C  0086               	movwf	6
  4763  020D  0187               	clrf	7
  4764  020E  3F41               	moviw [1]fsr1
  4765  020F  00F3               	movwf	SD_SendCommand@ARG1
  4766  0210  087D               	movf	_G_u8charPointer,w
  4767  0211  0086               	movwf	6
  4768  0212  0187               	clrf	7
  4769  0213  0801               	movf	1,w
  4770  0214  00F9               	movwf	??_active
  4771  0215  0879               	movf	??_active,w
  4772  0216  00F4               	movwf	SD_SendCommand@ARG0
  4773  0217  3011               	movlw	17
  4774  0218  3184  243A  3181   	fcall	_SD_SendCommand
  4775                           
  4776                           ;Lab3_Main.c: 309:             SD_Read8bitResponse();
  4777  021B  3180  2023  3181   	fcall	_SD_Read8bitResponse
  4778  021E                     l1594:	
  4779  021E  318F  27DA  3181   	fcall	_SPI_Read
  4780  0221  00F9               	movwf	??_active
  4781  0222  0879               	movf	??_active,w
  4782  0223  00FA               	movwf	active@readMessage
  4783  0224  0A7A               	incf	active@readMessage,w
  4784  0225  1903               	btfsc	3,2
  4785  0226  2A1E               	goto	l1594
  4786  0227                     l1598:	
  4787                           
  4788                           ;Lab3_Main.c: 314:         G_8sendbyte = SPI_Read();
  4789  0227  318F  27DA  3181   	fcall	_SPI_Read
  4790  022A  00F9               	movwf	??_active
  4791  022B  0879               	movf	??_active,w
  4792  022C  0020               	movlb	0	; select bank0
  4793  022D  00AF               	movwf	_G_8sendbyte
  4794                           
  4795                           ;Lab3_Main.c: 315:         writeDAQ(G_8sendbyte);
  4796  022E  082F               	movf	_G_8sendbyte,w
  4797  022F  318F  27F5  3181   	fcall	_writeDAQ
  4798                           
  4799                           ;Lab3_Main.c: 316:         G_8counter++;
  4800  0232  3001               	movlw	1
  4801  0233  0020               	movlb	0	; select bank0
  4802  0234  07A6               	addwf	_G_8counter,f
  4803  0235  3000               	movlw	0
  4804  0236  3DA7               	addwfc	_G_8counter+1,f
  4805                           
  4806                           ;Lab3_Main.c: 318:         if (G_8counter==512) {
  4807  0237  3002               	movlw	2
  4808  0238  0627               	xorwf	_G_8counter+1,w
  4809  0239  0426               	iorwf	_G_8counter,w
  4810  023A  1D03               	btfss	3,2
  4811  023B  2A4B               	goto	l355
  4812                           
  4813                           ;Lab3_Main.c: 319:          G_u16Address++;
  4814  023C  3001               	movlw	1
  4815  023D  07B1               	addwf	_G_u16Address,f
  4816  023E  3000               	movlw	0
  4817  023F  3DB2               	addwfc	_G_u16Address+1,f
  4818                           
  4819                           ;Lab3_Main.c: 320:          G_8counter = 0;
  4820  0240  01A6               	clrf	_G_8counter
  4821  0241  01A7               	clrf	_G_8counter+1
  4822                           
  4823                           ;Lab3_Main.c: 321:          SPI_Read();
  4824  0242  318F  27DA  3181   	fcall	_SPI_Read
  4825                           
  4826                           ;Lab3_Main.c: 322:          SPI_Read();
  4827  0245  318F  27DA  3181   	fcall	_SPI_Read
  4828                           
  4829                           ;Lab3_Main.c: 323:          SPI_Read();
  4830  0248  318F  27DA  3181   	fcall	_SPI_Read
  4831  024B                     l355:	
  4832  024B  0020               	movlb	0	; select bank0
  4833  024C  1C91               	btfss	17,1	;volatile
  4834  024D  2A4B               	goto	l355
  4835                           
  4836                           ;Lab3_Main.c: 327:         PIR1bits.TMR2IF = 0;
  4837  024E  1091               	bcf	17,1	;volatile
  4838  024F  29FC               	goto	l1614
  4839  0250                     l1616:	
  4840                           
  4841                           ;Lab3_Main.c: 329:     G_8hasAddress = 0;
  4842  0250  01AE               	clrf	_G_8hasAddress
  4843  0251  0008               	return
  4844  0252                     __end_of_active:	
  4845                           
  4846                           	psect	text11
  4847  0FF5                     __ptext11:	
  4848 ;; *************** function _writeDAQ *****************
  4849 ;; Defined at:
  4850 ;;		line 333 in file "Lab3_Main.c"
  4851 ;; Parameters:    Size  Location     Type
  4852 ;;  writevalue      1    wreg     unsigned char 
  4853 ;; Auto vars:     Size  Location     Type
  4854 ;;  writevalue      1    2[COMMON] unsigned char 
  4855 ;; Return value:  Size  Location     Type
  4856 ;;                  1    wreg      void 
  4857 ;; Registers used:
  4858 ;;		wreg
  4859 ;; Tracked objects:
  4860 ;;		On entry : 0/0
  4861 ;;		On exit  : 0/0
  4862 ;;		Unchanged: 0/0
  4863 ;; Data sizes:     COMMON   BANK0   BANK1   BANK2   BANK3   BANK4   BANK5   BANK6   BANK7   BANK8   BANK9  BANK10  BANK1
      +1  BANK12  BANK13  BANK14  BANK15  BANK16  BANK17  BANK18  BANK19  BANK20  BANK21  BANK22  BANK23  BANK24  BANK25
  4864 ;;      Params:         0       0       0       0       0       0       0       0       0       0       0       0       
      +0       0       0       0       0       0       0       0       0       0       0       0       0       0       0
  4865 ;;      Locals:         1       0       0       0       0       0       0       0       0       0       0       0       
      +0       0       0       0       0       0       0       0       0       0       0       0       0       0       0
  4866 ;;      Temps:          2       0       0       0       0       0       0       0       0       0       0       0       
      +0       0       0       0       0       0       0       0       0       0       0       0       0       0       0
  4867 ;;      Totals:         3       0       0       0       0       0       0       0       0       0       0       0       
      +0       0       0       0       0       0       0       0       0       0       0       0       0       0       0
  4868 ;;Total ram usage:        3 bytes
  4869 ;; Hardware stack levels used:    1
  4870 ;; This function calls:
  4871 ;;		Nothing
  4872 ;; This function is called by:
  4873 ;;		_active
  4874 ;; This function uses a non-reentrant model
  4875 ;;
  4876                           
  4877                           
  4878                           ;psect for function _writeDAQ
  4879  0FF5                     _writeDAQ:	
  4880                           
  4881                           ;incstack = 0
  4882                           ; Regs used in _writeDAQ: [wreg]
  4883                           ;writeDAQ@writevalue stored from wreg
  4884  0FF5  00F2               	movwf	writeDAQ@writevalue
  4885                           
  4886                           ;Lab3_Main.c: 334:   DAC1REF= writevalue;
  4887  0FF6  0872               	movf	writeDAQ@writevalue,w
  4888  0FF7  00F0               	movwf	??_writeDAQ
  4889  0FF8  01F1               	clrf	??_writeDAQ+1
  4890  0FF9  0870               	movf	??_writeDAQ,w
  4891  0FFA  002B               	movlb	11	; select bank11
  4892  0FFB  008F               	movwf	15	;volatile
  4893  0FFC  0871               	movf	??_writeDAQ+1,w
  4894  0FFD  0090               	movwf	16	;volatile
  4895                           
  4896                           ;Lab3_Main.c: 335:   DAC1LD = 1;
  4897  0FFE  140D               	bsf	13,0	;volatile
  4898  0FFF  0008               	return
  4899  1000                     __end_of_writeDAQ:	
  4900                           
  4901                           	psect	text12
  4902  007E                     __ptext12:	
  4903 ;; *************** function _SPI_Init *****************
  4904 ;; Defined at:
  4905 ;;		line 7 in file "Lab3_SPI.c"
  4906 ;; Parameters:    Size  Location     Type
  4907 ;;		None
  4908 ;; Auto vars:     Size  Location     Type
  4909 ;;		None
  4910 ;; Return value:  Size  Location     Type
  4911 ;;                  1    wreg      void 
  4912 ;; Registers used:
  4913 ;;		wreg, status,2
  4914 ;; Tracked objects:
  4915 ;;		On entry : 0/0
  4916 ;;		On exit  : 0/0
  4917 ;;		Unchanged: 0/0
  4918 ;; Data sizes:     COMMON   BANK0   BANK1   BANK2   BANK3   BANK4   BANK5   BANK6   BANK7   BANK8   BANK9  BANK10  BANK1
      +1  BANK12  BANK13  BANK14  BANK15  BANK16  BANK17  BANK18  BANK19  BANK20  BANK21  BANK22  BANK23  BANK24  BANK25
  4919 ;;      Params:         0       0       0       0       0       0       0       0       0       0       0       0       
      +0       0       0       0       0       0       0       0       0       0       0       0       0       0       0
  4920 ;;      Locals:         0       0       0       0       0       0       0       0       0       0       0       0       
      +0       0       0       0       0       0       0       0       0       0       0       0       0       0       0
  4921 ;;      Temps:          0       0       0       0       0       0       0       0       0       0       0       0       
      +0       0       0       0       0       0       0       0       0       0       0       0       0       0       0
  4922 ;;      Totals:         0       0       0       0       0       0       0       0       0       0       0       0       
      +0       0       0       0       0       0       0       0       0       0       0       0       0       0       0
  4923 ;;Total ram usage:        0 bytes
  4924 ;; Hardware stack levels used:    1
  4925 ;; This function calls:
  4926 ;;		Nothing
  4927 ;; This function is called by:
  4928 ;;		_main
  4929 ;; This function uses a non-reentrant model
  4930 ;;
  4931                           
  4932                           
  4933                           ;psect for function _SPI_Init
  4934  007E                     _SPI_Init:	
  4935                           
  4936                           ;Lab3_SPI.c: 10:     TRISC2 = 0;
  4937                           
  4938                           ;incstack = 0
  4939                           ; Regs used in _SPI_Init: [wreg+status,2]
  4940  007E  0021               	movlb	1	; select bank1
  4941  007F  110E               	bcf	14,2	;volatile
  4942                           
  4943                           ;Lab3_SPI.c: 11:     RC2PPS = 0x21;
  4944  0080  3021               	movlw	33
  4945  0081  003D               	movlb	29	; select bank29
  4946  0082  00A2               	movwf	34	;volatile
  4947                           
  4948                           ;Lab3_SPI.c: 12:     SSPCLKPPS = 0x12;
  4949  0083  3012               	movlw	18
  4950  0084  003C               	movlb	28	; select bank28
  4951  0085  00BA               	movwf	58	;volatile
  4952                           
  4953                           ;Lab3_SPI.c: 15:     TRISC3 = 1;
  4954  0086  0021               	movlb	1	; select bank1
  4955  0087  158E               	bsf	14,3	;volatile
  4956                           
  4957                           ;Lab3_SPI.c: 16:     ANSC3 = 0;
  4958  0088  0023               	movlb	3	; select bank3
  4959  0089  118E               	bcf	14,3	;volatile
  4960                           
  4961                           ;Lab3_SPI.c: 17:     SSPDATPPS = 0x13;
  4962  008A  3013               	movlw	19
  4963  008B  003C               	movlb	28	; select bank28
  4964  008C  00BB               	movwf	59	;volatile
  4965                           
  4966                           ;Lab3_SPI.c: 20:     TRISC4 = 0;
  4967  008D  0021               	movlb	1	; select bank1
  4968  008E  120E               	bcf	14,4	;volatile
  4969                           
  4970                           ;Lab3_SPI.c: 21:     RC4PPS = 0x23;
  4971  008F  3023               	movlw	35
  4972  0090  003D               	movlb	29	; select bank29
  4973  0091  00A4               	movwf	36	;volatile
  4974                           
  4975                           ;Lab3_SPI.c: 24:     TRISC7 = 0;
  4976  0092  0021               	movlb	1	; select bank1
  4977  0093  138E               	bcf	14,7	;volatile
  4978                           
  4979                           ;Lab3_SPI.c: 27:     SSP1STAT = 0x80;
  4980  0094  3080               	movlw	128
  4981  0095  0024               	movlb	4	; select bank4
  4982  0096  0094               	movwf	20	;volatile
  4983                           
  4984                           ;Lab3_SPI.c: 30:     SSP1CON1 = 0x30;
  4985  0097  3030               	movlw	48
  4986  0098  0095               	movwf	21	;volatile
  4987                           
  4988                           ;Lab3_SPI.c: 33:     SSP1ADD = 0x00;
  4989  0099  0192               	clrf	18	;volatile
  4990  009A  0008               	return
  4991  009B                     __end_of_SPI_Init:	
  4992                           
  4993                           	psect	text13
  4994  0322                     __ptext13:	
  4995 ;; *************** function _SD_Init *****************
  4996 ;; Defined at:
  4997 ;;		line 11 in file "Lab3_SD.c"
  4998 ;; Parameters:    Size  Location     Type
  4999 ;;		None
  5000 ;; Auto vars:     Size  Location     Type
  5001 ;;		None
  5002 ;; Return value:  Size  Location     Type
  5003 ;;                  1    wreg      void 
  5004 ;; Registers used:
  5005 ;;		wreg, fsr0l, fsr0h, status,2, status,0, pclath, cstack
  5006 ;; Tracked objects:
  5007 ;;		On entry : 0/0
  5008 ;;		On exit  : 0/0
  5009 ;;		Unchanged: 0/0
  5010 ;; Data sizes:     COMMON   BANK0   BANK1   BANK2   BANK3   BANK4   BANK5   BANK6   BANK7   BANK8   BANK9  BANK10  BANK1
      +1  BANK12  BANK13  BANK14  BANK15  BANK16  BANK17  BANK18  BANK19  BANK20  BANK21  BANK22  BANK23  BANK24  BANK25
  5011 ;;      Params:         0       0       0       0       0       0       0       0       0       0       0       0       
      +0       0       0       0       0       0       0       0       0       0       0       0       0       0       0
  5012 ;;      Locals:         0       0       0       0       0       0       0       0       0       0       0       0       
      +0       0       0       0       0       0       0       0       0       0       0       0       0       0       0
  5013 ;;      Temps:          1       0       0       0       0       0       0       0       0       0       0       0       
      +0       0       0       0       0       0       0       0       0       0       0       0       0       0       0
  5014 ;;      Totals:         1       0       0       0       0       0       0       0       0       0       0       0       
      +0       0       0       0       0       0       0       0       0       0       0       0       0       0       0
  5015 ;;Total ram usage:        1 bytes
  5016 ;; Hardware stack levels used:    1
  5017 ;; Hardware stack levels required when called:    2
  5018 ;; This function calls:
  5019 ;;		_SD_Check40bitResponse
  5020 ;;		_SD_Check8bitResponse
  5021 ;;		_SD_Read40bitResponse
  5022 ;;		_SD_Read8bitResponse
  5023 ;;		_SD_SendCommand
  5024 ;;		_SPI_Write
  5025 ;; This function is called by:
  5026 ;;		_main
  5027 ;; This function uses a non-reentrant model
  5028 ;;
  5029                           
  5030                           
  5031                           ;psect for function _SD_Init
  5032  0322                     _SD_Init:	
  5033                           
  5034                           ;Lab3_SD.c: 15:     { PORTCbits.RC7 = 1; SSP1CON1bits.WCOL = 0; };
  5035                           
  5036                           ;incstack = 0
  5037                           ; Regs used in _SD_Init: [wreg-fsr0h+status,2+status,0+pclath+cstack]
  5038  0322  0020               	movlb	0	; select bank0
  5039  0323  178E               	bsf	14,7	;volatile
  5040  0324  0024               	movlb	4	; select bank4
  5041  0325  1395               	bcf	21,7	;volatile
  5042                           
  5043                           ;Lab3_SD.c: 17:     SPI_Write(0xFF);
  5044  0326  30FF               	movlw	255
  5045  0327  3180  2004  3183   	fcall	_SPI_Write
  5046                           
  5047                           ;Lab3_SD.c: 18:     SPI_Write(0xFF);
  5048  032A  30FF               	movlw	255
  5049  032B  3180  2004  3183   	fcall	_SPI_Write
  5050                           
  5051                           ;Lab3_SD.c: 19:     SPI_Write(0xFF);
  5052  032E  30FF               	movlw	255
  5053  032F  3180  2004  3183   	fcall	_SPI_Write
  5054                           
  5055                           ;Lab3_SD.c: 20:     SPI_Write(0xFF);
  5056  0332  30FF               	movlw	255
  5057  0333  3180  2004  3183   	fcall	_SPI_Write
  5058                           
  5059                           ;Lab3_SD.c: 21:     SPI_Write(0xFF);
  5060  0336  30FF               	movlw	255
  5061  0337  3180  2004  3183   	fcall	_SPI_Write
  5062                           
  5063                           ;Lab3_SD.c: 22:     SPI_Write(0xFF);
  5064  033A  30FF               	movlw	255
  5065  033B  3180  2004  3183   	fcall	_SPI_Write
  5066                           
  5067                           ;Lab3_SD.c: 23:     SPI_Write(0xFF);
  5068  033E  30FF               	movlw	255
  5069  033F  3180  2004  3183   	fcall	_SPI_Write
  5070                           
  5071                           ;Lab3_SD.c: 24:     SPI_Write(0xFF);
  5072  0342  30FF               	movlw	255
  5073  0343  3180  2004  3183   	fcall	_SPI_Write
  5074                           
  5075                           ;Lab3_SD.c: 25:     SPI_Write(0xFF);
  5076  0346  30FF               	movlw	255
  5077  0347  3180  2004  3183   	fcall	_SPI_Write
  5078                           
  5079                           ;Lab3_SD.c: 26:     SPI_Write(0xFF);
  5080  034A  30FF               	movlw	255
  5081  034B  3180  2004  3183   	fcall	_SPI_Write
  5082                           
  5083                           ;Lab3_SD.c: 28:     { PORTCbits.RC7 = 0; SSP1CON1bits.WCOL = 0; };
  5084  034E  0020               	movlb	0	; select bank0
  5085  034F  138E               	bcf	14,7	;volatile
  5086  0350  0024               	movlb	4	; select bank4
  5087  0351  1395               	bcf	21,7	;volatile
  5088  0352                     l1908:	
  5089                           
  5090                           ;Lab3_SD.c: 35:         SD_SendCommand(0, 0x00, 0x00, 0x00, 0x00);
  5091  0352  01F1               	clrf	SD_SendCommand@ARG3
  5092  0353  01F2               	clrf	SD_SendCommand@ARG2
  5093  0354  01F3               	clrf	SD_SendCommand@ARG1
  5094  0355  01F4               	clrf	SD_SendCommand@ARG0
  5095  0356  3000               	movlw	0
  5096  0357  3184  243A  3183   	fcall	_SD_SendCommand
  5097                           
  5098                           ;Lab3_SD.c: 36:         SD_Read8bitResponse();
  5099  035A  3180  2023  3183   	fcall	_SD_Read8bitResponse
  5100  035D  0000               	nop	;# 
  5101                           
  5102                           ;Lab3_SD.c: 38:     } while (SD_Check8bitResponse(0x01) == 0);
  5103  035E  3001               	movlw	1
  5104  035F  318F  27E1  3183   	fcall	_SD_Check8bitResponse
  5105  0362  3A00               	xorlw	0
  5106  0363  1903               	skipnz
  5107  0364  2B52               	goto	l1908
  5108  0365                     l1914:	
  5109                           
  5110                           ;Lab3_SD.c: 45:         SD_SendCommand(8, 0x00, 0x00, 0x01, 0xAA);
  5111  0365  01F1               	clrf	SD_SendCommand@ARG3
  5112  0366  01F2               	clrf	SD_SendCommand@ARG2
  5113  0367  01F3               	clrf	SD_SendCommand@ARG1
  5114  0368  0AF3               	incf	SD_SendCommand@ARG1,f
  5115  0369  30AA               	movlw	170
  5116  036A  00F9               	movwf	??_SD_Init
  5117  036B  0879               	movf	??_SD_Init,w
  5118  036C  00F4               	movwf	SD_SendCommand@ARG0
  5119  036D  3008               	movlw	8
  5120  036E  3184  243A  3183   	fcall	_SD_SendCommand
  5121                           
  5122                           ;Lab3_SD.c: 46:         SD_Read40bitResponse();
  5123  0371  3180  20C6  3183   	fcall	_SD_Read40bitResponse
  5124  0374  0000               	nop	;# 
  5125                           
  5126                           ;Lab3_SD.c: 48:     } while (SD_Check40bitResponse(0x01, 0x00, 0x00, 0x01, 0xAA) == 0);
  5127  0375  01F0               	clrf	SD_Check40bitResponse@Byte3
  5128  0376  01F1               	clrf	SD_Check40bitResponse@Byte2
  5129  0377  01F2               	clrf	SD_Check40bitResponse@Byte1
  5130  0378  0AF2               	incf	SD_Check40bitResponse@Byte1,f
  5131  0379  30AA               	movlw	170
  5132  037A  00F9               	movwf	??_SD_Init
  5133  037B  0879               	movf	??_SD_Init,w
  5134  037C  00F3               	movwf	SD_Check40bitResponse@Byte0
  5135  037D  3001               	movlw	1
  5136  037E  3180  2049  3183   	fcall	_SD_Check40bitResponse
  5137  0381  3A00               	xorlw	0
  5138  0382  1903               	skipnz
  5139  0383  2B65               	goto	l1914
  5140  0384                     l1920:	
  5141                           
  5142                           ;Lab3_SD.c: 56:             SD_SendCommand(55, 0x00, 0x00, 0x00, 0x00);
  5143  0384  01F1               	clrf	SD_SendCommand@ARG3
  5144  0385  01F2               	clrf	SD_SendCommand@ARG2
  5145  0386  01F3               	clrf	SD_SendCommand@ARG1
  5146  0387  01F4               	clrf	SD_SendCommand@ARG0
  5147  0388  3037               	movlw	55
  5148  0389  3184  243A  3183   	fcall	_SD_SendCommand
  5149                           
  5150                           ;Lab3_SD.c: 57:             SD_Read8bitResponse();
  5151  038C  3180  2023  3183   	fcall	_SD_Read8bitResponse
  5152  038F  0000               	nop	;# 
  5153                           
  5154                           ;Lab3_SD.c: 59:         } while (SD_Check8bitResponse(0x01) == 0);
  5155  0390  3001               	movlw	1
  5156  0391  318F  27E1  3183   	fcall	_SD_Check8bitResponse
  5157  0394  3A00               	xorlw	0
  5158  0395  1903               	skipnz
  5159  0396  2B84               	goto	l1920
  5160                           
  5161                           ;Lab3_SD.c: 66:         SD_SendCommand(41, 0x40, 0x00, 0x00, 0x00);
  5162  0397  3040               	movlw	64
  5163  0398  00F9               	movwf	??_SD_Init
  5164  0399  0879               	movf	??_SD_Init,w
  5165  039A  00F1               	movwf	SD_SendCommand@ARG3
  5166  039B  01F2               	clrf	SD_SendCommand@ARG2
  5167  039C  01F3               	clrf	SD_SendCommand@ARG1
  5168  039D  01F4               	clrf	SD_SendCommand@ARG0
  5169  039E  3029               	movlw	41
  5170  039F  3184  243A  3183   	fcall	_SD_SendCommand
  5171                           
  5172                           ;Lab3_SD.c: 67:         SD_Read8bitResponse();
  5173  03A2  3180  2023  3183   	fcall	_SD_Read8bitResponse
  5174  03A5  0000               	nop	;# 
  5175                           
  5176                           ;Lab3_SD.c: 69:     } while (SD_Check8bitResponse(0x00) == 0);
  5177  03A6  3000               	movlw	0
  5178  03A7  318F  27E1  3183   	fcall	_SD_Check8bitResponse
  5179  03AA  3A00               	xorlw	0
  5180  03AB  1D03               	btfss	3,2
  5181  03AC  0008               	return
  5182  03AD  2B84               	goto	l1920
  5183  03AE                     __end_of_SD_Init:	
  5184                           
  5185                           	psect	text14
  5186  043A                     __ptext14:	
  5187 ;; *************** function _SD_SendCommand *****************
  5188 ;; Defined at:
  5189 ;;		line 78 in file "Lab3_SD.c"
  5190 ;; Parameters:    Size  Location     Type
  5191 ;;  CMD_6bit        1    wreg     unsigned char 
  5192 ;;  ARG3            1    1[COMMON] unsigned char 
  5193 ;;  ARG2            1    2[COMMON] unsigned char 
  5194 ;;  ARG1            1    3[COMMON] unsigned char 
  5195 ;;  ARG0            1    4[COMMON] unsigned char 
  5196 ;; Auto vars:     Size  Location     Type
  5197 ;;  CMD_6bit        1    6[COMMON] unsigned char 
  5198 ;;  Checksum        1    8[COMMON] unsigned char 
  5199 ;;  ByteToSend      1    7[COMMON] unsigned char 
  5200 ;; Return value:  Size  Location     Type
  5201 ;;                  1    wreg      void 
  5202 ;; Registers used:
  5203 ;;		wreg, fsr0l, fsr0h, status,2, status,0, pclath, cstack
  5204 ;; Tracked objects:
  5205 ;;		On entry : 0/0
  5206 ;;		On exit  : 0/0
  5207 ;;		Unchanged: 0/0
  5208 ;; Data sizes:     COMMON   BANK0   BANK1   BANK2   BANK3   BANK4   BANK5   BANK6   BANK7   BANK8   BANK9  BANK10  BANK1
      +1  BANK12  BANK13  BANK14  BANK15  BANK16  BANK17  BANK18  BANK19  BANK20  BANK21  BANK22  BANK23  BANK24  BANK25
  5209 ;;      Params:         4       0       0       0       0       0       0       0       0       0       0       0       
      +0       0       0       0       0       0       0       0       0       0       0       0       0       0       0
  5210 ;;      Locals:         3       0       0       0       0       0       0       0       0       0       0       0       
      +0       0       0       0       0       0       0       0       0       0       0       0       0       0       0
  5211 ;;      Temps:          1       0       0       0       0       0       0       0       0       0       0       0       
      +0       0       0       0       0       0       0       0       0       0       0       0       0       0       0
  5212 ;;      Totals:         8       0       0       0       0       0       0       0       0       0       0       0       
      +0       0       0       0       0       0       0       0       0       0       0       0       0       0       0
  5213 ;;Total ram usage:        8 bytes
  5214 ;; Hardware stack levels used:    1
  5215 ;; Hardware stack levels required when called:    1
  5216 ;; This function calls:
  5217 ;;		_SPI_Write
  5218 ;; This function is called by:
  5219 ;;		_SD_Init
  5220 ;;		_active
  5221 ;;		_SD_WriteBlock
  5222 ;;		_SD_ReadBlock
  5223 ;; This function uses a non-reentrant model
  5224 ;;
  5225                           
  5226                           
  5227                           ;psect for function _SD_SendCommand
  5228  043A                     _SD_SendCommand:	
  5229                           
  5230                           ;incstack = 0
  5231                           ; Regs used in _SD_SendCommand: [wreg-fsr0h+status,2+status,0+pclath+cstack]
  5232                           ;SD_SendCommand@CMD_6bit stored from wreg
  5233  043A  00F6               	movwf	SD_SendCommand@CMD_6bit
  5234                           
  5235                           ;Lab3_SD.c: 81:     char Checksum = 0x00;
  5236  043B  01F8               	clrf	SD_SendCommand@Checksum
  5237                           
  5238                           ;Lab3_SD.c: 84:     ByteToSend = (CMD_6bit & 0x3F) | 0x40;
  5239  043C  0876               	movf	SD_SendCommand@CMD_6bit,w
  5240  043D  393F               	andlw	63
  5241  043E  3840               	iorlw	64
  5242  043F  00F5               	movwf	??_SD_SendCommand
  5243  0440  0875               	movf	??_SD_SendCommand,w
  5244  0441  00F7               	movwf	SD_SendCommand@ByteToSend
  5245                           
  5246                           ;Lab3_SD.c: 85:     SPI_Write(ByteToSend);
  5247  0442  0877               	movf	SD_SendCommand@ByteToSend,w
  5248  0443  3180  2004  3184   	fcall	_SPI_Write
  5249                           
  5250                           ;Lab3_SD.c: 86:     { Checksum = Checksum << 1; Checksum = Checksum ^ ByteToSend; Checks
      +                          um = CRCTable[Checksum]; };
  5251  0446  3578               	lslf	SD_SendCommand@Checksum,w
  5252  0447  00F5               	movwf	??_SD_SendCommand
  5253  0448  0875               	movf	??_SD_SendCommand,w
  5254  0449  00F8               	movwf	SD_SendCommand@Checksum
  5255  044A  0878               	movf	SD_SendCommand@Checksum,w
  5256  044B  0677               	xorwf	SD_SendCommand@ByteToSend,w
  5257  044C  00F5               	movwf	??_SD_SendCommand
  5258  044D  0875               	movf	??_SD_SendCommand,w
  5259  044E  00F8               	movwf	SD_SendCommand@Checksum
  5260  044F  0878               	movf	SD_SendCommand@Checksum,w
  5261  0450  3E00               	addlw	low (_CRCTable| (0+32768))
  5262  0451  0084               	movwf	4
  5263  0452  3088               	movlw	high (_CRCTable| (0+32768))
  5264  0453  1803               	skipnc
  5265  0454  3E01               	addlw	1
  5266  0455  0085               	movwf	5
  5267  0456  0800               	movf	0,w	;code access
  5268  0457  00F5               	movwf	??_SD_SendCommand
  5269  0458  0875               	movf	??_SD_SendCommand,w
  5270  0459  00F8               	movwf	SD_SendCommand@Checksum
  5271                           
  5272                           ;Lab3_SD.c: 89:     ByteToSend = ARG3;
  5273  045A  0871               	movf	SD_SendCommand@ARG3,w
  5274  045B  00F5               	movwf	??_SD_SendCommand
  5275  045C  0875               	movf	??_SD_SendCommand,w
  5276  045D  00F7               	movwf	SD_SendCommand@ByteToSend
  5277                           
  5278                           ;Lab3_SD.c: 90:     SPI_Write(ByteToSend);
  5279  045E  0877               	movf	SD_SendCommand@ByteToSend,w
  5280  045F  3180  2004  3184   	fcall	_SPI_Write
  5281                           
  5282                           ;Lab3_SD.c: 91:     { Checksum = Checksum << 1; Checksum = Checksum ^ ByteToSend; Checks
      +                          um = CRCTable[Checksum]; };
  5283  0462  3578               	lslf	SD_SendCommand@Checksum,w
  5284  0463  00F5               	movwf	??_SD_SendCommand
  5285  0464  0875               	movf	??_SD_SendCommand,w
  5286  0465  00F8               	movwf	SD_SendCommand@Checksum
  5287  0466  0878               	movf	SD_SendCommand@Checksum,w
  5288  0467  0677               	xorwf	SD_SendCommand@ByteToSend,w
  5289  0468  00F5               	movwf	??_SD_SendCommand
  5290  0469  0875               	movf	??_SD_SendCommand,w
  5291  046A  00F8               	movwf	SD_SendCommand@Checksum
  5292  046B  0878               	movf	SD_SendCommand@Checksum,w
  5293  046C  3E00               	addlw	low (_CRCTable| (0+32768))
  5294  046D  0084               	movwf	4
  5295  046E  3088               	movlw	high (_CRCTable| (0+32768))
  5296  046F  1803               	skipnc
  5297  0470  3E01               	addlw	1
  5298  0471  0085               	movwf	5
  5299  0472  0800               	movf	0,w	;code access
  5300  0473  00F5               	movwf	??_SD_SendCommand
  5301  0474  0875               	movf	??_SD_SendCommand,w
  5302  0475  00F8               	movwf	SD_SendCommand@Checksum
  5303                           
  5304                           ;Lab3_SD.c: 93:     ByteToSend = ARG2;
  5305  0476  0872               	movf	SD_SendCommand@ARG2,w
  5306  0477  00F5               	movwf	??_SD_SendCommand
  5307  0478  0875               	movf	??_SD_SendCommand,w
  5308  0479  00F7               	movwf	SD_SendCommand@ByteToSend
  5309                           
  5310                           ;Lab3_SD.c: 94:     SPI_Write(ByteToSend);
  5311  047A  0877               	movf	SD_SendCommand@ByteToSend,w
  5312  047B  3180  2004  3184   	fcall	_SPI_Write
  5313                           
  5314                           ;Lab3_SD.c: 95:     { Checksum = Checksum << 1; Checksum = Checksum ^ ByteToSend; Checks
      +                          um = CRCTable[Checksum]; };
  5315  047E  3578               	lslf	SD_SendCommand@Checksum,w
  5316  047F  00F5               	movwf	??_SD_SendCommand
  5317  0480  0875               	movf	??_SD_SendCommand,w
  5318  0481  00F8               	movwf	SD_SendCommand@Checksum
  5319  0482  0878               	movf	SD_SendCommand@Checksum,w
  5320  0483  0677               	xorwf	SD_SendCommand@ByteToSend,w
  5321  0484  00F5               	movwf	??_SD_SendCommand
  5322  0485  0875               	movf	??_SD_SendCommand,w
  5323  0486  00F8               	movwf	SD_SendCommand@Checksum
  5324  0487  0878               	movf	SD_SendCommand@Checksum,w
  5325  0488  3E00               	addlw	low (_CRCTable| (0+32768))
  5326  0489  0084               	movwf	4
  5327  048A  3088               	movlw	high (_CRCTable| (0+32768))
  5328  048B  1803               	skipnc
  5329  048C  3E01               	addlw	1
  5330  048D  0085               	movwf	5
  5331  048E  0800               	movf	0,w	;code access
  5332  048F  00F5               	movwf	??_SD_SendCommand
  5333  0490  0875               	movf	??_SD_SendCommand,w
  5334  0491  00F8               	movwf	SD_SendCommand@Checksum
  5335                           
  5336                           ;Lab3_SD.c: 97:     ByteToSend = ARG1;
  5337  0492  0873               	movf	SD_SendCommand@ARG1,w
  5338  0493  00F5               	movwf	??_SD_SendCommand
  5339  0494  0875               	movf	??_SD_SendCommand,w
  5340  0495  00F7               	movwf	SD_SendCommand@ByteToSend
  5341                           
  5342                           ;Lab3_SD.c: 98:     SPI_Write(ByteToSend);
  5343  0496  0877               	movf	SD_SendCommand@ByteToSend,w
  5344  0497  3180  2004  3184   	fcall	_SPI_Write
  5345                           
  5346                           ;Lab3_SD.c: 99:     { Checksum = Checksum << 1; Checksum = Checksum ^ ByteToSend; Checks
      +                          um = CRCTable[Checksum]; };
  5347  049A  3578               	lslf	SD_SendCommand@Checksum,w
  5348  049B  00F5               	movwf	??_SD_SendCommand
  5349  049C  0875               	movf	??_SD_SendCommand,w
  5350  049D  00F8               	movwf	SD_SendCommand@Checksum
  5351  049E  0878               	movf	SD_SendCommand@Checksum,w
  5352  049F  0677               	xorwf	SD_SendCommand@ByteToSend,w
  5353  04A0  00F5               	movwf	??_SD_SendCommand
  5354  04A1  0875               	movf	??_SD_SendCommand,w
  5355  04A2  00F8               	movwf	SD_SendCommand@Checksum
  5356  04A3  0878               	movf	SD_SendCommand@Checksum,w
  5357  04A4  3E00               	addlw	low (_CRCTable| (0+32768))
  5358  04A5  0084               	movwf	4
  5359  04A6  3088               	movlw	high (_CRCTable| (0+32768))
  5360  04A7  1803               	skipnc
  5361  04A8  3E01               	addlw	1
  5362  04A9  0085               	movwf	5
  5363  04AA  0800               	movf	0,w	;code access
  5364  04AB  00F5               	movwf	??_SD_SendCommand
  5365  04AC  0875               	movf	??_SD_SendCommand,w
  5366  04AD  00F8               	movwf	SD_SendCommand@Checksum
  5367                           
  5368                           ;Lab3_SD.c: 101:     ByteToSend = ARG0;
  5369  04AE  0874               	movf	SD_SendCommand@ARG0,w
  5370  04AF  00F5               	movwf	??_SD_SendCommand
  5371  04B0  0875               	movf	??_SD_SendCommand,w
  5372  04B1  00F7               	movwf	SD_SendCommand@ByteToSend
  5373                           
  5374                           ;Lab3_SD.c: 102:     SPI_Write(ByteToSend);
  5375  04B2  0877               	movf	SD_SendCommand@ByteToSend,w
  5376  04B3  3180  2004  3184   	fcall	_SPI_Write
  5377                           
  5378                           ;Lab3_SD.c: 103:     { Checksum = Checksum << 1; Checksum = Checksum ^ ByteToSend; Check
      +                          sum = CRCTable[Checksum]; };
  5379  04B6  3578               	lslf	SD_SendCommand@Checksum,w
  5380  04B7  00F5               	movwf	??_SD_SendCommand
  5381  04B8  0875               	movf	??_SD_SendCommand,w
  5382  04B9  00F8               	movwf	SD_SendCommand@Checksum
  5383  04BA  0878               	movf	SD_SendCommand@Checksum,w
  5384  04BB  0677               	xorwf	SD_SendCommand@ByteToSend,w
  5385  04BC  00F5               	movwf	??_SD_SendCommand
  5386  04BD  0875               	movf	??_SD_SendCommand,w
  5387  04BE  00F8               	movwf	SD_SendCommand@Checksum
  5388  04BF  0878               	movf	SD_SendCommand@Checksum,w
  5389  04C0  3E00               	addlw	low (_CRCTable| (0+32768))
  5390  04C1  0084               	movwf	4
  5391  04C2  3088               	movlw	high (_CRCTable| (0+32768))
  5392  04C3  1803               	skipnc
  5393  04C4  3E01               	addlw	1
  5394  04C5  0085               	movwf	5
  5395  04C6  0800               	movf	0,w	;code access
  5396  04C7  00F5               	movwf	??_SD_SendCommand
  5397  04C8  0875               	movf	??_SD_SendCommand,w
  5398  04C9  00F8               	movwf	SD_SendCommand@Checksum
  5399                           
  5400                           ;Lab3_SD.c: 106:     ByteToSend = (Checksum << 1) | 0x01;
  5401  04CA  1403               	setc
  5402  04CB  0D78               	rlf	SD_SendCommand@Checksum,w
  5403  04CC  00F5               	movwf	??_SD_SendCommand
  5404  04CD  0875               	movf	??_SD_SendCommand,w
  5405  04CE  00F7               	movwf	SD_SendCommand@ByteToSend
  5406                           
  5407                           ;Lab3_SD.c: 107:     SPI_Write(ByteToSend);
  5408  04CF  0877               	movf	SD_SendCommand@ByteToSend,w
  5409  04D0  3180  2004         	fcall	_SPI_Write
  5410  04D2  0008               	return
  5411  04D3                     __end_of_SD_SendCommand:	
  5412                           
  5413                           	psect	text15
  5414  0004                     __ptext15:	
  5415 ;; *************** function _SPI_Write *****************
  5416 ;; Defined at:
  5417 ;;		line 39 in file "Lab3_SPI.c"
  5418 ;; Parameters:    Size  Location     Type
  5419 ;;  Data_8bit       1    wreg     unsigned char 
  5420 ;; Auto vars:     Size  Location     Type
  5421 ;;  Data_8bit       1    0[COMMON] unsigned char 
  5422 ;; Return value:  Size  Location     Type
  5423 ;;                  1    wreg      void 
  5424 ;; Registers used:
  5425 ;;		wreg
  5426 ;; Tracked objects:
  5427 ;;		On entry : 0/0
  5428 ;;		On exit  : 0/0
  5429 ;;		Unchanged: 0/0
  5430 ;; Data sizes:     COMMON   BANK0   BANK1   BANK2   BANK3   BANK4   BANK5   BANK6   BANK7   BANK8   BANK9  BANK10  BANK1
      +1  BANK12  BANK13  BANK14  BANK15  BANK16  BANK17  BANK18  BANK19  BANK20  BANK21  BANK22  BANK23  BANK24  BANK25
  5431 ;;      Params:         0       0       0       0       0       0       0       0       0       0       0       0       
      +0       0       0       0       0       0       0       0       0       0       0       0       0       0       0
  5432 ;;      Locals:         1       0       0       0       0       0       0       0       0       0       0       0       
      +0       0       0       0       0       0       0       0       0       0       0       0       0       0       0
  5433 ;;      Temps:          0       0       0       0       0       0       0       0       0       0       0       0       
      +0       0       0       0       0       0       0       0       0       0       0       0       0       0       0
  5434 ;;      Totals:         1       0       0       0       0       0       0       0       0       0       0       0       
      +0       0       0       0       0       0       0       0       0       0       0       0       0       0       0
  5435 ;;Total ram usage:        1 bytes
  5436 ;; Hardware stack levels used:    1
  5437 ;; This function calls:
  5438 ;;		Nothing
  5439 ;; This function is called by:
  5440 ;;		_SD_Init
  5441 ;;		_SD_SendCommand
  5442 ;;		_SD_WriteBlock
  5443 ;; This function uses a non-reentrant model
  5444 ;;
  5445                           
  5446                           
  5447                           ;psect for function _SPI_Write
  5448  0004                     _SPI_Write:	
  5449                           
  5450                           ;incstack = 0
  5451                           ; Regs used in _SPI_Write: [wreg]
  5452                           ;SPI_Write@Data_8bit stored from wreg
  5453  0004  00F0               	movwf	SPI_Write@Data_8bit
  5454                           
  5455                           ;Lab3_SPI.c: 39: void SPI_Write(char Data_8bit);Lab3_SPI.c: 40: {;Lab3_SPI.c: 41:     SS
      +                          P1BUF = Data_8bit;
  5456  0005  0870               	movf	SPI_Write@Data_8bit,w
  5457  0006  0024               	movlb	4	; select bank4
  5458  0007  0091               	movwf	17	;volatile
  5459  0008                     l114:	
  5460                           ;Lab3_SPI.c: 42:     while(SSP1STATbits.BF == 0);
  5461                           
  5462  0008  1814               	btfsc	20,0	;volatile
  5463  0009  0008               	return
  5464  000A  2808               	goto	l114
  5465  000B                     __end_of_SPI_Write:	
  5466                           
  5467                           	psect	text16
  5468  0023                     __ptext16:	
  5469 ;; *************** function _SD_Read8bitResponse *****************
  5470 ;; Defined at:
  5471 ;;		line 114 in file "Lab3_SD.c"
  5472 ;; Parameters:    Size  Location     Type
  5473 ;;		None
  5474 ;; Auto vars:     Size  Location     Type
  5475 ;;  readMessage     1    1[COMMON] unsigned char 
  5476 ;; Return value:  Size  Location     Type
  5477 ;;                  1    wreg      void 
  5478 ;; Registers used:
  5479 ;;		wreg, status,2, status,0, pclath, cstack
  5480 ;; Tracked objects:
  5481 ;;		On entry : 0/0
  5482 ;;		On exit  : 0/0
  5483 ;;		Unchanged: 0/0
  5484 ;; Data sizes:     COMMON   BANK0   BANK1   BANK2   BANK3   BANK4   BANK5   BANK6   BANK7   BANK8   BANK9  BANK10  BANK1
      +1  BANK12  BANK13  BANK14  BANK15  BANK16  BANK17  BANK18  BANK19  BANK20  BANK21  BANK22  BANK23  BANK24  BANK25
  5485 ;;      Params:         0       0       0       0       0       0       0       0       0       0       0       0       
      +0       0       0       0       0       0       0       0       0       0       0       0       0       0       0
  5486 ;;      Locals:         1       0       0       0       0       0       0       0       0       0       0       0       
      +0       0       0       0       0       0       0       0       0       0       0       0       0       0       0
  5487 ;;      Temps:          1       0       0       0       0       0       0       0       0       0       0       0       
      +0       0       0       0       0       0       0       0       0       0       0       0       0       0       0
  5488 ;;      Totals:         2       0       0       0       0       0       0       0       0       0       0       0       
      +0       0       0       0       0       0       0       0       0       0       0       0       0       0       0
  5489 ;;Total ram usage:        2 bytes
  5490 ;; Hardware stack levels used:    1
  5491 ;; Hardware stack levels required when called:    1
  5492 ;; This function calls:
  5493 ;;		_SPI_Read
  5494 ;; This function is called by:
  5495 ;;		_SD_Init
  5496 ;;		_active
  5497 ;;		_SD_WriteBlock
  5498 ;;		_SD_ReadBlock
  5499 ;; This function uses a non-reentrant model
  5500 ;;
  5501                           
  5502                           
  5503                           ;psect for function _SD_Read8bitResponse
  5504  0023                     _SD_Read8bitResponse:	
  5505  0023                     l1570:	
  5506                           ;incstack = 0
  5507                           ; Regs used in _SD_Read8bitResponse: [wreg+status,2+status,0+pclath+cstack]
  5508                           
  5509  0023  318F  27DA  3180   	fcall	_SPI_Read
  5510  0026  00F0               	movwf	??_SD_Read8bitResponse
  5511  0027  0870               	movf	??_SD_Read8bitResponse,w
  5512  0028  00F1               	movwf	SD_Read8bitResponse@readMessage
  5513  0029  0A71               	incf	SD_Read8bitResponse@readMessage,w
  5514  002A  1903               	btfsc	3,2
  5515  002B  2823               	goto	l1570
  5516                           
  5517                           ;Lab3_SD.c: 124:     GLBL_Resp8 = readMessage;
  5518  002C  0871               	movf	SD_Read8bitResponse@readMessage,w
  5519  002D  00F0               	movwf	??_SD_Read8bitResponse
  5520  002E  0870               	movf	??_SD_Read8bitResponse,w
  5521  002F  0020               	movlb	0	; select bank0
  5522  0030  00CA               	movwf	_GLBL_Resp8
  5523                           
  5524                           ;Lab3_SD.c: 127:     SPI_Read();
  5525  0031  318F  27DA         	fcall	_SPI_Read
  5526  0033  0008               	return
  5527  0034                     __end_of_SD_Read8bitResponse:	
  5528                           
  5529                           	psect	text17
  5530  00C6                     __ptext17:	
  5531 ;; *************** function _SD_Read40bitResponse *****************
  5532 ;; Defined at:
  5533 ;;		line 145 in file "Lab3_SD.c"
  5534 ;; Parameters:    Size  Location     Type
  5535 ;;		None
  5536 ;; Auto vars:     Size  Location     Type
  5537 ;;  readMessage     1    1[COMMON] unsigned char 
  5538 ;; Return value:  Size  Location     Type
  5539 ;;                  1    wreg      void 
  5540 ;; Registers used:
  5541 ;;		wreg, status,2, status,0, pclath, cstack
  5542 ;; Tracked objects:
  5543 ;;		On entry : 0/0
  5544 ;;		On exit  : 0/0
  5545 ;;		Unchanged: 0/0
  5546 ;; Data sizes:     COMMON   BANK0   BANK1   BANK2   BANK3   BANK4   BANK5   BANK6   BANK7   BANK8   BANK9  BANK10  BANK1
      +1  BANK12  BANK13  BANK14  BANK15  BANK16  BANK17  BANK18  BANK19  BANK20  BANK21  BANK22  BANK23  BANK24  BANK25
  5547 ;;      Params:         0       0       0       0       0       0       0       0       0       0       0       0       
      +0       0       0       0       0       0       0       0       0       0       0       0       0       0       0
  5548 ;;      Locals:         1       0       0       0       0       0       0       0       0       0       0       0       
      +0       0       0       0       0       0       0       0       0       0       0       0       0       0       0
  5549 ;;      Temps:          1       0       0       0       0       0       0       0       0       0       0       0       
      +0       0       0       0       0       0       0       0       0       0       0       0       0       0       0
  5550 ;;      Totals:         2       0       0       0       0       0       0       0       0       0       0       0       
      +0       0       0       0       0       0       0       0       0       0       0       0       0       0       0
  5551 ;;Total ram usage:        2 bytes
  5552 ;; Hardware stack levels used:    1
  5553 ;; Hardware stack levels required when called:    1
  5554 ;; This function calls:
  5555 ;;		_SPI_Read
  5556 ;; This function is called by:
  5557 ;;		_SD_Init
  5558 ;; This function uses a non-reentrant model
  5559 ;;
  5560                           
  5561                           
  5562                           ;psect for function _SD_Read40bitResponse
  5563  00C6                     _SD_Read40bitResponse:	
  5564  00C6                     l1838:	
  5565                           ;incstack = 0
  5566                           ; Regs used in _SD_Read40bitResponse: [wreg+status,2+status,0+pclath+cstack]
  5567                           
  5568  00C6  318F  27DA  3180   	fcall	_SPI_Read
  5569  00C9  00F0               	movwf	??_SD_Read40bitResponse
  5570  00CA  0870               	movf	??_SD_Read40bitResponse,w
  5571  00CB  00F1               	movwf	SD_Read40bitResponse@readMessage
  5572  00CC  0A71               	incf	SD_Read40bitResponse@readMessage,w
  5573  00CD  1903               	btfsc	3,2
  5574  00CE  28C6               	goto	l1838
  5575                           
  5576                           ;Lab3_SD.c: 155:     GLBL_Resp40[0] = readMessage;
  5577  00CF  0871               	movf	SD_Read40bitResponse@readMessage,w
  5578  00D0  00F0               	movwf	??_SD_Read40bitResponse
  5579  00D1  0870               	movf	??_SD_Read40bitResponse,w
  5580  00D2  0020               	movlb	0	; select bank0
  5581  00D3  00C1               	movwf	_GLBL_Resp40
  5582                           
  5583                           ;Lab3_SD.c: 156:     GLBL_Resp40[1] = SPI_Read();
  5584  00D4  318F  27DA  3180   	fcall	_SPI_Read
  5585  00D7  00F0               	movwf	??_SD_Read40bitResponse
  5586  00D8  0870               	movf	??_SD_Read40bitResponse,w
  5587  00D9  0020               	movlb	0	; select bank0
  5588  00DA  00C2               	movwf	_GLBL_Resp40+1
  5589                           
  5590                           ;Lab3_SD.c: 157:     GLBL_Resp40[2] = SPI_Read();
  5591  00DB  318F  27DA  3180   	fcall	_SPI_Read
  5592  00DE  00F0               	movwf	??_SD_Read40bitResponse
  5593  00DF  0870               	movf	??_SD_Read40bitResponse,w
  5594  00E0  0020               	movlb	0	; select bank0
  5595  00E1  00C3               	movwf	_GLBL_Resp40+2
  5596                           
  5597                           ;Lab3_SD.c: 158:     GLBL_Resp40[3] = SPI_Read();
  5598  00E2  318F  27DA  3180   	fcall	_SPI_Read
  5599  00E5  00F0               	movwf	??_SD_Read40bitResponse
  5600  00E6  0870               	movf	??_SD_Read40bitResponse,w
  5601  00E7  0020               	movlb	0	; select bank0
  5602  00E8  00C4               	movwf	_GLBL_Resp40+3
  5603                           
  5604                           ;Lab3_SD.c: 159:     GLBL_Resp40[4] = SPI_Read();
  5605  00E9  318F  27DA  3180   	fcall	_SPI_Read
  5606  00EC  00F0               	movwf	??_SD_Read40bitResponse
  5607  00ED  0870               	movf	??_SD_Read40bitResponse,w
  5608  00EE  0020               	movlb	0	; select bank0
  5609  00EF  00C5               	movwf	_GLBL_Resp40+4
  5610                           
  5611                           ;Lab3_SD.c: 162:     SPI_Read();
  5612  00F0  318F  27DA         	fcall	_SPI_Read
  5613  00F2  0008               	return
  5614  00F3                     __end_of_SD_Read40bitResponse:	
  5615                           
  5616                           	psect	text18
  5617  0FDA                     __ptext18:	
  5618 ;; *************** function _SPI_Read *****************
  5619 ;; Defined at:
  5620 ;;		line 48 in file "Lab3_SPI.c"
  5621 ;; Parameters:    Size  Location     Type
  5622 ;;		None
  5623 ;; Auto vars:     Size  Location     Type
  5624 ;;		None
  5625 ;; Return value:  Size  Location     Type
  5626 ;;                  1    wreg      unsigned char 
  5627 ;; Registers used:
  5628 ;;		wreg
  5629 ;; Tracked objects:
  5630 ;;		On entry : 0/0
  5631 ;;		On exit  : 0/0
  5632 ;;		Unchanged: 0/0
  5633 ;; Data sizes:     COMMON   BANK0   BANK1   BANK2   BANK3   BANK4   BANK5   BANK6   BANK7   BANK8   BANK9  BANK10  BANK1
      +1  BANK12  BANK13  BANK14  BANK15  BANK16  BANK17  BANK18  BANK19  BANK20  BANK21  BANK22  BANK23  BANK24  BANK25
  5634 ;;      Params:         0       0       0       0       0       0       0       0       0       0       0       0       
      +0       0       0       0       0       0       0       0       0       0       0       0       0       0       0
  5635 ;;      Locals:         0       0       0       0       0       0       0       0       0       0       0       0       
      +0       0       0       0       0       0       0       0       0       0       0       0       0       0       0
  5636 ;;      Temps:          0       0       0       0       0       0       0       0       0       0       0       0       
      +0       0       0       0       0       0       0       0       0       0       0       0       0       0       0
  5637 ;;      Totals:         0       0       0       0       0       0       0       0       0       0       0       0       
      +0       0       0       0       0       0       0       0       0       0       0       0       0       0       0
  5638 ;;Total ram usage:        0 bytes
  5639 ;; Hardware stack levels used:    1
  5640 ;; This function calls:
  5641 ;;		Nothing
  5642 ;; This function is called by:
  5643 ;;		_SD_Read8bitResponse
  5644 ;;		_SD_Read40bitResponse
  5645 ;;		_active
  5646 ;;		_SD_ReadBlock
  5647 ;; This function uses a non-reentrant model
  5648 ;;
  5649                           
  5650                           
  5651                           ;psect for function _SPI_Read
  5652  0FDA                     _SPI_Read:	
  5653                           
  5654                           ;Lab3_SPI.c: 50:     SSP1BUF = 0xFF;
  5655                           
  5656                           ;incstack = 0
  5657                           ; Regs used in _SPI_Read: [wreg]
  5658  0FDA  30FF               	movlw	255
  5659  0FDB  0024               	movlb	4	; select bank4
  5660  0FDC  0091               	movwf	17	;volatile
  5661  0FDD                     l120:	
  5662                           ;Lab3_SPI.c: 51:     while(SSP1STATbits.BF == 0);
  5663                           
  5664  0FDD  1C14               	btfss	20,0	;volatile
  5665  0FDE  2FDD               	goto	l120
  5666                           
  5667                           ;Lab3_SPI.c: 52:     return SSP1BUF;
  5668  0FDF  0811               	movf	17,w	;volatile
  5669  0FE0  0008               	return
  5670  0FE1                     __end_of_SPI_Read:	
  5671                           
  5672                           	psect	text19
  5673  0FE1                     __ptext19:	
  5674 ;; *************** function _SD_Check8bitResponse *****************
  5675 ;; Defined at:
  5676 ;;		line 135 in file "Lab3_SD.c"
  5677 ;; Parameters:    Size  Location     Type
  5678 ;;  Byte            1    wreg     unsigned char 
  5679 ;; Auto vars:     Size  Location     Type
  5680 ;;  Byte            1    0[COMMON] unsigned char 
  5681 ;;  match           1    1[COMMON] _Bool 
  5682 ;; Return value:  Size  Location     Type
  5683 ;;                  1    wreg      _Bool 
  5684 ;; Registers used:
  5685 ;;		wreg, status,2
  5686 ;; Tracked objects:
  5687 ;;		On entry : 0/0
  5688 ;;		On exit  : 0/0
  5689 ;;		Unchanged: 0/0
  5690 ;; Data sizes:     COMMON   BANK0   BANK1   BANK2   BANK3   BANK4   BANK5   BANK6   BANK7   BANK8   BANK9  BANK10  BANK1
      +1  BANK12  BANK13  BANK14  BANK15  BANK16  BANK17  BANK18  BANK19  BANK20  BANK21  BANK22  BANK23  BANK24  BANK25
  5691 ;;      Params:         0       0       0       0       0       0       0       0       0       0       0       0       
      +0       0       0       0       0       0       0       0       0       0       0       0       0       0       0
  5692 ;;      Locals:         2       0       0       0       0       0       0       0       0       0       0       0       
      +0       0       0       0       0       0       0       0       0       0       0       0       0       0       0
  5693 ;;      Temps:          0       0       0       0       0       0       0       0       0       0       0       0       
      +0       0       0       0       0       0       0       0       0       0       0       0       0       0       0
  5694 ;;      Totals:         2       0       0       0       0       0       0       0       0       0       0       0       
      +0       0       0       0       0       0       0       0       0       0       0       0       0       0       0
  5695 ;;Total ram usage:        2 bytes
  5696 ;; Hardware stack levels used:    1
  5697 ;; This function calls:
  5698 ;;		Nothing
  5699 ;; This function is called by:
  5700 ;;		_SD_Init
  5701 ;;		_SD_WriteBlock
  5702 ;;		_SD_ReadBlock
  5703 ;; This function uses a non-reentrant model
  5704 ;;
  5705                           
  5706                           
  5707                           ;psect for function _SD_Check8bitResponse
  5708  0FE1                     _SD_Check8bitResponse:	
  5709                           
  5710                           ;incstack = 0
  5711                           ; Regs used in _SD_Check8bitResponse: [wreg+status,2]
  5712                           ;SD_Check8bitResponse@Byte stored from wreg
  5713  0FE1  00F0               	movwf	SD_Check8bitResponse@Byte
  5714                           
  5715                           ;Lab3_SD.c: 135: _Bool SD_Check8bitResponse(char Byte);Lab3_SD.c: 136: {;Lab3_SD.c: 137:
      +                               _Bool match = 1;
  5716  0FE2  01F1               	clrf	SD_Check8bitResponse@match
  5717  0FE3  0AF1               	incf	SD_Check8bitResponse@match,f
  5718                           
  5719                           ;Lab3_SD.c: 138:     if (Byte != GLBL_Resp8) match = 0;
  5720  0FE4  0870               	movf	SD_Check8bitResponse@Byte,w
  5721  0FE5  0020               	movlb	0	; select bank0
  5722  0FE6  064A               	xorwf	_GLBL_Resp8,w
  5723  0FE7  1D03               	btfss	3,2
  5724  0FE8  01F1               	clrf	SD_Check8bitResponse@match
  5725                           
  5726                           ;Lab3_SD.c: 139:     return match;
  5727  0FE9  0871               	movf	SD_Check8bitResponse@match,w
  5728  0FEA  0008               	return
  5729  0FEB                     __end_of_SD_Check8bitResponse:	
  5730                           
  5731                           	psect	text20
  5732  0049                     __ptext20:	
  5733 ;; *************** function _SD_Check40bitResponse *****************
  5734 ;; Defined at:
  5735 ;;		line 171 in file "Lab3_SD.c"
  5736 ;; Parameters:    Size  Location     Type
  5737 ;;  Byte4           1    wreg     unsigned char 
  5738 ;;  Byte3           1    0[COMMON] unsigned char 
  5739 ;;  Byte2           1    1[COMMON] unsigned char 
  5740 ;;  Byte1           1    2[COMMON] unsigned char 
  5741 ;;  Byte0           1    3[COMMON] unsigned char 
  5742 ;; Auto vars:     Size  Location     Type
  5743 ;;  Byte4           1    4[COMMON] unsigned char 
  5744 ;;  match           1    5[COMMON] _Bool 
  5745 ;; Return value:  Size  Location     Type
  5746 ;;                  1    wreg      _Bool 
  5747 ;; Registers used:
  5748 ;;		wreg, status,2
  5749 ;; Tracked objects:
  5750 ;;		On entry : 0/0
  5751 ;;		On exit  : 0/0
  5752 ;;		Unchanged: 0/0
  5753 ;; Data sizes:     COMMON   BANK0   BANK1   BANK2   BANK3   BANK4   BANK5   BANK6   BANK7   BANK8   BANK9  BANK10  BANK1
      +1  BANK12  BANK13  BANK14  BANK15  BANK16  BANK17  BANK18  BANK19  BANK20  BANK21  BANK22  BANK23  BANK24  BANK25
  5754 ;;      Params:         4       0       0       0       0       0       0       0       0       0       0       0       
      +0       0       0       0       0       0       0       0       0       0       0       0       0       0       0
  5755 ;;      Locals:         2       0       0       0       0       0       0       0       0       0       0       0       
      +0       0       0       0       0       0       0       0       0       0       0       0       0       0       0
  5756 ;;      Temps:          0       0       0       0       0       0       0       0       0       0       0       0       
      +0       0       0       0       0       0       0       0       0       0       0       0       0       0       0
  5757 ;;      Totals:         6       0       0       0       0       0       0       0       0       0       0       0       
      +0       0       0       0       0       0       0       0       0       0       0       0       0       0       0
  5758 ;;Total ram usage:        6 bytes
  5759 ;; Hardware stack levels used:    1
  5760 ;; This function calls:
  5761 ;;		Nothing
  5762 ;; This function is called by:
  5763 ;;		_SD_Init
  5764 ;; This function uses a non-reentrant model
  5765 ;;
  5766                           
  5767                           
  5768                           ;psect for function _SD_Check40bitResponse
  5769  0049                     _SD_Check40bitResponse:	
  5770                           
  5771                           ;incstack = 0
  5772                           ; Regs used in _SD_Check40bitResponse: [wreg+status,2]
  5773                           ;SD_Check40bitResponse@Byte4 stored from wreg
  5774  0049  00F4               	movwf	SD_Check40bitResponse@Byte4
  5775                           
  5776                           ;Lab3_SD.c: 171: _Bool SD_Check40bitResponse(char Byte4, char Byte3, char Byte2, char By
      +                          te1, char Byte0);Lab3_SD.c: 172: {;Lab3_SD.c: 173:     _Bool match = 1;
  5777  004A  01F5               	clrf	SD_Check40bitResponse@match
  5778  004B  0AF5               	incf	SD_Check40bitResponse@match,f
  5779                           
  5780                           ;Lab3_SD.c: 174:     if (Byte4 != GLBL_Resp40[0]) match = 0;
  5781  004C  0020               	movlb	0	; select bank0
  5782  004D  0841               	movf	_GLBL_Resp40,w
  5783  004E  0674               	xorwf	SD_Check40bitResponse@Byte4,w
  5784  004F  1D03               	btfss	3,2
  5785  0050  01F5               	clrf	SD_Check40bitResponse@match
  5786                           
  5787                           ;Lab3_SD.c: 175:     if (Byte3 != GLBL_Resp40[1]) match = 0;
  5788  0051  0842               	movf	_GLBL_Resp40+1,w
  5789  0052  0670               	xorwf	SD_Check40bitResponse@Byte3,w
  5790  0053  1D03               	btfss	3,2
  5791  0054  01F5               	clrf	SD_Check40bitResponse@match
  5792                           
  5793                           ;Lab3_SD.c: 176:     if (Byte2 != GLBL_Resp40[2]) match = 0;
  5794  0055  0843               	movf	_GLBL_Resp40+2,w
  5795  0056  0671               	xorwf	SD_Check40bitResponse@Byte2,w
  5796  0057  1D03               	btfss	3,2
  5797  0058  01F5               	clrf	SD_Check40bitResponse@match
  5798                           
  5799                           ;Lab3_SD.c: 177:     if (Byte1 != GLBL_Resp40[3]) match = 0;
  5800  0059  0844               	movf	_GLBL_Resp40+3,w
  5801  005A  0672               	xorwf	SD_Check40bitResponse@Byte1,w
  5802  005B  1D03               	btfss	3,2
  5803  005C  01F5               	clrf	SD_Check40bitResponse@match
  5804                           
  5805                           ;Lab3_SD.c: 178:     if (Byte0 != GLBL_Resp40[4]) match = 0;
  5806  005D  0845               	movf	_GLBL_Resp40+4,w
  5807  005E  0673               	xorwf	SD_Check40bitResponse@Byte0,w
  5808  005F  1D03               	btfss	3,2
  5809  0060  01F5               	clrf	SD_Check40bitResponse@match
  5810                           
  5811                           ;Lab3_SD.c: 179:     return match;
  5812  0061  0875               	movf	SD_Check40bitResponse@match,w
  5813  0062  0008               	return
  5814  0063                     __end_of_SD_Check40bitResponse:	
  5815  007E                     btemp	set	126	;btemp
  5816  007E                     wtemp0	set	126


Data Sizes:
    Strings     0
    Constant    256
    Data        146
    BSS         20
    Persistent  32
    Stack       0

Auto Spaces:
    Space          Size  Autos    Used
    COMMON           14     13      14
    BANK0            80     14      43
    BANK1            80      0      68
    BANK2            80      0      68
    BANK3            80      0       0
    BANK4            80      0       0
    BANK5            80      0       0
    BANK6            16      0       0
    BANK7             0      0       0
    BANK8             0      0       0
    BANK9             0      0       0
    BANK10            0      0       0
    BANK11            0      0       0
    BANK12            0      0       0
    BANK13           80      0       0
    BANK14           80      0       0
    BANK15           80      0       0
    BANK16           80      0       0
    BANK17           80      0       0
    BANK18           80      0       0
    BANK19            0      0       0
    BANK20            0      0       0
    BANK21            0      0       0
    BANK22            0      0       0
    BANK23            0      0       0
    BANK24            0      0       0
    BANK25            0      0       0

Pointer List with Targets:

    G_u8charPointer	PTR unsigned char  size(1) Largest target is 2
		 -> NULL(NULL[0]), G_u16Address(BANK0[2]), 


Critical Paths under _main in COMMON

    _main->_readTime
    _checkButtonPress->_readTime
    _readTime->_playAudio
    _playMinute10->_playAudio
    _playMinute->_playAudio
    _playHour->_playAudio
    _playAudio->_active
    _active->_SD_SendCommand
    _SD_Init->_SD_SendCommand
    _SD_SendCommand->_SPI_Write

Critical Paths under _main in BANK0

    _main->_readTime
    _checkButtonPress->_readTime
    _readTime->_playMinute10
    _playMinute10->_playMinute
    _playMinute->_playAudio
    _playHour->_playAudio

Critical Paths under _main in BANK1

    None.

Critical Paths under _main in BANK2

    None.

Critical Paths under _main in BANK3

    None.

Critical Paths under _main in BANK4

    None.

Critical Paths under _main in BANK5

    None.

Critical Paths under _main in BANK6

    None.

Critical Paths under _main in BANK7

    None.

Critical Paths under _main in BANK8

    None.

Critical Paths under _main in BANK9

    None.

Critical Paths under _main in BANK10

    None.

Critical Paths under _main in BANK11

    None.

Critical Paths under _main in BANK12

    None.

Critical Paths under _main in BANK13

    None.

Critical Paths under _main in BANK14

    None.

Critical Paths under _main in BANK15

    None.

Critical Paths under _main in BANK16

    None.

Critical Paths under _main in BANK17

    None.

Critical Paths under _main in BANK18

    None.

Critical Paths under _main in BANK19

    None.

Critical Paths under _main in BANK20

    None.

Critical Paths under _main in BANK21

    None.

Critical Paths under _main in BANK22

    None.

Critical Paths under _main in BANK23

    None.

Critical Paths under _main in BANK24

    None.

Critical Paths under _main in BANK25

    None.

Call Graph Tables:

 ---------------------------------------------------------------------------------
 (Depth) Function   	        Calls       Base Space   Used Autos Params    Refs
 ---------------------------------------------------------------------------------
 (0) _main                                                 0     0      0   80381
                            _SD_Init
                           _SPI_Init
                   _checkButtonPress
                      _configButtons
                           _readTime
                      _timeIncrement
 ---------------------------------------------------------------------------------
 (1) _timeIncrement                                        0     0      0       0
 ---------------------------------------------------------------------------------
 (1) _configButtons                                        0     0      0       0
 ---------------------------------------------------------------------------------
 (1) _checkButtonPress                                     0     0      0   38451
                           _readTime
 ---------------------------------------------------------------------------------
 (1) _readTime                                             7     3      4   38451
                                             12 COMMON     1     1      0
                                              8 BANK0      6     2      4
                          _playAudio
                           _playHour
                       _playMinute10
 ---------------------------------------------------------------------------------
 (2) _playMinute10                                         2     0      2   20172
                                              6 BANK0      2     0      2
                            ___awdiv
                          _playAudio
                         _playMinute
 ---------------------------------------------------------------------------------
 (3) _playMinute                                           2     0      2   10213
                                              4 BANK0      2     0      2
                            ___awdiv
                          _playAudio
 ---------------------------------------------------------------------------------
 (4) ___awdiv                                              9     5      4    1060
                                              0 COMMON     9     5      4
 ---------------------------------------------------------------------------------
 (2) _playHour                                             2     0      2    9053
                                              4 BANK0      2     0      2
                          _playAudio
 ---------------------------------------------------------------------------------
 (4) _playAudio                                            5     1      4    8637
                                             11 COMMON     1     1      0
                                              0 BANK0      4     0      4
                             _active
 ---------------------------------------------------------------------------------
 (5) _active                                               2     2      0    2969
                                              9 COMMON     2     2      0
                _SD_Read8bitResponse
                     _SD_SendCommand
                           _SPI_Read
                           _writeDAQ
 ---------------------------------------------------------------------------------
 (6) _writeDAQ                                             3     3      0      22
                                              0 COMMON     3     3      0
 ---------------------------------------------------------------------------------
 (1) _SPI_Init                                             0     0      0       0
 ---------------------------------------------------------------------------------
 (1) _SD_Init                                              1     1      0    3479
                                              9 COMMON     1     1      0
              _SD_Check40bitResponse
               _SD_Check8bitResponse
               _SD_Read40bitResponse
                _SD_Read8bitResponse
                     _SD_SendCommand
                          _SPI_Write
 ---------------------------------------------------------------------------------
 (6) _SD_SendCommand                                       8     4      4    2877
                                              1 COMMON     8     4      4
                          _SPI_Write
 ---------------------------------------------------------------------------------
 (7) _SPI_Write                                            1     1      0      22
                                              0 COMMON     1     1      0
 ---------------------------------------------------------------------------------
 (6) _SD_Read8bitResponse                                  2     2      0      46
                                              0 COMMON     2     2      0
                           _SPI_Read
 ---------------------------------------------------------------------------------
 (2) _SD_Read40bitResponse                                 2     2      0      46
                                              0 COMMON     2     2      0
                           _SPI_Read
 ---------------------------------------------------------------------------------
 (6) _SPI_Read                                             0     0      0       0
 ---------------------------------------------------------------------------------
 (2) _SD_Check8bitResponse                                 2     2      0      46
                                              0 COMMON     2     2      0
 ---------------------------------------------------------------------------------
 (2) _SD_Check40bitResponse                                6     2      4     442
                                              0 COMMON     6     2      4
 ---------------------------------------------------------------------------------
 Estimated maximum stack depth 7
 ---------------------------------------------------------------------------------

 Call Graph Graphs:

 _main (ROOT)
   _SD_Init
     _SD_Check40bitResponse
     _SD_Check8bitResponse
     _SD_Read40bitResponse
       _SPI_Read
     _SD_Read8bitResponse
       _SPI_Read
     _SD_SendCommand
       _SPI_Write
     _SPI_Write
   _SPI_Init
   _checkButtonPress
     _readTime
       _playAudio
         _active
           _SD_Read8bitResponse
             _SPI_Read
           _SD_SendCommand
             _SPI_Write
           _SPI_Read
           _writeDAQ
       _playHour
         _playAudio
           _active
             _SD_Read8bitResponse
               _SPI_Read
             _SD_SendCommand
               _SPI_Write
             _SPI_Read
             _writeDAQ
       _playMinute10
         ___awdiv
         _playAudio
           _active
             _SD_Read8bitResponse
               _SPI_Read
             _SD_SendCommand
               _SPI_Write
             _SPI_Read
             _writeDAQ
         _playMinute
           ___awdiv
           _playAudio
             _active
               _SD_Read8bitResponse
                 _SPI_Read
               _SD_SendCommand
                 _SPI_Write
               _SPI_Read
               _writeDAQ
   _configButtons
   _readTime
     _playAudio
       _active
         _SD_Read8bitResponse
           _SPI_Read
         _SD_SendCommand
           _SPI_Write
         _SPI_Read
         _writeDAQ
     _playHour
       _playAudio
         _active
           _SD_Read8bitResponse
             _SPI_Read
           _SD_SendCommand
             _SPI_Write
           _SPI_Read
           _writeDAQ
     _playMinute10
       ___awdiv
       _playAudio
         _active
           _SD_Read8bitResponse
             _SPI_Read
           _SD_SendCommand
             _SPI_Write
           _SPI_Read
           _writeDAQ
       _playMinute
         ___awdiv
         _playAudio
           _active
             _SD_Read8bitResponse
               _SPI_Read
             _SD_SendCommand
               _SPI_Write
             _SPI_Read
             _writeDAQ
   _timeIncrement

 Address spaces:
Name               Size   Autos  Total    Cost      Usage
BIGRAM_1           3E0      0       0       0        0.0%
NULL                 0      0       0       0        0.0%
CODE                 0      0       0       0        0.0%
BIGRAM             3F0      0       0       1        0.0%
BITSFR0              0      0       0       1        0.0%
SFR0                 0      0       0       1        0.0%
BITCOMMON            E      0       0       2        0.0%
BITSFR1              0      0       0       2        0.0%
SFR1                 0      0       0       2        0.0%
COMMON               E      D       E       3      100.0%
BITSFR2              0      0       0       3        0.0%
SFR2                 0      0       0       3        0.0%
BITSFR3              0      0       0       4        0.0%
SFR3                 0      0       0       4        0.0%
STACK                0      0       0       4        0.0%
BANK0               50      E      2B       5       53.8%
BITSFR4              0      0       0       5        0.0%
SFR4                 0      0       0       5        0.0%
BITBANK0            50      0       0       6        0.0%
BITSFR5              0      0       0       6        0.0%
SFR5                 0      0       0       6        0.0%
BITBANK1            50      0       0       7        0.0%
BITSFR6              0      0       0       7        0.0%
SFR6                 0      0       0       7        0.0%
BANK1               50      0      44       8       85.0%
BITSFR7              0      0       0       8        0.0%
SFR7                 0      0       0       8        0.0%
BITBANK2            50      0       0       9        0.0%
BITSFR8              0      0       0       9        0.0%
SFR8                 0      0       0       9        0.0%
BANK2               50      0      44      10       85.0%
BITSFR9              0      0       0      10        0.0%
SFR9                 0      0       0      10        0.0%
BITBANK3            50      0       0      11        0.0%
BITSFR10             0      0       0      11        0.0%
SFR10                0      0       0      11        0.0%
BANK3               50      0       0      12        0.0%
BITSFR11             0      0       0      12        0.0%
SFR11                0      0       0      12        0.0%
BITSFR12             0      0       0      13        0.0%
SFR12                0      0       0      13        0.0%
ABS                  0      0      C1      13        0.0%
BITBANK4            50      0       0      14        0.0%
BITSFR13             0      0       0      14        0.0%
SFR13                0      0       0      14        0.0%
BANK4               50      0       0      15        0.0%
BITSFR14             0      0       0      15        0.0%
SFR14                0      0       0      15        0.0%
BITBANK5            50      0       0      16        0.0%
BITSFR15             0      0       0      16        0.0%
SFR15                0      0       0      16        0.0%
BANK5               50      0       0      17        0.0%
BITSFR16             0      0       0      17        0.0%
SFR16                0      0       0      17        0.0%
BITBANK6            50      0       0      18        0.0%
BITSFR17             0      0       0      18        0.0%
SFR17                0      0       0      18        0.0%
BANK6               10      0       0      19        0.0%
BITSFR18             0      0       0      19        0.0%
SFR18                0      0       0      19        0.0%
BITBANK7            50      0       0      20        0.0%
BITSFR19             0      0       0      20        0.0%
SFR19                0      0       0      20        0.0%
BITSFR20             0      0       0      21        0.0%
SFR20                0      0       0      21        0.0%
BANK7                0      0       0      21        0.0%
BITBANK8            50      0       0      22        0.0%
BITSFR21             0      0       0      22        0.0%
SFR21                0      0       0      22        0.0%
BITSFR22             0      0       0      23        0.0%
SFR22                0      0       0      23        0.0%
BANK8                0      0       0      23        0.0%
BITBANK9            50      0       0      24        0.0%
BITSFR23             0      0       0      24        0.0%
SFR23                0      0       0      24        0.0%
BITSFR24             0      0       0      25        0.0%
SFR24                0      0       0      25        0.0%
BANK9                0      0       0      25        0.0%
BITBANK10           50      0       0      26        0.0%
BITSFR25             0      0       0      26        0.0%
SFR25                0      0       0      26        0.0%
BITSFR26             0      0       0      27        0.0%
SFR26                0      0       0      27        0.0%
BANK10               0      0       0      27        0.0%
BITBANK11           50      0       0      28        0.0%
BITSFR27             0      0       0      28        0.0%
SFR27                0      0       0      28        0.0%
BITSFR28             0      0       0      29        0.0%
SFR28                0      0       0      29        0.0%
BANK11               0      0       0      29        0.0%
BITSFR29             0      0       0      30        0.0%
SFR29                0      0       0      30        0.0%
DATA                 0      0      C1      30        0.0%
BITBANK12           30      0       0      31        0.0%
BITSFR30             0      0       0      31        0.0%
SFR30                0      0       0      31        0.0%
BITSFR31             0      0       0      32        0.0%
SFR31                0      0       0      32        0.0%
BANK12               0      0       0      32        0.0%
BITBANK13           50      0       0      33        0.0%
BANK13              50      0       0      34        0.0%
BITBANK14           50      0       0      35        0.0%
BANK14              50      0       0      36        0.0%
BITBANK15           50      0       0      37        0.0%
BANK15              50      0       0      38        0.0%
BITBANK16           50      0       0      39        0.0%
BANK16              50      0       0      40        0.0%
BITBANK17           50      0       0      41        0.0%
BANK17              50      0       0      42        0.0%
BITBANK18           50      0       0      43        0.0%
BANK18              50      0       0      44        0.0%
BITBANK19           50      0       0      45        0.0%
BANK19               0      0       0      46        0.0%
BITBANK20           50      0       0      47        0.0%
BANK20               0      0       0      48        0.0%
BITBANK21           50      0       0      49        0.0%
BANK21               0      0       0      50        0.0%
BITBANK22           50      0       0      51        0.0%
BANK22               0      0       0      52        0.0%
BITBANK23           50      0       0      53        0.0%
BANK23               0      0       0      54        0.0%
BITBANK24           50      0       0      55        0.0%
BANK24               0      0       0      56        0.0%
BITBANK25           20      0       0      57        0.0%
BANK25               0      0       0      58        0.0%


Microchip Technology PIC Macro Assembler V2.05 build -831301201 
Symbol Table                                                                                   Thu Apr 11 09:20:52 2019

               playMinute@minute 0037                     ___awdiv@sign 0076               writeDAQ@writevalue 0072  
          playAudio@startAddress 0033         __end_of_checkButtonPress 0322                              l120 0FDD  
                            l114 0008                              l251 02E8                              l228 009E  
                            l254 030E                              l246 02B3                              l256 031B  
                            l248 02C2                              l355 024B                              l294 0432  
                            wreg 0009           ??_SD_Check8bitResponse 0070                  ?_SD_SendCommand 0071  
                           l2012 02F9                             l2016 0306                             l2026 0314  
                           l2114 00B3                             l1700 0679                             l1614 01FC  
                           l1616 0250                             l1712 06BE                             l1704 0690  
                           l1720 06EC                             l1570 0023                             l1802 05DB  
                           l1642 01B5                             l1722 06F2                             l1628 0078  
                           l1660 01D4                             l1740 0765                             l1732 0735  
                           l1724 0705                             l1716 06D5                             l1708 06A7  
                           l1820 040E                             l1812 03CE                             l1670 01EF  
                           l1920 0384                             l1648 01C0                             l1752 07AD  
                           l1744 077D                             l1736 074D                             l1728 071D  
                           l1816 03EE                             l1914 0365                             l1594 021E  
                           l1770 051B                             l1762 04EB                             l1674 01F7  
                           l1666 01E6                             l1658 01C8                             l1908 0352  
                           l1748 0795                             l1692 064B                             l1684 061B  
                           l1838 00C6                             l1598 0227                             l1790 0593  
                           l1782 0563                             l1774 0533                             l1766 0503  
                           l1696 0662                             l1688 0633                             l1794 05AB  
                           l1786 057B                             l1778 054B                             l1798 05C3  
                           l1888 0280                             l1992 02D3                             l1976 02BB  
                           l1996 02E0                             u1105 0203                             u1205 01DF  
                           u1215 01E7                             u1175 01CB                             u1195 01D5  
                           _T2PR 0494                             u1685 025F                             _main 009B  
                __end_of_SD_Init 03AE                             fsr0h 0005                             fsr1h 0007  
                           indf0 0000                             fsr0l 0004                             indf1 0001  
                           fsr1l 0006                             btemp 007E                             start 0002  
  __size_of_SD_Read40bitResponse 002D              playAudio@endAddress 0035     __size_of_SD_Read8bitResponse 0011  
               __end_of_CRCTable 0900                    __CFG_PLLEN$ON 0000                            ?_main 0070  
                __end_of___awdiv 01FC                    __CFG_WDTE$OFF 0000                            _ANSC3 0C73  
                ___awdiv@divisor 0070                            _T2CON 0495                  ___awdiv@counter 0075  
                ??_configButtons 0070                 __end_of_SPI_Init 009B                 __end_of_SPI_Read 0FE1  
                          status 0003                            wtemp0 007E               __size_of_SPI_Write 0007  
                __initialization 07B2                     __end_of_main 00C6                           ??_main 007D  
                _GLBL_ReadBuffer 21F0         SD_Check8bitResponse@Byte 0070                           _DAC1LD 2C68  
           _G_au16startAddresses 00A0                        ??_SD_Init 0079                 ___awdiv@dividend 0072  
                         _RC2PPS 0EA2                           _RC4PPS 0EA4                           _OSCCON 009B  
                         _TRISC2 0472                           _TRISC3 0473                           _TRISC4 0474  
                         _TRISC7 0477                        ??___awdiv 0074                           _active 01FC  
               __end_of_readTime 02AB         SD_SendCommand@ByteToSend 0077                 ___awdiv@quotient 0077  
               __end_of_playHour 05F2                __end_of_SPI_Write 000B                 __end_of_writeDAQ 1000  
        __end_of__initialization 07FD   __size_of_SD_Check40bitResponse 001A    __end_of_SD_Check40bitResponse 0063  
          __end_of_timeIncrement 0123                   __pcstackCOMMON 0070                     __pidataBANK0 0FEB  
                   __pidataBANK1 0167                     __pidataBANK2 0123                        ?_SPI_Init 0070  
                      ?_SPI_Read 0070                active@readMessage 007A                ?_checkButtonPress 0070  
               ??_SD_SendCommand 0075               ??_checkButtonPress 007D              _SD_Read8bitResponse 0023  
                  ?_playMinute10 0039                       __pbssBANK0 0020                       __pmaintext 009B  
           ?_SD_Read8bitResponse 0070               __size_of_playAudio 001B                          ?_active 0070  
                        _DAC1REF 058F                       ??_SPI_Init 0070                       ??_SPI_Read 0070  
   __end_of_SD_Read40bitResponse 00F3                   ??_playMinute10 007C                          _SSP1ADD 0212  
                        _SSP1BUF 0211                          _SD_Init 0322    __size_of_SD_Check8bitResponse 000A  
                      ?_readTime 003B                        ?_playHour 0037            ??_SD_Read8bitResponse 0070  
                        ___awdiv 01AB                  __size_of_active 0056                        ?_writeDAQ 0070  
                   readTime@hour 003B                          __ptext1 00F3                          __ptext2 0034  
                        __ptext3 02AB                          __ptext4 0252                          __ptext5 03AE  
                        __ptext6 05F2                          __ptext7 01AB                          __ptext8 04D3  
                        __ptext9 0063            __end_of_configButtons 0049                __end_of_playAudio 007E  
                        clrloop0 000C             end_of_initialization 07FD                       _playMinute 05F2  
     SD_Check40bitResponse@Byte0 0073       SD_Check40bitResponse@Byte1 0072       SD_Check40bitResponse@Byte2 0071  
     SD_Check40bitResponse@Byte3 0070       SD_Check40bitResponse@Byte4 0074                          init_ram 0017  
                     ??_readTime 007C                          initloop 0018       SD_Check40bitResponse@match 0075  
                     ??_playHour 007C                       ??_writeDAQ 0070                        _PORTBbits 000D  
                      _PORTCbits 000E                       _pressedMin 002A                  _G_u16EndAddress 0024  
                      _SSPDATPPS 0E3B                        _SSPCLKPPS 0E3A                 __CFG_FOSC$INTOSC 0000  
                      _G_u16hour 0048                        _TRISBbits 008D                    __pbssBIGRAM_1 25F0  
                      _SPI_Write 0004  SD_Read40bitResponse@readMessage 0071             _SD_Read40bitResponse 00C6  
           __end_of_playMinute10 043A                   __end_of_active 0252                    _G_8hasAddress 002E  
              __size_of_SPI_Init 001D                __size_of_SPI_Read 0007              start_initialization 07B2  
             SPI_Write@Data_8bit 0070                       ?_SPI_Write 0070                      ?_playMinute 0037  
      __size_of_checkButtonPress 0077                 _GLBL_WriteBuffer 25F0            ?_SD_Read40bitResponse 0070  
          _SD_Check40bitResponse 0049                         ??_active 0079                      __pdataBANK0 0041  
                    __pdataBANK1 00A0                      __pdataBANK2 0120                      __pbssBIGRAM 21F0  
                    __pbssCOMMON 007D                        ___latbits 0003                    __pcstackBANK0 0033  
         __size_of_timeIncrement 0030                         ?_SD_Init 0070                __size_of_readTime 0059  
              __size_of_playHour 011F                         ?___awdiv 0070     __end_of_SD_Check8bitResponse 0FEB  
                 readTime@minute 003D                     playHour@hour 0037              __size_of_playMinute 01C0  
                       _DAC1CON0 058E                __size_of_writeDAQ 000B                      _GLBL_Resp40 0041  
                    ??_SPI_Write 0070                         _T2CLKCON 0497                 readTime@temphour 003F  
                       _CRCTable 0800          __size_of_SD_SendCommand 0099           ??_SD_Read40bitResponse 0070  
                      _playAudio 0063      __end_of_SD_Read8bitResponse 0034                        clear_ram0 000B  
          __size_of_playMinute10 008C           SD_SendCommand@CMD_6bit 0076                         _PIR1bits 0011  
         ?_SD_Check40bitResponse 0070                    _timeIncrement 00F3                         _SSP1CON1 0215  
                       _SSP1STAT 0214                         _G_u16min 0046                         _SPI_Init 007E  
                       _SPI_Read 0FDA                         _G_u8play 0030                     _playMinute10 03AE  
             playMinute10@minute 0039                 __size_of_SD_Init 008C                  _G_u8charPointer 007D  
         SD_SendCommand@Checksum 0078                       ?_playAudio 0033                 _checkButtonPress 02AB  
             _G_au16endAddresses 0120                   ?_timeIncrement 0070           __size_of_configButtons 0015  
               __size_of___awdiv 0051                       _ANSELBbits 018D                         __ptext10 01FC  
                       __ptext11 0FF5                         __ptext20 0049                         __ptext12 007E  
                       __ptext13 0322                         __ptext14 043A                         __ptext15 0004  
                       __ptext16 0023                         __ptext17 00C6                         __ptext18 0FDA  
                       __ptext19 0FE1                     _SSP1CON1bits 0215                     ??_playMinute 007C  
           _SD_Check8bitResponse 0FE1                       _GLBL_Resp8 004A                         _readTime 0252  
                  __size_of_main 002B               SD_SendCommand@ARG0 0074               SD_SendCommand@ARG1 0073  
             SD_SendCommand@ARG2 0072               SD_SendCommand@ARG3 0071                         _playHour 04D3  
                       _timeSaid 002D                     _SSP1STATbits 0214                         _writeDAQ 0FF5  
             __end_of_playMinute 07B2                      _OSCSTATbits 009C   SD_Read8bitResponse@readMessage 0071  
                  _pressedToggle 0029                    _pressedSnooze 0028                    _configButtons 0034  
          ?_SD_Check8bitResponse 0070                   _SD_SendCommand 043A        SD_Check8bitResponse@match 0071  
                    ??_playAudio 007B                      _G_8sendbyte 002F                  ??_timeIncrement 0070  
                   _G_u16Address 0031                    __pstringtext1 0800                       _G_8counter 0026  
                 _G_u32timeTrack 0020                   ?_configButtons 0070           __end_of_SD_SendCommand 04D3  
                    _pressedHour 002B                      _pressedTalk 002C          ??_SD_Check40bitResponse 0074  
